SF:/Users/gsalingu/git/api-bones/.claude/worktrees/feat+211-nested-org-adr/api-bones-reqwest/src/lib.rs
FN:212,_RNvXs_Cs7Iqq34TXXev_17api_bones_reqwestNtNtNtCs8BwZ6EpfDIl_7reqwest10async_impl8response8ResponseNtB4_11ResponseExt13next_page_url
FN:193,_RNvXs_Cs7Iqq34TXXev_17api_bones_reqwestNtNtNtCs8BwZ6EpfDIl_7reqwest10async_impl8response8ResponseNtB4_11ResponseExt15rate_limit_info
FN:227,_RINvXs_Cs7Iqq34TXXev_17api_bones_reqwestNtNtNtCs8BwZ6EpfDIl_7reqwest10async_impl8response8ResponseNtB5_11ResponseExt20problem_json_or_jsonNtNtCsdC8qrlXHNsA_10serde_json5value5ValueEB5_
FN:650,_RNCNCNvNtCs7Iqq34TXXev_17api_bones_reqwest5testss_45next_page_url_non_utf8_link_header_is_skipped00B7_
FN:878,_RNCNCNvNtCs7Iqq34TXXev_17api_bones_reqwest5testss_58from_response_text_read_error_falls_back_to_upstream_error00B7_
FN:567,_RNCNvNtCs7Iqq34TXXev_17api_bones_reqwest5testss_20next_page_url_absent0B5_
FN:546,_RNCNvNtCs7Iqq34TXXev_17api_bones_reqwest5testss_21next_page_url_present0B5_
FN:492,_RNCNvNtCs7Iqq34TXXev_17api_bones_reqwest5testss_23rate_limit_info_present0B5_
FN:581,_RNCNvNtCs7Iqq34TXXev_17api_bones_reqwest5testss_28problem_json_or_json_success0B5_
FN:426,_RNCNvNtCs7Iqq34TXXev_17api_bones_reqwest5testss_31request_builder_with_request_id0B5_
FN:778,_RNCNvNtCs7Iqq34TXXev_17api_bones_reqwest5testss_33from_response_parses_problem_json0B5_
FN:796,_RNCNvNtCs7Iqq34TXXev_17api_bones_reqwest5testss_33from_response_plain_text_fallback0B5_
FN:665,_RNCNvNtCs7Iqq34TXXev_17api_bones_reqwest5testss_33next_page_url_with_only_prev_link0B5_
FN:470,_RNCNvNtCs7Iqq34TXXev_17api_bones_reqwest5testss_33request_builder_with_bearer_token0B5_
FN:528,_RNCNvNtCs7Iqq34TXXev_17api_bones_reqwest5testss_35rate_limit_info_without_retry_after0B5_
FN:850,_RNCNvNtCs7Iqq34TXXev_17api_bones_reqwest5testss_36from_response_extracts_uuid_instance0B5_
FN:448,_RNCNvNtCs7Iqq34TXXev_17api_bones_reqwest5testss_36request_builder_with_idempotency_key0B5_
FN:597,_RNCNvNtCs7Iqq34TXXev_17api_bones_reqwest5testss_37problem_json_or_json_problem_response0B5_
FN:514,_RNCNvNtCs7Iqq34TXXev_17api_bones_reqwest5testss_44rate_limit_info_missing_headers_returns_none0B5_
FN:643,_RNCNvNtCs7Iqq34TXXev_17api_bones_reqwest5testss_45next_page_url_non_utf8_link_header_is_skipped0B5_
FN:713,_RNCNvNtCs7Iqq34TXXev_17api_bones_reqwest5testss_46problem_json_or_json_success_invalid_json_body0B5_
FN:832,_RNCNvNtCs7Iqq34TXXev_17api_bones_reqwest5testss_47from_response_problem_json_parse_error_fallback0B5_
FN:618,_RNCNvNtCs7Iqq34TXXev_17api_bones_reqwest5testss_47problem_json_or_json_non_problem_error_response0B5_
FN:694,_RNCNvNtCs7Iqq34TXXev_17api_bones_reqwest5testss_55problem_json_or_json_problem_response_invalid_json_body0B5_
FN:813,_RNCNvNtCs7Iqq34TXXev_17api_bones_reqwest5testss_56from_response_unknown_type_uri_falls_back_to_status_code0B5_
FN:870,_RNCNvNtCs7Iqq34TXXev_17api_bones_reqwest5testss_58from_response_text_read_error_falls_back_to_upstream_error0B5_
FN:227,_RNCINvXs_Cs7Iqq34TXXev_17api_bones_reqwestNtNtNtCs8BwZ6EpfDIl_7reqwest10async_impl8response8ResponseNtB7_11ResponseExt20problem_json_or_jsonNtNtCsdC8qrlXHNsA_10serde_json5value5ValueE0B7_
FN:233,_RNCNCINvXs_Cs7Iqq34TXXev_17api_bones_reqwestNtNtNtCs8BwZ6EpfDIl_7reqwest10async_impl8response8ResponseNtB9_11ResponseExt20problem_json_or_jsonNtNtCsdC8qrlXHNsA_10serde_json5value5ValueE00B9_
FN:240,_RNCNCINvXs_Cs7Iqq34TXXev_17api_bones_reqwestNtNtNtCs8BwZ6EpfDIl_7reqwest10async_impl8response8ResponseNtB9_11ResponseExt20problem_json_or_jsonNtNtCsdC8qrlXHNsA_10serde_json5value5ValueE0s0_0B9_
FN:243,_RNCNCINvXs_Cs7Iqq34TXXev_17api_bones_reqwestNtNtNtCs8BwZ6EpfDIl_7reqwest10async_impl8response8ResponseNtB9_11ResponseExt20problem_json_or_jsonNtNtCsdC8qrlXHNsA_10serde_json5value5ValueE0s1_0B9_
FN:249,_RNCNCINvXs_Cs7Iqq34TXXev_17api_bones_reqwestNtNtNtCs8BwZ6EpfDIl_7reqwest10async_impl8response8ResponseNtB9_11ResponseExt20problem_json_or_jsonNtNtCsdC8qrlXHNsA_10serde_json5value5ValueE0s2_0B9_
FN:262,_RNCNCINvXs_Cs7Iqq34TXXev_17api_bones_reqwestNtNtNtCs8BwZ6EpfDIl_7reqwest10async_impl8response8ResponseNtB9_11ResponseExt20problem_json_or_jsonNtNtCsdC8qrlXHNsA_10serde_json5value5ValueE0s3_0B9_
FN:234,_RNCNCINvXs_Cs7Iqq34TXXev_17api_bones_reqwestNtNtNtCs8BwZ6EpfDIl_7reqwest10async_impl8response8ResponseNtB9_11ResponseExt20problem_json_or_jsonNtNtCsdC8qrlXHNsA_10serde_json5value5ValueE0s_0B9_
FN:324,_RNCNCNvCs7Iqq34TXXev_17api_bones_reqwest13from_response00B5_
FN:331,_RNCNCNvCs7Iqq34TXXev_17api_bones_reqwest13from_response0s0_0B5_
FN:357,_RNCNCNvCs7Iqq34TXXev_17api_bones_reqwest13from_response0s1_0B5_
FN:325,_RNCNCNvCs7Iqq34TXXev_17api_bones_reqwest13from_response0s_0B5_
FN:197,_RNCNCNvXs_Cs7Iqq34TXXev_17api_bones_reqwestNtNtNtCs8BwZ6EpfDIl_7reqwest10async_impl8response8ResponseNtB8_11ResponseExt15rate_limit_info00B8_
FN:198,_RNCNCNvXs_Cs7Iqq34TXXev_17api_bones_reqwestNtNtNtCs8BwZ6EpfDIl_7reqwest10async_impl8response8ResponseNtB8_11ResponseExt15rate_limit_info0s_0B8_
FN:316,_RNCNvCs7Iqq34TXXev_17api_bones_reqwest13from_response0B3_
FN:275,_RNCNvCs7Iqq34TXXev_17api_bones_reqwest15parse_link_next0B3_
FN:277,_RNCNvCs7Iqq34TXXev_17api_bones_reqwest15parse_link_nexts_0B3_
FN:194,_RNCNvXs_Cs7Iqq34TXXev_17api_bones_reqwestNtNtNtCs8BwZ6EpfDIl_7reqwest10async_impl8response8ResponseNtB6_11ResponseExt15rate_limit_info0B6_
FN:316,_RNvCs7Iqq34TXXev_17api_bones_reqwest13from_response
FN:270,_RNvCs7Iqq34TXXev_17api_bones_reqwest15parse_link_next
FN:285,_RNvCs7Iqq34TXXev_17api_bones_reqwest23map_status_to_api_error
FN:756,_RNvNtCs7Iqq34TXXev_17api_bones_reqwest5testss_14map_status_400
FN:372,_RNvNtCs7Iqq34TXXev_17api_bones_reqwest5testss_14map_status_401
FN:378,_RNvNtCs7Iqq34TXXev_17api_bones_reqwest5testss_14map_status_403
FN:762,_RNvNtCs7Iqq34TXXev_17api_bones_reqwest5testss_14map_status_404
FN:384,_RNvNtCs7Iqq34TXXev_17api_bones_reqwest5testss_14map_status_409
FN:390,_RNvNtCs7Iqq34TXXev_17api_bones_reqwest5testss_14map_status_422
FN:396,_RNvNtCs7Iqq34TXXev_17api_bones_reqwest5testss_14map_status_429
FN:402,_RNvNtCs7Iqq34TXXev_17api_bones_reqwest5testss_14map_status_500
FN:408,_RNvNtCs7Iqq34TXXev_17api_bones_reqwest5testss_14map_status_502
FN:414,_RNvNtCs7Iqq34TXXev_17api_bones_reqwest5testss_14map_status_503
FN:420,_RNvNtCs7Iqq34TXXev_17api_bones_reqwest5testss_14map_status_504
FN:567,_RNvNtCs7Iqq34TXXev_17api_bones_reqwest5testss_20next_page_url_absent
FN:546,_RNvNtCs7Iqq34TXXev_17api_bones_reqwest5testss_21next_page_url_present
FN:732,_RNvNtCs7Iqq34TXXev_17api_bones_reqwest5testss_21parse_link_next_basic
FN:768,_RNvNtCs7Iqq34TXXev_17api_bones_reqwest5testss_22map_status_unknown_5xx
FN:492,_RNvNtCs7Iqq34TXXev_17api_bones_reqwest5testss_23rate_limit_info_present
FN:741,_RNvNtCs7Iqq34TXXev_17api_bones_reqwest5testss_24parse_link_next_no_match
FN:747,_RNvNtCs7Iqq34TXXev_17api_bones_reqwest5testss_28parse_link_next_unquoted_rel
FN:581,_RNvNtCs7Iqq34TXXev_17api_bones_reqwest5testss_28problem_json_or_json_success
FN:426,_RNvNtCs7Iqq34TXXev_17api_bones_reqwest5testss_31request_builder_with_request_id
FN:778,_RNvNtCs7Iqq34TXXev_17api_bones_reqwest5testss_33from_response_parses_problem_json
FN:796,_RNvNtCs7Iqq34TXXev_17api_bones_reqwest5testss_33from_response_plain_text_fallback
FN:665,_RNvNtCs7Iqq34TXXev_17api_bones_reqwest5testss_33next_page_url_with_only_prev_link
FN:470,_RNvNtCs7Iqq34TXXev_17api_bones_reqwest5testss_33request_builder_with_bearer_token
FN:528,_RNvNtCs7Iqq34TXXev_17api_bones_reqwest5testss_35rate_limit_info_without_retry_after
FN:850,_RNvNtCs7Iqq34TXXev_17api_bones_reqwest5testss_36from_response_extracts_uuid_instance
FN:448,_RNvNtCs7Iqq34TXXev_17api_bones_reqwest5testss_36request_builder_with_idempotency_key
FN:597,_RNvNtCs7Iqq34TXXev_17api_bones_reqwest5testss_37problem_json_or_json_problem_response
FN:637,_RNvNtCs7Iqq34TXXev_17api_bones_reqwest5testss_38map_status_418_defaults_to_bad_request
FN:683,_RNvNtCs7Iqq34TXXev_17api_bones_reqwest5testss_40parse_link_next_empty_entry_returns_none
FN:514,_RNvNtCs7Iqq34TXXev_17api_bones_reqwest5testss_44rate_limit_info_missing_headers_returns_none
FN:643,_RNvNtCs7Iqq34TXXev_17api_bones_reqwest5testss_45next_page_url_non_utf8_link_header_is_skipped
FN:713,_RNvNtCs7Iqq34TXXev_17api_bones_reqwest5testss_46problem_json_or_json_success_invalid_json_body
FN:832,_RNvNtCs7Iqq34TXXev_17api_bones_reqwest5testss_47from_response_problem_json_parse_error_fallback
FN:618,_RNvNtCs7Iqq34TXXev_17api_bones_reqwest5testss_47problem_json_or_json_non_problem_error_response
FN:694,_RNvNtCs7Iqq34TXXev_17api_bones_reqwest5testss_55problem_json_or_json_problem_response_invalid_json_body
FN:813,_RNvNtCs7Iqq34TXXev_17api_bones_reqwest5testss_56from_response_unknown_type_uri_falls_back_to_status_code
FN:870,_RNvNtCs7Iqq34TXXev_17api_bones_reqwest5testss_58from_response_text_read_error_falls_back_to_upstream_error
FN:688,_RNvNtCs7Iqq34TXXev_17api_bones_reqwest5testss_59parse_link_next_malformed_url_no_closing_angle_returns_none
FN:96,_RINvXCs7Iqq34TXXev_17api_bones_reqwestNtNtNtCs8BwZ6EpfDIl_7reqwest10async_impl7request14RequestBuilderNtB3_17RequestBuilderExt15with_request_idReEB3_
FN:104,_RINvXCs7Iqq34TXXev_17api_bones_reqwestNtNtNtCs8BwZ6EpfDIl_7reqwest10async_impl7request14RequestBuilderNtB3_17RequestBuilderExt17with_bearer_tokenReEB3_
FN:100,_RINvXCs7Iqq34TXXev_17api_bones_reqwestNtNtNtCs8BwZ6EpfDIl_7reqwest10async_impl7request14RequestBuilderNtB3_17RequestBuilderExt20with_idempotency_keyReEB3_
FN:227,_RINvXs_Cs5XkJfse60P9_17api_bones_reqwestNtNtNtCs8BwZ6EpfDIl_7reqwest10async_impl8response8ResponseNtB5_11ResponseExt20problem_json_or_jsonNtNtCsdC8qrlXHNsA_10serde_json5value5ValueECskpCHb9aT1fw_17client_extensions
FN:227,_RNCINvXs_Cs5XkJfse60P9_17api_bones_reqwestNtNtNtCs8BwZ6EpfDIl_7reqwest10async_impl8response8ResponseNtB7_11ResponseExt20problem_json_or_jsonNtNtCsdC8qrlXHNsA_10serde_json5value5ValueE0CskpCHb9aT1fw_17client_extensions
FN:233,_RNCNCINvXs_Cs5XkJfse60P9_17api_bones_reqwestNtNtNtCs8BwZ6EpfDIl_7reqwest10async_impl8response8ResponseNtB9_11ResponseExt20problem_json_or_jsonNtNtCsdC8qrlXHNsA_10serde_json5value5ValueE00CskpCHb9aT1fw_17client_extensions
FN:240,_RNCNCINvXs_Cs5XkJfse60P9_17api_bones_reqwestNtNtNtCs8BwZ6EpfDIl_7reqwest10async_impl8response8ResponseNtB9_11ResponseExt20problem_json_or_jsonNtNtCsdC8qrlXHNsA_10serde_json5value5ValueE0s0_0CskpCHb9aT1fw_17client_extensions
FN:243,_RNCNCINvXs_Cs5XkJfse60P9_17api_bones_reqwestNtNtNtCs8BwZ6EpfDIl_7reqwest10async_impl8response8ResponseNtB9_11ResponseExt20problem_json_or_jsonNtNtCsdC8qrlXHNsA_10serde_json5value5ValueE0s1_0CskpCHb9aT1fw_17client_extensions
FN:249,_RNCNCINvXs_Cs5XkJfse60P9_17api_bones_reqwestNtNtNtCs8BwZ6EpfDIl_7reqwest10async_impl8response8ResponseNtB9_11ResponseExt20problem_json_or_jsonNtNtCsdC8qrlXHNsA_10serde_json5value5ValueE0s2_0CskpCHb9aT1fw_17client_extensions
FN:262,_RNCNCINvXs_Cs5XkJfse60P9_17api_bones_reqwestNtNtNtCs8BwZ6EpfDIl_7reqwest10async_impl8response8ResponseNtB9_11ResponseExt20problem_json_or_jsonNtNtCsdC8qrlXHNsA_10serde_json5value5ValueE0s3_0CskpCHb9aT1fw_17client_extensions
FN:234,_RNCNCINvXs_Cs5XkJfse60P9_17api_bones_reqwestNtNtNtCs8BwZ6EpfDIl_7reqwest10async_impl8response8ResponseNtB9_11ResponseExt20problem_json_or_jsonNtNtCsdC8qrlXHNsA_10serde_json5value5ValueE0s_0CskpCHb9aT1fw_17client_extensions
FN:96,_RINvXCs5XkJfse60P9_17api_bones_reqwestNtNtNtCs8BwZ6EpfDIl_7reqwest10async_impl7request14RequestBuilderNtB3_17RequestBuilderExt15with_request_idReECskpCHb9aT1fw_17client_extensions
FN:104,_RINvXCs5XkJfse60P9_17api_bones_reqwestNtNtNtCs8BwZ6EpfDIl_7reqwest10async_impl7request14RequestBuilderNtB3_17RequestBuilderExt17with_bearer_tokenReECskpCHb9aT1fw_17client_extensions
FN:100,_RINvXCs5XkJfse60P9_17api_bones_reqwestNtNtNtCs8BwZ6EpfDIl_7reqwest10async_impl7request14RequestBuilderNtB3_17RequestBuilderExt20with_idempotency_keyReECskpCHb9aT1fw_17client_extensions
FN:96,_RINvXCs5XkJfse60P9_17api_bones_reqwestNtNtNtCs8BwZ6EpfDIl_7reqwest10async_impl7request14RequestBuilderNtB3_17RequestBuilderExt15with_request_idpEB3_
FN:104,_RINvXCs5XkJfse60P9_17api_bones_reqwestNtNtNtCs8BwZ6EpfDIl_7reqwest10async_impl7request14RequestBuilderNtB3_17RequestBuilderExt17with_bearer_tokenpEB3_
FN:100,_RINvXCs5XkJfse60P9_17api_bones_reqwestNtNtNtCs8BwZ6EpfDIl_7reqwest10async_impl7request14RequestBuilderNtB3_17RequestBuilderExt20with_idempotency_keypEB3_
FN:227,_RINvXs_Cs5XkJfse60P9_17api_bones_reqwestNtNtNtCs8BwZ6EpfDIl_7reqwest10async_impl8response8ResponseNtB5_11ResponseExt20problem_json_or_jsonpEB5_
FN:227,_RNCINvXs_Cs5XkJfse60P9_17api_bones_reqwestNtNtNtCs8BwZ6EpfDIl_7reqwest10async_impl8response8ResponseNtB7_11ResponseExt20problem_json_or_jsonpE0B7_
FN:233,_RNCNCINvXs_Cs5XkJfse60P9_17api_bones_reqwestNtNtNtCs8BwZ6EpfDIl_7reqwest10async_impl8response8ResponseNtB9_11ResponseExt20problem_json_or_jsonpE00B9_
FN:240,_RNCNCINvXs_Cs5XkJfse60P9_17api_bones_reqwestNtNtNtCs8BwZ6EpfDIl_7reqwest10async_impl8response8ResponseNtB9_11ResponseExt20problem_json_or_jsonpE0s0_0B9_
FN:243,_RNCNCINvXs_Cs5XkJfse60P9_17api_bones_reqwestNtNtNtCs8BwZ6EpfDIl_7reqwest10async_impl8response8ResponseNtB9_11ResponseExt20problem_json_or_jsonpE0s1_0B9_
FN:249,_RNCNCINvXs_Cs5XkJfse60P9_17api_bones_reqwestNtNtNtCs8BwZ6EpfDIl_7reqwest10async_impl8response8ResponseNtB9_11ResponseExt20problem_json_or_jsonpE0s2_0B9_
FN:262,_RNCNCINvXs_Cs5XkJfse60P9_17api_bones_reqwestNtNtNtCs8BwZ6EpfDIl_7reqwest10async_impl8response8ResponseNtB9_11ResponseExt20problem_json_or_jsonpE0s3_0B9_
FN:234,_RNCNCINvXs_Cs5XkJfse60P9_17api_bones_reqwestNtNtNtCs8BwZ6EpfDIl_7reqwest10async_impl8response8ResponseNtB9_11ResponseExt20problem_json_or_jsonpE0s_0B9_
FN:316,_RNvCs5XkJfse60P9_17api_bones_reqwest13from_response
FN:270,_RNvCs5XkJfse60P9_17api_bones_reqwest15parse_link_next
FN:285,_RNvCs5XkJfse60P9_17api_bones_reqwest23map_status_to_api_error
FN:212,_RNvXs_Cs5XkJfse60P9_17api_bones_reqwestNtNtNtCs8BwZ6EpfDIl_7reqwest10async_impl8response8ResponseNtB4_11ResponseExt13next_page_url
FN:193,_RNvXs_Cs5XkJfse60P9_17api_bones_reqwestNtNtNtCs8BwZ6EpfDIl_7reqwest10async_impl8response8ResponseNtB4_11ResponseExt15rate_limit_info
FN:324,_RNCNCNvCs5XkJfse60P9_17api_bones_reqwest13from_response00B5_
FN:331,_RNCNCNvCs5XkJfse60P9_17api_bones_reqwest13from_response0s0_0B5_
FN:357,_RNCNCNvCs5XkJfse60P9_17api_bones_reqwest13from_response0s1_0B5_
FN:325,_RNCNCNvCs5XkJfse60P9_17api_bones_reqwest13from_response0s_0B5_
FN:197,_RNCNCNvXs_Cs5XkJfse60P9_17api_bones_reqwestNtNtNtCs8BwZ6EpfDIl_7reqwest10async_impl8response8ResponseNtB8_11ResponseExt15rate_limit_info00B8_
FN:198,_RNCNCNvXs_Cs5XkJfse60P9_17api_bones_reqwestNtNtNtCs8BwZ6EpfDIl_7reqwest10async_impl8response8ResponseNtB8_11ResponseExt15rate_limit_info0s_0B8_
FN:316,_RNCNvCs5XkJfse60P9_17api_bones_reqwest13from_response0B3_
FN:275,_RNCNvCs5XkJfse60P9_17api_bones_reqwest15parse_link_next0B3_
FN:277,_RNCNvCs5XkJfse60P9_17api_bones_reqwest15parse_link_nexts_0B3_
FN:194,_RNCNvXs_Cs5XkJfse60P9_17api_bones_reqwestNtNtNtCs8BwZ6EpfDIl_7reqwest10async_impl8response8ResponseNtB6_11ResponseExt15rate_limit_info0B6_
FNDA:4,_RNvXs_Cs7Iqq34TXXev_17api_bones_reqwestNtNtNtCs8BwZ6EpfDIl_7reqwest10async_impl8response8ResponseNtB4_11ResponseExt13next_page_url
FNDA:3,_RNvXs_Cs7Iqq34TXXev_17api_bones_reqwestNtNtNtCs8BwZ6EpfDIl_7reqwest10async_impl8response8ResponseNtB4_11ResponseExt15rate_limit_info
FNDA:5,_RINvXs_Cs7Iqq34TXXev_17api_bones_reqwestNtNtNtCs8BwZ6EpfDIl_7reqwest10async_impl8response8ResponseNtB5_11ResponseExt20problem_json_or_jsonNtNtCsdC8qrlXHNsA_10serde_json5value5ValueEB5_
FNDA:1,_RNCNCNvNtCs7Iqq34TXXev_17api_bones_reqwest5testss_45next_page_url_non_utf8_link_header_is_skipped00B7_
FNDA:1,_RNCNCNvNtCs7Iqq34TXXev_17api_bones_reqwest5testss_58from_response_text_read_error_falls_back_to_upstream_error00B7_
FNDA:1,_RNCNvNtCs7Iqq34TXXev_17api_bones_reqwest5testss_20next_page_url_absent0B5_
FNDA:1,_RNCNvNtCs7Iqq34TXXev_17api_bones_reqwest5testss_21next_page_url_present0B5_
FNDA:1,_RNCNvNtCs7Iqq34TXXev_17api_bones_reqwest5testss_23rate_limit_info_present0B5_
FNDA:1,_RNCNvNtCs7Iqq34TXXev_17api_bones_reqwest5testss_28problem_json_or_json_success0B5_
FNDA:1,_RNCNvNtCs7Iqq34TXXev_17api_bones_reqwest5testss_31request_builder_with_request_id0B5_
FNDA:1,_RNCNvNtCs7Iqq34TXXev_17api_bones_reqwest5testss_33from_response_parses_problem_json0B5_
FNDA:1,_RNCNvNtCs7Iqq34TXXev_17api_bones_reqwest5testss_33from_response_plain_text_fallback0B5_
FNDA:1,_RNCNvNtCs7Iqq34TXXev_17api_bones_reqwest5testss_33next_page_url_with_only_prev_link0B5_
FNDA:1,_RNCNvNtCs7Iqq34TXXev_17api_bones_reqwest5testss_33request_builder_with_bearer_token0B5_
FNDA:1,_RNCNvNtCs7Iqq34TXXev_17api_bones_reqwest5testss_35rate_limit_info_without_retry_after0B5_
FNDA:1,_RNCNvNtCs7Iqq34TXXev_17api_bones_reqwest5testss_36from_response_extracts_uuid_instance0B5_
FNDA:1,_RNCNvNtCs7Iqq34TXXev_17api_bones_reqwest5testss_36request_builder_with_idempotency_key0B5_
FNDA:1,_RNCNvNtCs7Iqq34TXXev_17api_bones_reqwest5testss_37problem_json_or_json_problem_response0B5_
FNDA:1,_RNCNvNtCs7Iqq34TXXev_17api_bones_reqwest5testss_44rate_limit_info_missing_headers_returns_none0B5_
FNDA:1,_RNCNvNtCs7Iqq34TXXev_17api_bones_reqwest5testss_45next_page_url_non_utf8_link_header_is_skipped0B5_
FNDA:1,_RNCNvNtCs7Iqq34TXXev_17api_bones_reqwest5testss_46problem_json_or_json_success_invalid_json_body0B5_
FNDA:1,_RNCNvNtCs7Iqq34TXXev_17api_bones_reqwest5testss_47from_response_problem_json_parse_error_fallback0B5_
FNDA:1,_RNCNvNtCs7Iqq34TXXev_17api_bones_reqwest5testss_47problem_json_or_json_non_problem_error_response0B5_
FNDA:1,_RNCNvNtCs7Iqq34TXXev_17api_bones_reqwest5testss_55problem_json_or_json_problem_response_invalid_json_body0B5_
FNDA:1,_RNCNvNtCs7Iqq34TXXev_17api_bones_reqwest5testss_56from_response_unknown_type_uri_falls_back_to_status_code0B5_
FNDA:1,_RNCNvNtCs7Iqq34TXXev_17api_bones_reqwest5testss_58from_response_text_read_error_falls_back_to_upstream_error0B5_
FNDA:5,_RNCINvXs_Cs7Iqq34TXXev_17api_bones_reqwestNtNtNtCs8BwZ6EpfDIl_7reqwest10async_impl8response8ResponseNtB7_11ResponseExt20problem_json_or_jsonNtNtCsdC8qrlXHNsA_10serde_json5value5ValueE0B7_
FNDA:3,_RNCNCINvXs_Cs7Iqq34TXXev_17api_bones_reqwestNtNtNtCs8BwZ6EpfDIl_7reqwest10async_impl8response8ResponseNtB9_11ResponseExt20problem_json_or_jsonNtNtCsdC8qrlXHNsA_10serde_json5value5ValueE00B9_
FNDA:1,_RNCNCINvXs_Cs7Iqq34TXXev_17api_bones_reqwestNtNtNtCs8BwZ6EpfDIl_7reqwest10async_impl8response8ResponseNtB9_11ResponseExt20problem_json_or_jsonNtNtCsdC8qrlXHNsA_10serde_json5value5ValueE0s0_0B9_
FNDA:1,_RNCNCINvXs_Cs7Iqq34TXXev_17api_bones_reqwestNtNtNtCs8BwZ6EpfDIl_7reqwest10async_impl8response8ResponseNtB9_11ResponseExt20problem_json_or_jsonNtNtCsdC8qrlXHNsA_10serde_json5value5ValueE0s1_0B9_
FNDA:1,_RNCNCINvXs_Cs7Iqq34TXXev_17api_bones_reqwestNtNtNtCs8BwZ6EpfDIl_7reqwest10async_impl8response8ResponseNtB9_11ResponseExt20problem_json_or_jsonNtNtCsdC8qrlXHNsA_10serde_json5value5ValueE0s2_0B9_
FNDA:1,_RNCNCINvXs_Cs7Iqq34TXXev_17api_bones_reqwestNtNtNtCs8BwZ6EpfDIl_7reqwest10async_impl8response8ResponseNtB9_11ResponseExt20problem_json_or_jsonNtNtCsdC8qrlXHNsA_10serde_json5value5ValueE0s3_0B9_
FNDA:3,_RNCNCINvXs_Cs7Iqq34TXXev_17api_bones_reqwestNtNtNtCs8BwZ6EpfDIl_7reqwest10async_impl8response8ResponseNtB9_11ResponseExt20problem_json_or_jsonNtNtCsdC8qrlXHNsA_10serde_json5value5ValueE0s_0B9_
FNDA:5,_RNCNCNvCs7Iqq34TXXev_17api_bones_reqwest13from_response00B5_
FNDA:1,_RNCNCNvCs7Iqq34TXXev_17api_bones_reqwest13from_response0s0_0B5_
FNDA:1,_RNCNCNvCs7Iqq34TXXev_17api_bones_reqwest13from_response0s1_0B5_
FNDA:5,_RNCNCNvCs7Iqq34TXXev_17api_bones_reqwest13from_response0s_0B5_
FNDA:7,_RNCNCNvXs_Cs7Iqq34TXXev_17api_bones_reqwestNtNtNtCs8BwZ6EpfDIl_7reqwest10async_impl8response8ResponseNtB8_11ResponseExt15rate_limit_info00B8_
FNDA:7,_RNCNCNvXs_Cs7Iqq34TXXev_17api_bones_reqwestNtNtNtCs8BwZ6EpfDIl_7reqwest10async_impl8response8ResponseNtB8_11ResponseExt15rate_limit_info0s_0B8_
FNDA:6,_RNCNvCs7Iqq34TXXev_17api_bones_reqwest13from_response0B3_
FNDA:6,_RNCNvCs7Iqq34TXXev_17api_bones_reqwest15parse_link_next0B3_
FNDA:5,_RNCNvCs7Iqq34TXXev_17api_bones_reqwest15parse_link_nexts_0B3_
FNDA:9,_RNCNvXs_Cs7Iqq34TXXev_17api_bones_reqwestNtNtNtCs8BwZ6EpfDIl_7reqwest10async_impl8response8ResponseNtB6_11ResponseExt15rate_limit_info0B6_
FNDA:6,_RNvCs7Iqq34TXXev_17api_bones_reqwest13from_response
FNDA:7,_RNvCs7Iqq34TXXev_17api_bones_reqwest15parse_link_next
FNDA:18,_RNvCs7Iqq34TXXev_17api_bones_reqwest23map_status_to_api_error
FNDA:1,_RNvNtCs7Iqq34TXXev_17api_bones_reqwest5testss_14map_status_400
FNDA:1,_RNvNtCs7Iqq34TXXev_17api_bones_reqwest5testss_14map_status_401
FNDA:1,_RNvNtCs7Iqq34TXXev_17api_bones_reqwest5testss_14map_status_403
FNDA:1,_RNvNtCs7Iqq34TXXev_17api_bones_reqwest5testss_14map_status_404
FNDA:1,_RNvNtCs7Iqq34TXXev_17api_bones_reqwest5testss_14map_status_409
FNDA:1,_RNvNtCs7Iqq34TXXev_17api_bones_reqwest5testss_14map_status_422
FNDA:1,_RNvNtCs7Iqq34TXXev_17api_bones_reqwest5testss_14map_status_429
FNDA:1,_RNvNtCs7Iqq34TXXev_17api_bones_reqwest5testss_14map_status_500
FNDA:1,_RNvNtCs7Iqq34TXXev_17api_bones_reqwest5testss_14map_status_502
FNDA:1,_RNvNtCs7Iqq34TXXev_17api_bones_reqwest5testss_14map_status_503
FNDA:1,_RNvNtCs7Iqq34TXXev_17api_bones_reqwest5testss_14map_status_504
FNDA:1,_RNvNtCs7Iqq34TXXev_17api_bones_reqwest5testss_20next_page_url_absent
FNDA:1,_RNvNtCs7Iqq34TXXev_17api_bones_reqwest5testss_21next_page_url_present
FNDA:1,_RNvNtCs7Iqq34TXXev_17api_bones_reqwest5testss_21parse_link_next_basic
FNDA:1,_RNvNtCs7Iqq34TXXev_17api_bones_reqwest5testss_22map_status_unknown_5xx
FNDA:1,_RNvNtCs7Iqq34TXXev_17api_bones_reqwest5testss_23rate_limit_info_present
FNDA:1,_RNvNtCs7Iqq34TXXev_17api_bones_reqwest5testss_24parse_link_next_no_match
FNDA:1,_RNvNtCs7Iqq34TXXev_17api_bones_reqwest5testss_28parse_link_next_unquoted_rel
FNDA:1,_RNvNtCs7Iqq34TXXev_17api_bones_reqwest5testss_28problem_json_or_json_success
FNDA:1,_RNvNtCs7Iqq34TXXev_17api_bones_reqwest5testss_31request_builder_with_request_id
FNDA:1,_RNvNtCs7Iqq34TXXev_17api_bones_reqwest5testss_33from_response_parses_problem_json
FNDA:1,_RNvNtCs7Iqq34TXXev_17api_bones_reqwest5testss_33from_response_plain_text_fallback
FNDA:1,_RNvNtCs7Iqq34TXXev_17api_bones_reqwest5testss_33next_page_url_with_only_prev_link
FNDA:1,_RNvNtCs7Iqq34TXXev_17api_bones_reqwest5testss_33request_builder_with_bearer_token
FNDA:1,_RNvNtCs7Iqq34TXXev_17api_bones_reqwest5testss_35rate_limit_info_without_retry_after
FNDA:1,_RNvNtCs7Iqq34TXXev_17api_bones_reqwest5testss_36from_response_extracts_uuid_instance
FNDA:1,_RNvNtCs7Iqq34TXXev_17api_bones_reqwest5testss_36request_builder_with_idempotency_key
FNDA:1,_RNvNtCs7Iqq34TXXev_17api_bones_reqwest5testss_37problem_json_or_json_problem_response
FNDA:1,_RNvNtCs7Iqq34TXXev_17api_bones_reqwest5testss_38map_status_418_defaults_to_bad_request
FNDA:1,_RNvNtCs7Iqq34TXXev_17api_bones_reqwest5testss_40parse_link_next_empty_entry_returns_none
FNDA:1,_RNvNtCs7Iqq34TXXev_17api_bones_reqwest5testss_44rate_limit_info_missing_headers_returns_none
FNDA:1,_RNvNtCs7Iqq34TXXev_17api_bones_reqwest5testss_45next_page_url_non_utf8_link_header_is_skipped
FNDA:1,_RNvNtCs7Iqq34TXXev_17api_bones_reqwest5testss_46problem_json_or_json_success_invalid_json_body
FNDA:1,_RNvNtCs7Iqq34TXXev_17api_bones_reqwest5testss_47from_response_problem_json_parse_error_fallback
FNDA:1,_RNvNtCs7Iqq34TXXev_17api_bones_reqwest5testss_47problem_json_or_json_non_problem_error_response
FNDA:1,_RNvNtCs7Iqq34TXXev_17api_bones_reqwest5testss_55problem_json_or_json_problem_response_invalid_json_body
FNDA:1,_RNvNtCs7Iqq34TXXev_17api_bones_reqwest5testss_56from_response_unknown_type_uri_falls_back_to_status_code
FNDA:1,_RNvNtCs7Iqq34TXXev_17api_bones_reqwest5testss_58from_response_text_read_error_falls_back_to_upstream_error
FNDA:1,_RNvNtCs7Iqq34TXXev_17api_bones_reqwest5testss_59parse_link_next_malformed_url_no_closing_angle_returns_none
FNDA:1,_RINvXCs7Iqq34TXXev_17api_bones_reqwestNtNtNtCs8BwZ6EpfDIl_7reqwest10async_impl7request14RequestBuilderNtB3_17RequestBuilderExt15with_request_idReEB3_
FNDA:1,_RINvXCs7Iqq34TXXev_17api_bones_reqwestNtNtNtCs8BwZ6EpfDIl_7reqwest10async_impl7request14RequestBuilderNtB3_17RequestBuilderExt17with_bearer_tokenReEB3_
FNDA:1,_RINvXCs7Iqq34TXXev_17api_bones_reqwestNtNtNtCs8BwZ6EpfDIl_7reqwest10async_impl7request14RequestBuilderNtB3_17RequestBuilderExt20with_idempotency_keyReEB3_
FNDA:0,_RINvXs_Cs5XkJfse60P9_17api_bones_reqwestNtNtNtCs8BwZ6EpfDIl_7reqwest10async_impl8response8ResponseNtB5_11ResponseExt20problem_json_or_jsonNtNtCsdC8qrlXHNsA_10serde_json5value5ValueECskpCHb9aT1fw_17client_extensions
FNDA:0,_RNCINvXs_Cs5XkJfse60P9_17api_bones_reqwestNtNtNtCs8BwZ6EpfDIl_7reqwest10async_impl8response8ResponseNtB7_11ResponseExt20problem_json_or_jsonNtNtCsdC8qrlXHNsA_10serde_json5value5ValueE0CskpCHb9aT1fw_17client_extensions
FNDA:0,_RNCNCINvXs_Cs5XkJfse60P9_17api_bones_reqwestNtNtNtCs8BwZ6EpfDIl_7reqwest10async_impl8response8ResponseNtB9_11ResponseExt20problem_json_or_jsonNtNtCsdC8qrlXHNsA_10serde_json5value5ValueE00CskpCHb9aT1fw_17client_extensions
FNDA:0,_RNCNCINvXs_Cs5XkJfse60P9_17api_bones_reqwestNtNtNtCs8BwZ6EpfDIl_7reqwest10async_impl8response8ResponseNtB9_11ResponseExt20problem_json_or_jsonNtNtCsdC8qrlXHNsA_10serde_json5value5ValueE0s0_0CskpCHb9aT1fw_17client_extensions
FNDA:0,_RNCNCINvXs_Cs5XkJfse60P9_17api_bones_reqwestNtNtNtCs8BwZ6EpfDIl_7reqwest10async_impl8response8ResponseNtB9_11ResponseExt20problem_json_or_jsonNtNtCsdC8qrlXHNsA_10serde_json5value5ValueE0s1_0CskpCHb9aT1fw_17client_extensions
FNDA:0,_RNCNCINvXs_Cs5XkJfse60P9_17api_bones_reqwestNtNtNtCs8BwZ6EpfDIl_7reqwest10async_impl8response8ResponseNtB9_11ResponseExt20problem_json_or_jsonNtNtCsdC8qrlXHNsA_10serde_json5value5ValueE0s2_0CskpCHb9aT1fw_17client_extensions
FNDA:0,_RNCNCINvXs_Cs5XkJfse60P9_17api_bones_reqwestNtNtNtCs8BwZ6EpfDIl_7reqwest10async_impl8response8ResponseNtB9_11ResponseExt20problem_json_or_jsonNtNtCsdC8qrlXHNsA_10serde_json5value5ValueE0s3_0CskpCHb9aT1fw_17client_extensions
FNDA:0,_RNCNCINvXs_Cs5XkJfse60P9_17api_bones_reqwestNtNtNtCs8BwZ6EpfDIl_7reqwest10async_impl8response8ResponseNtB9_11ResponseExt20problem_json_or_jsonNtNtCsdC8qrlXHNsA_10serde_json5value5ValueE0s_0CskpCHb9aT1fw_17client_extensions
FNDA:0,_RINvXCs5XkJfse60P9_17api_bones_reqwestNtNtNtCs8BwZ6EpfDIl_7reqwest10async_impl7request14RequestBuilderNtB3_17RequestBuilderExt15with_request_idReECskpCHb9aT1fw_17client_extensions
FNDA:0,_RINvXCs5XkJfse60P9_17api_bones_reqwestNtNtNtCs8BwZ6EpfDIl_7reqwest10async_impl7request14RequestBuilderNtB3_17RequestBuilderExt17with_bearer_tokenReECskpCHb9aT1fw_17client_extensions
FNDA:0,_RINvXCs5XkJfse60P9_17api_bones_reqwestNtNtNtCs8BwZ6EpfDIl_7reqwest10async_impl7request14RequestBuilderNtB3_17RequestBuilderExt20with_idempotency_keyReECskpCHb9aT1fw_17client_extensions
FNDA:0,_RINvXCs5XkJfse60P9_17api_bones_reqwestNtNtNtCs8BwZ6EpfDIl_7reqwest10async_impl7request14RequestBuilderNtB3_17RequestBuilderExt15with_request_idpEB3_
FNDA:0,_RINvXCs5XkJfse60P9_17api_bones_reqwestNtNtNtCs8BwZ6EpfDIl_7reqwest10async_impl7request14RequestBuilderNtB3_17RequestBuilderExt17with_bearer_tokenpEB3_
FNDA:0,_RINvXCs5XkJfse60P9_17api_bones_reqwestNtNtNtCs8BwZ6EpfDIl_7reqwest10async_impl7request14RequestBuilderNtB3_17RequestBuilderExt20with_idempotency_keypEB3_
FNDA:0,_RINvXs_Cs5XkJfse60P9_17api_bones_reqwestNtNtNtCs8BwZ6EpfDIl_7reqwest10async_impl8response8ResponseNtB5_11ResponseExt20problem_json_or_jsonpEB5_
FNDA:0,_RNCINvXs_Cs5XkJfse60P9_17api_bones_reqwestNtNtNtCs8BwZ6EpfDIl_7reqwest10async_impl8response8ResponseNtB7_11ResponseExt20problem_json_or_jsonpE0B7_
FNDA:0,_RNCNCINvXs_Cs5XkJfse60P9_17api_bones_reqwestNtNtNtCs8BwZ6EpfDIl_7reqwest10async_impl8response8ResponseNtB9_11ResponseExt20problem_json_or_jsonpE00B9_
FNDA:0,_RNCNCINvXs_Cs5XkJfse60P9_17api_bones_reqwestNtNtNtCs8BwZ6EpfDIl_7reqwest10async_impl8response8ResponseNtB9_11ResponseExt20problem_json_or_jsonpE0s0_0B9_
FNDA:0,_RNCNCINvXs_Cs5XkJfse60P9_17api_bones_reqwestNtNtNtCs8BwZ6EpfDIl_7reqwest10async_impl8response8ResponseNtB9_11ResponseExt20problem_json_or_jsonpE0s1_0B9_
FNDA:0,_RNCNCINvXs_Cs5XkJfse60P9_17api_bones_reqwestNtNtNtCs8BwZ6EpfDIl_7reqwest10async_impl8response8ResponseNtB9_11ResponseExt20problem_json_or_jsonpE0s2_0B9_
FNDA:0,_RNCNCINvXs_Cs5XkJfse60P9_17api_bones_reqwestNtNtNtCs8BwZ6EpfDIl_7reqwest10async_impl8response8ResponseNtB9_11ResponseExt20problem_json_or_jsonpE0s3_0B9_
FNDA:0,_RNCNCINvXs_Cs5XkJfse60P9_17api_bones_reqwestNtNtNtCs8BwZ6EpfDIl_7reqwest10async_impl8response8ResponseNtB9_11ResponseExt20problem_json_or_jsonpE0s_0B9_
FNDA:0,_RNvCs5XkJfse60P9_17api_bones_reqwest13from_response
FNDA:0,_RNvCs5XkJfse60P9_17api_bones_reqwest15parse_link_next
FNDA:0,_RNvCs5XkJfse60P9_17api_bones_reqwest23map_status_to_api_error
FNDA:0,_RNvXs_Cs5XkJfse60P9_17api_bones_reqwestNtNtNtCs8BwZ6EpfDIl_7reqwest10async_impl8response8ResponseNtB4_11ResponseExt13next_page_url
FNDA:0,_RNvXs_Cs5XkJfse60P9_17api_bones_reqwestNtNtNtCs8BwZ6EpfDIl_7reqwest10async_impl8response8ResponseNtB4_11ResponseExt15rate_limit_info
FNDA:0,_RNCNCNvCs5XkJfse60P9_17api_bones_reqwest13from_response00B5_
FNDA:0,_RNCNCNvCs5XkJfse60P9_17api_bones_reqwest13from_response0s0_0B5_
FNDA:0,_RNCNCNvCs5XkJfse60P9_17api_bones_reqwest13from_response0s1_0B5_
FNDA:0,_RNCNCNvCs5XkJfse60P9_17api_bones_reqwest13from_response0s_0B5_
FNDA:0,_RNCNCNvXs_Cs5XkJfse60P9_17api_bones_reqwestNtNtNtCs8BwZ6EpfDIl_7reqwest10async_impl8response8ResponseNtB8_11ResponseExt15rate_limit_info00B8_
FNDA:0,_RNCNCNvXs_Cs5XkJfse60P9_17api_bones_reqwestNtNtNtCs8BwZ6EpfDIl_7reqwest10async_impl8response8ResponseNtB8_11ResponseExt15rate_limit_info0s_0B8_
FNDA:0,_RNCNvCs5XkJfse60P9_17api_bones_reqwest13from_response0B3_
FNDA:0,_RNCNvCs5XkJfse60P9_17api_bones_reqwest15parse_link_next0B3_
FNDA:0,_RNCNvCs5XkJfse60P9_17api_bones_reqwest15parse_link_nexts_0B3_
FNDA:0,_RNCNvXs_Cs5XkJfse60P9_17api_bones_reqwestNtNtNtCs8BwZ6EpfDIl_7reqwest10async_impl8response8ResponseNtB6_11ResponseExt15rate_limit_info0B6_
FNF:88
FNH:88
DA:96,1
DA:97,1
DA:98,1
DA:100,1
DA:101,1
DA:102,1
DA:104,1
DA:105,1
DA:106,1
DA:193,3
DA:194,9
DA:195,9
DA:196,9
DA:197,9
DA:198,9
DA:199,9
DA:200,3
DA:201,2
DA:202,2
DA:203,2
DA:204,2
DA:205,2
DA:206,2
DA:207,2
DA:208,2
DA:209,2
DA:210,3
DA:212,4
DA:213,4
DA:214,3
DA:215,1
DA:217,2
DA:218,2
DA:219,2
DA:220,1
DA:221,1
DA:224,3
DA:225,4
DA:227,5
DA:228,5
DA:229,5
DA:230,3
DA:231,3
DA:232,3
DA:233,3
DA:234,3
DA:236,3
DA:237,2
DA:238,2
DA:239,2
DA:240,2
DA:241,1
DA:242,1
DA:243,1
DA:244,1
DA:245,1
DA:246,1
DA:247,1
DA:248,1
DA:249,1
DA:250,1
DA:251,1
DA:252,1
DA:254,1
DA:255,1
DA:256,1
DA:257,1
DA:258,2
DA:260,2
DA:261,2
DA:262,2
DA:263,5
DA:270,7
DA:271,7
DA:272,7
DA:273,7
DA:274,7
DA:275,7
DA:277,5
DA:278,5
DA:279,5
DA:280,5
DA:282,5
DA:283,7
DA:285,18
DA:287,18
DA:288,2
DA:289,1
DA:290,1
DA:291,2
DA:292,1
DA:293,2
DA:294,1
DA:295,2
DA:296,1
DA:297,2
DA:298,1
DA:299,2
DA:300,1
DA:302,18
DA:303,18
DA:316,6
DA:319,6
DA:321,6
DA:322,6
DA:323,6
DA:324,6
DA:325,6
DA:327,6
DA:328,4
DA:329,3
DA:330,3
DA:331,3
DA:332,3
DA:333,3
DA:334,3
DA:335,3
DA:337,1
DA:338,1
DA:339,1
DA:340,1
DA:341,1
DA:344,2
DA:345,3
DA:346,3
DA:348,1
DA:349,1
DA:354,2
DA:355,2
DA:356,2
DA:357,2
DA:358,2
DA:360,6
DA:372,1
DA:373,1
DA:374,1
DA:375,1
DA:378,1
DA:379,1
DA:380,1
DA:381,1
DA:384,1
DA:385,1
DA:386,1
DA:387,1
DA:390,1
DA:391,1
DA:392,1
DA:393,1
DA:396,1
DA:397,1
DA:398,1
DA:399,1
DA:402,1
DA:403,1
DA:404,1
DA:405,1
DA:408,1
DA:409,1
DA:410,1
DA:411,1
DA:414,1
DA:415,1
DA:416,1
DA:417,1
DA:420,1
DA:421,1
DA:422,1
DA:423,1
DA:426,1
DA:427,1
DA:428,1
DA:429,1
DA:430,1
DA:431,1
DA:432,1
DA:433,1
DA:434,1
DA:436,1
DA:437,1
DA:438,1
DA:439,1
DA:440,1
DA:441,1
DA:442,1
DA:443,1
DA:444,1
DA:445,1
DA:448,1
DA:449,1
DA:450,1
DA:451,1
DA:452,1
DA:453,1
DA:454,1
DA:455,1
DA:456,1
DA:458,1
DA:459,1
DA:460,1
DA:461,1
DA:462,1
DA:463,1
DA:464,1
DA:465,1
DA:466,1
DA:467,1
DA:470,1
DA:471,1
DA:472,1
DA:473,1
DA:474,1
DA:475,1
DA:476,1
DA:477,1
DA:478,1
DA:480,1
DA:481,1
DA:482,1
DA:483,1
DA:484,1
DA:485,1
DA:486,1
DA:487,1
DA:488,1
DA:489,1
DA:492,1
DA:493,1
DA:494,1
DA:495,1
DA:496,1
DA:497,1
DA:498,1
DA:499,1
DA:500,1
DA:501,1
DA:502,1
DA:503,1
DA:505,1
DA:506,1
DA:507,1
DA:508,1
DA:509,1
DA:510,1
DA:511,1
DA:514,1
DA:515,1
DA:516,1
DA:517,1
DA:518,1
DA:519,1
DA:520,1
DA:521,1
DA:523,1
DA:524,1
DA:525,1
DA:528,1
DA:529,1
DA:530,1
DA:531,1
DA:532,1
DA:533,1
DA:534,1
DA:535,1
DA:536,1
DA:537,1
DA:538,1
DA:540,1
DA:541,1
DA:542,1
DA:543,1
DA:546,1
DA:547,1
DA:548,1
DA:549,1
DA:550,1
DA:551,1
DA:552,1
DA:553,1
DA:554,1
DA:555,1
DA:556,1
DA:557,1
DA:559,1
DA:560,1
DA:561,1
DA:562,1
DA:563,1
DA:564,1
DA:567,1
DA:568,1
DA:569,1
DA:570,1
DA:571,1
DA:572,1
DA:573,1
DA:574,1
DA:576,1
DA:577,1
DA:578,1
DA:581,1
DA:582,1
DA:583,1
DA:584,1
DA:585,1
DA:586,1
DA:587,1
DA:588,1
DA:589,1
DA:591,1
DA:592,1
DA:593,1
DA:594,1
DA:597,1
DA:598,1
DA:599,1
DA:600,1
DA:601,1
DA:602,1
DA:603,1
DA:604,1
DA:605,1
DA:606,1
DA:607,1
DA:609,1
DA:610,1
DA:611,1
DA:612,1
DA:613,1
DA:614,1
DA:615,1
DA:618,1
DA:619,1
DA:620,1
DA:621,1
DA:622,1
DA:623,1
DA:624,1
DA:625,1
DA:626,1
DA:628,1
DA:629,1
DA:630,1
DA:631,1
DA:632,1
DA:633,1
DA:634,1
DA:637,1
DA:638,1
DA:639,1
DA:640,1
DA:643,1
DA:647,1
DA:648,1
DA:650,1
DA:651,1
DA:652,1
DA:653,1
DA:654,1
DA:655,1
DA:656,1
DA:658,1
DA:659,1
DA:660,1
DA:661,1
DA:662,1
DA:665,1
DA:666,1
DA:667,1
DA:668,1
DA:669,1
DA:670,1
DA:671,1
DA:672,1
DA:673,1
DA:674,1
DA:675,1
DA:676,1
DA:678,1
DA:679,1
DA:680,1
DA:683,1
DA:684,1
DA:685,1
DA:688,1
DA:689,1
DA:690,1
DA:691,1
DA:694,1
DA:695,1
DA:696,1
DA:697,1
DA:698,1
DA:699,1
DA:700,1
DA:701,1
DA:702,1
DA:704,1
DA:705,1
DA:706,1
DA:707,1
DA:708,1
DA:709,1
DA:710,1
DA:713,1
DA:714,1
DA:715,1
DA:716,1
DA:717,1
DA:718,1
DA:719,1
DA:720,1
DA:721,1
DA:723,1
DA:724,1
DA:725,1
DA:726,1
DA:727,1
DA:728,1
DA:729,1
DA:732,1
DA:733,1
DA:734,1
DA:735,1
DA:736,1
DA:738,1
DA:741,1
DA:742,1
DA:743,1
DA:744,1
DA:747,1
DA:748,1
DA:749,1
DA:750,1
DA:751,1
DA:753,1
DA:756,1
DA:757,1
DA:758,1
DA:759,1
DA:762,1
DA:763,1
DA:764,1
DA:765,1
DA:768,1
DA:769,1
DA:770,1
DA:771,1
DA:778,1
DA:779,1
DA:780,1
DA:781,1
DA:782,1
DA:783,1
DA:784,1
DA:785,1
DA:786,1
DA:787,1
DA:789,1
DA:790,1
DA:791,1
DA:792,1
DA:793,1
DA:796,1
DA:797,1
DA:798,1
DA:799,1
DA:800,1
DA:801,1
DA:802,1
DA:803,1
DA:804,1
DA:806,1
DA:807,1
DA:808,1
DA:809,1
DA:810,1
DA:813,1
DA:815,1
DA:816,1
DA:817,1
DA:818,1
DA:819,1
DA:820,1
DA:821,1
DA:822,1
DA:823,1
DA:825,1
DA:826,1
DA:827,1
DA:828,1
DA:829,1
DA:832,1
DA:833,1
DA:834,1
DA:835,1
DA:836,1
DA:837,1
DA:838,1
DA:839,1
DA:840,1
DA:842,1
DA:843,1
DA:844,1
DA:845,1
DA:846,1
DA:850,1
DA:851,1
DA:852,1
DA:855,1
DA:856,1
DA:857,1
DA:858,1
DA:859,1
DA:860,1
DA:861,1
DA:862,1
DA:864,1
DA:865,1
DA:866,1
DA:867,1
DA:870,1
DA:874,1
DA:875,1
DA:876,1
DA:878,1
DA:880,1
DA:881,1
DA:882,1
DA:883,1
DA:884,1
DA:885,1
DA:886,1
DA:888,1
DA:889,1
DA:890,1
DA:891,1
DA:892,1
BRF:0
BRH:0
LF:603
LH:602
end_of_record
SF:/Users/gsalingu/git/api-bones/.claude/worktrees/feat+211-nested-org-adr/api-bones-tower/src/lib.rs
FN:296,_RNCNCNCNCNvNtCs2jOaoKFfTIb_15api_bones_tower5testss_31request_id_layer_injects_header0000Bb_
FN:336,_RNCNCNCNvNtCs2jOaoKFfTIb_15api_bones_tower5testss_29problem_json_layer_maps_error000B9_
FN:416,_RNCNCNCNvNtCs2jOaoKFfTIb_15api_bones_tower5testss_30request_id_future_poll_pending000B9_
FN:380,_RNCNCNCNvNtCs2jOaoKFfTIb_15api_bones_tower5testss_31problem_json_service_poll_ready000B9_
FN:292,_RNCNCNCNvNtCs2jOaoKFfTIb_15api_bones_tower5testss_31request_id_layer_injects_header000B9_
FN:357,_RNCNCNCNvNtCs2jOaoKFfTIb_15api_bones_tower5testss_36problem_json_layer_passes_through_ok000B9_
FN:394,_RNCNCNCNvNtCs2jOaoKFfTIb_15api_bones_tower5testss_40request_id_future_propagates_inner_error000B9_
FN:312,_RNCNCNCNvNtCs2jOaoKFfTIb_15api_bones_tower5testss_42request_id_layer_preserves_existing_header000B9_
FN:338,_RNCNCNvNtCs2jOaoKFfTIb_15api_bones_tower5testss_29problem_json_layer_maps_error00B7_
FN:414,_RNCNCNvNtCs2jOaoKFfTIb_15api_bones_tower5testss_30request_id_future_poll_pending00B7_
FN:382,_RNCNCNvNtCs2jOaoKFfTIb_15api_bones_tower5testss_31problem_json_service_poll_ready00B7_
FN:301,_RNCNCNvNtCs2jOaoKFfTIb_15api_bones_tower5testss_31request_id_layer_injects_header00B7_
FN:364,_RNCNCNvNtCs2jOaoKFfTIb_15api_bones_tower5testss_36problem_json_layer_passes_through_ok00B7_
FN:396,_RNCNCNvNtCs2jOaoKFfTIb_15api_bones_tower5testss_40request_id_future_propagates_inner_error00B7_
FN:314,_RNCNCNvNtCs2jOaoKFfTIb_15api_bones_tower5testss_42request_id_layer_preserves_existing_header00B7_
FN:333,_RNCNvNtCs2jOaoKFfTIb_15api_bones_tower5testss_29problem_json_layer_maps_error0B5_
FN:405,_RNCNvNtCs2jOaoKFfTIb_15api_bones_tower5testss_30request_id_future_poll_pending0B5_
FN:377,_RNCNvNtCs2jOaoKFfTIb_15api_bones_tower5testss_31problem_json_service_poll_ready0B5_
FN:289,_RNCNvNtCs2jOaoKFfTIb_15api_bones_tower5testss_31request_id_layer_injects_header0B5_
FN:354,_RNCNvNtCs2jOaoKFfTIb_15api_bones_tower5testss_36problem_json_layer_passes_through_ok0B5_
FN:391,_RNCNvNtCs2jOaoKFfTIb_15api_bones_tower5testss_40request_id_future_propagates_inner_error0B5_
FN:309,_RNCNvNtCs2jOaoKFfTIb_15api_bones_tower5testss_42request_id_layer_preserves_existing_header0B5_
FN:333,_RNvNtCs2jOaoKFfTIb_15api_bones_tower5testss_29problem_json_layer_maps_error
FN:405,_RNvNtCs2jOaoKFfTIb_15api_bones_tower5testss_30request_id_future_poll_pending
FN:377,_RNvNtCs2jOaoKFfTIb_15api_bones_tower5testss_31problem_json_service_poll_ready
FN:289,_RNvNtCs2jOaoKFfTIb_15api_bones_tower5testss_31request_id_layer_injects_header
FN:354,_RNvNtCs2jOaoKFfTIb_15api_bones_tower5testss_36problem_json_layer_passes_through_ok
FN:372,_RNvNtCs2jOaoKFfTIb_15api_bones_tower5testss_39request_id_layer_default_is_same_as_new
FN:391,_RNvNtCs2jOaoKFfTIb_15api_bones_tower5testss_40request_id_future_propagates_inner_error
FN:309,_RNvNtCs2jOaoKFfTIb_15api_bones_tower5testss_42request_id_layer_preserves_existing_header
FN:249,_RNCNvXs5_Cs2jOaoKFfTIb_15api_bones_towerINtB7_18ProblemJsonServiceINtNtNtCsksMDDxcDbCX_5tower4util10service_fn9ServiceFnNCNCNvNtB7_5testss_29problem_json_layer_maps_error00EEINtCsk5fuVICVjdO_13tower_service7ServiceINtNtCsj901y1vRFmJ_4http7request7RequestuEE4call0B7_
FN:249,_RNCNvXs5_Cs2jOaoKFfTIb_15api_bones_towerINtB7_18ProblemJsonServiceINtNtNtCsksMDDxcDbCX_5tower4util10service_fn9ServiceFnNCNCNvNtB7_5testss_31problem_json_service_poll_ready00EEINtCsk5fuVICVjdO_13tower_service7ServiceINtNtCsj901y1vRFmJ_4http7request7RequestuEE4call0B7_
FN:249,_RNCNvXs5_Cs2jOaoKFfTIb_15api_bones_towerINtB7_18ProblemJsonServiceINtNtNtCsksMDDxcDbCX_5tower4util10service_fn9ServiceFnNCNCNvNtB7_5testss_36problem_json_layer_passes_through_ok00EEINtCsk5fuVICVjdO_13tower_service7ServiceINtNtCsj901y1vRFmJ_4http7request7RequestuEE4call0B7_
FN:94,_RNvXs0_Cs2jOaoKFfTIb_15api_bones_towerNtB5_14RequestIdLayerINtCsjJP8XdZJijT_11tower_layer5LayerINtNtNtCsksMDDxcDbCX_5tower4util10service_fn9ServiceFnNCNCNvNtB5_5testss_30request_id_future_poll_pending00EE5layerB5_
FN:94,_RNvXs0_Cs2jOaoKFfTIb_15api_bones_towerNtB5_14RequestIdLayerINtCsjJP8XdZJijT_11tower_layer5LayerINtNtNtCsksMDDxcDbCX_5tower4util10service_fn9ServiceFnNCNCNvNtB5_5testss_31request_id_layer_injects_header00EE5layerB5_
FN:94,_RNvXs0_Cs2jOaoKFfTIb_15api_bones_towerNtB5_14RequestIdLayerINtCsjJP8XdZJijT_11tower_layer5LayerINtNtNtCsksMDDxcDbCX_5tower4util10service_fn9ServiceFnNCNCNvNtB5_5testss_40request_id_future_propagates_inner_error00EE5layerB5_
FN:94,_RNvXs0_Cs2jOaoKFfTIb_15api_bones_towerNtB5_14RequestIdLayerINtCsjJP8XdZJijT_11tower_layer5LayerINtNtNtCsksMDDxcDbCX_5tower4util10service_fn9ServiceFnNCNCNvNtB5_5testss_42request_id_layer_preserves_existing_header00EE5layerB5_
FN:125,_RNvXs1_Cs2jOaoKFfTIb_15api_bones_towerINtB5_16RequestIdServiceINtNtNtCsksMDDxcDbCX_5tower4util10service_fn9ServiceFnNCNCNvNtB5_5testss_30request_id_future_poll_pending00EEINtCsk5fuVICVjdO_13tower_service7ServiceINtNtCsj901y1vRFmJ_4http7request7RequestuEE4callB5_
FN:121,_RNvXs1_Cs2jOaoKFfTIb_15api_bones_towerINtB5_16RequestIdServiceINtNtNtCsksMDDxcDbCX_5tower4util10service_fn9ServiceFnNCNCNvNtB5_5testss_31request_id_layer_injects_header00EEINtCsk5fuVICVjdO_13tower_service7ServiceINtNtCsj901y1vRFmJ_4http7request7RequestuEE10poll_readyB5_
FN:125,_RNvXs1_Cs2jOaoKFfTIb_15api_bones_towerINtB5_16RequestIdServiceINtNtNtCsksMDDxcDbCX_5tower4util10service_fn9ServiceFnNCNCNvNtB5_5testss_31request_id_layer_injects_header00EEINtCsk5fuVICVjdO_13tower_service7ServiceINtNtCsj901y1vRFmJ_4http7request7RequestuEE4callB5_
FN:121,_RNvXs1_Cs2jOaoKFfTIb_15api_bones_towerINtB5_16RequestIdServiceINtNtNtCsksMDDxcDbCX_5tower4util10service_fn9ServiceFnNCNCNvNtB5_5testss_40request_id_future_propagates_inner_error00EEINtCsk5fuVICVjdO_13tower_service7ServiceINtNtCsj901y1vRFmJ_4http7request7RequestuEE10poll_readyB5_
FN:125,_RNvXs1_Cs2jOaoKFfTIb_15api_bones_towerINtB5_16RequestIdServiceINtNtNtCsksMDDxcDbCX_5tower4util10service_fn9ServiceFnNCNCNvNtB5_5testss_40request_id_future_propagates_inner_error00EEINtCsk5fuVICVjdO_13tower_service7ServiceINtNtCsj901y1vRFmJ_4http7request7RequestuEE4callB5_
FN:121,_RNvXs1_Cs2jOaoKFfTIb_15api_bones_towerINtB5_16RequestIdServiceINtNtNtCsksMDDxcDbCX_5tower4util10service_fn9ServiceFnNCNCNvNtB5_5testss_42request_id_layer_preserves_existing_header00EEINtCsk5fuVICVjdO_13tower_service7ServiceINtNtCsj901y1vRFmJ_4http7request7RequestuEE10poll_readyB5_
FN:125,_RNvXs1_Cs2jOaoKFfTIb_15api_bones_towerINtB5_16RequestIdServiceINtNtNtCsksMDDxcDbCX_5tower4util10service_fn9ServiceFnNCNCNvNtB5_5testss_42request_id_layer_preserves_existing_header00EEINtCsk5fuVICVjdO_13tower_service7ServiceINtNtCsj901y1vRFmJ_4http7request7RequestuEE4callB5_
FN:162,_RNvXs2_Cs2jOaoKFfTIb_15api_bones_towerINtB5_15RequestIdFutureNCNCNCNvNtB5_5testss_30request_id_future_poll_pending000NtNtCsipk7xt2ATo7_5alloc6string6StringENtNtNtCsbUtogaBoXXO_4core6future6future6Future4pollB5_
FN:162,_RNvXs2_Cs2jOaoKFfTIb_15api_bones_towerINtB5_15RequestIdFutureNCNCNCNvNtB5_5testss_31request_id_layer_injects_header000NtNtCsipk7xt2ATo7_5alloc6string6StringENtNtNtCsbUtogaBoXXO_4core6future6future6Future4pollB5_
FN:162,_RNvXs2_Cs2jOaoKFfTIb_15api_bones_towerINtB5_15RequestIdFutureNCNCNCNvNtB5_5testss_40request_id_future_propagates_inner_error000NtNtCsipk7xt2ATo7_5alloc6string6StringENtNtNtCsbUtogaBoXXO_4core6future6future6Future4pollB5_
FN:162,_RNvXs2_Cs2jOaoKFfTIb_15api_bones_towerINtB5_15RequestIdFutureNCNCNCNvNtB5_5testss_42request_id_layer_preserves_existing_header000NtNtCsipk7xt2ATo7_5alloc6string6StringENtNtNtCsbUtogaBoXXO_4core6future6future6Future4pollB5_
FN:216,_RNvXs4_Cs2jOaoKFfTIb_15api_bones_towerNtB5_16ProblemJsonLayerINtCsjJP8XdZJijT_11tower_layer5LayerINtNtNtCsksMDDxcDbCX_5tower4util10service_fn9ServiceFnNCNCNvNtB5_5testss_29problem_json_layer_maps_error00EE5layerB5_
FN:216,_RNvXs4_Cs2jOaoKFfTIb_15api_bones_towerNtB5_16ProblemJsonLayerINtCsjJP8XdZJijT_11tower_layer5LayerINtNtNtCsksMDDxcDbCX_5tower4util10service_fn9ServiceFnNCNCNvNtB5_5testss_36problem_json_layer_passes_through_ok00EE5layerB5_
FN:239,_RNvXs5_Cs2jOaoKFfTIb_15api_bones_towerINtB5_18ProblemJsonServiceINtNtNtCsksMDDxcDbCX_5tower4util10service_fn9ServiceFnNCNCNvNtB5_5testss_29problem_json_layer_maps_error00EEINtCsk5fuVICVjdO_13tower_service7ServiceINtNtCsj901y1vRFmJ_4http7request7RequestuEE10poll_readyB5_
FN:247,_RNvXs5_Cs2jOaoKFfTIb_15api_bones_towerINtB5_18ProblemJsonServiceINtNtNtCsksMDDxcDbCX_5tower4util10service_fn9ServiceFnNCNCNvNtB5_5testss_29problem_json_layer_maps_error00EEINtCsk5fuVICVjdO_13tower_service7ServiceINtNtCsj901y1vRFmJ_4http7request7RequestuEE4callB5_
FN:239,_RNvXs5_Cs2jOaoKFfTIb_15api_bones_towerINtB5_18ProblemJsonServiceINtNtNtCsksMDDxcDbCX_5tower4util10service_fn9ServiceFnNCNCNvNtB5_5testss_31problem_json_service_poll_ready00EEINtCsk5fuVICVjdO_13tower_service7ServiceINtNtCsj901y1vRFmJ_4http7request7RequestuEE10poll_readyB5_
FN:247,_RNvXs5_Cs2jOaoKFfTIb_15api_bones_towerINtB5_18ProblemJsonServiceINtNtNtCsksMDDxcDbCX_5tower4util10service_fn9ServiceFnNCNCNvNtB5_5testss_31problem_json_service_poll_ready00EEINtCsk5fuVICVjdO_13tower_service7ServiceINtNtCsj901y1vRFmJ_4http7request7RequestuEE4callB5_
FN:239,_RNvXs5_Cs2jOaoKFfTIb_15api_bones_towerINtB5_18ProblemJsonServiceINtNtNtCsksMDDxcDbCX_5tower4util10service_fn9ServiceFnNCNCNvNtB5_5testss_36problem_json_layer_passes_through_ok00EEINtCsk5fuVICVjdO_13tower_service7ServiceINtNtCsj901y1vRFmJ_4http7request7RequestuEE10poll_readyB5_
FN:247,_RNvXs5_Cs2jOaoKFfTIb_15api_bones_towerINtB5_18ProblemJsonServiceINtNtNtCsksMDDxcDbCX_5tower4util10service_fn9ServiceFnNCNCNvNtB5_5testss_36problem_json_layer_passes_through_ok00EEINtCsk5fuVICVjdO_13tower_service7ServiceINtNtCsj901y1vRFmJ_4http7request7RequestuEE4callB5_
FN:262,_RNvCs2jOaoKFfTIb_15api_bones_tower21api_error_to_response
FN:78,_RNvMCs2jOaoKFfTIb_15api_bones_towerNtB2_14RequestIdLayer3new
FN:208,_RNvMs3_Cs2jOaoKFfTIb_15api_bones_towerNtB5_16ProblemJsonLayer3new
FN:86,_RNvXs_Cs2jOaoKFfTIb_15api_bones_towerNtB4_14RequestIdLayerNtNtCsbUtogaBoXXO_4core7default7Default7default
FN:249,_RNCNvXs5_Cskjp04g6RO9E_15api_bones_towerINtB7_18ProblemJsonServiceINtNtNtCsksMDDxcDbCX_5tower4util10service_fn9ServiceFnNCNCNvCskrVjZgCeeVl_12problem_json4main00EEINtCsk5fuVICVjdO_13tower_service7ServiceINtNtCsj901y1vRFmJ_4http7request7RequestuEE4call0B20_
FN:249,_RNCNvXs5_Cskjp04g6RO9E_15api_bones_towerINtB7_18ProblemJsonServiceINtNtNtCsksMDDxcDbCX_5tower4util10service_fn9ServiceFnNCNCNvCskrVjZgCeeVl_12problem_json4main0s0_0EEINtCsk5fuVICVjdO_13tower_service7ServiceINtNtCsj901y1vRFmJ_4http7request7RequestuEE4call0B20_
FN:249,_RNCNvXs5_Cskjp04g6RO9E_15api_bones_towerINtB7_18ProblemJsonServiceINtNtNtCsksMDDxcDbCX_5tower4util10service_fn9ServiceFnNCNCNvCskrVjZgCeeVl_12problem_json4main0s_0EEINtCsk5fuVICVjdO_13tower_service7ServiceINtNtCsj901y1vRFmJ_4http7request7RequestuEE4call0B20_
FN:94,_RNvXs0_Cskjp04g6RO9E_15api_bones_towerNtB5_14RequestIdLayerINtCsjJP8XdZJijT_11tower_layer5LayerINtB5_18ProblemJsonServiceINtNtNtCsksMDDxcDbCX_5tower4util10service_fn9ServiceFnNCNCNvCskrVjZgCeeVl_12problem_json4main0s0_0EEE5layerB2T_
FN:121,_RNvXs1_Cskjp04g6RO9E_15api_bones_towerINtB5_16RequestIdServiceINtB5_18ProblemJsonServiceINtNtNtCsksMDDxcDbCX_5tower4util10service_fn9ServiceFnNCNCNvCskrVjZgCeeVl_12problem_json4main0s0_0EEEINtCsk5fuVICVjdO_13tower_service7ServiceINtNtCsj901y1vRFmJ_4http7request7RequestuEE10poll_readyB2m_
FN:125,_RNvXs1_Cskjp04g6RO9E_15api_bones_towerINtB5_16RequestIdServiceINtB5_18ProblemJsonServiceINtNtNtCsksMDDxcDbCX_5tower4util10service_fn9ServiceFnNCNCNvCskrVjZgCeeVl_12problem_json4main0s0_0EEEINtCsk5fuVICVjdO_13tower_service7ServiceINtNtCsj901y1vRFmJ_4http7request7RequestuEE4callB2m_
FN:162,_RNvXs2_Cskjp04g6RO9E_15api_bones_towerINtB5_15RequestIdFutureINtNtCsbUtogaBoXXO_4core3pin3PinINtNtCsipk7xt2ATo7_5alloc5boxed3BoxDNtNtNtB12_6future6future6Futurep6OutputINtNtB12_6result6ResultINtNtCsj901y1vRFmJ_4http8response8ResponseNtNtB1y_6string6StringENtNtB12_7convert10InfallibleENtNtB12_6marker4SendEL_EEB3J_EB23_4pollCskrVjZgCeeVl_12problem_json
FN:216,_RNvXs4_Cskjp04g6RO9E_15api_bones_towerNtB5_16ProblemJsonLayerINtCsjJP8XdZJijT_11tower_layer5LayerINtNtNtCsksMDDxcDbCX_5tower4util10service_fn9ServiceFnNCNCNvCskrVjZgCeeVl_12problem_json4main00EE5layerB2v_
FN:216,_RNvXs4_Cskjp04g6RO9E_15api_bones_towerNtB5_16ProblemJsonLayerINtCsjJP8XdZJijT_11tower_layer5LayerINtNtNtCsksMDDxcDbCX_5tower4util10service_fn9ServiceFnNCNCNvCskrVjZgCeeVl_12problem_json4main0s0_0EE5layerB2v_
FN:216,_RNvXs4_Cskjp04g6RO9E_15api_bones_towerNtB5_16ProblemJsonLayerINtCsjJP8XdZJijT_11tower_layer5LayerINtNtNtCsksMDDxcDbCX_5tower4util10service_fn9ServiceFnNCNCNvCskrVjZgCeeVl_12problem_json4main0s_0EE5layerB2v_
FN:239,_RNvXs5_Cskjp04g6RO9E_15api_bones_towerINtB5_18ProblemJsonServiceINtNtNtCsksMDDxcDbCX_5tower4util10service_fn9ServiceFnNCNCNvCskrVjZgCeeVl_12problem_json4main00EEINtCsk5fuVICVjdO_13tower_service7ServiceINtNtCsj901y1vRFmJ_4http7request7RequestuEE10poll_readyB1Y_
FN:247,_RNvXs5_Cskjp04g6RO9E_15api_bones_towerINtB5_18ProblemJsonServiceINtNtNtCsksMDDxcDbCX_5tower4util10service_fn9ServiceFnNCNCNvCskrVjZgCeeVl_12problem_json4main00EEINtCsk5fuVICVjdO_13tower_service7ServiceINtNtCsj901y1vRFmJ_4http7request7RequestuEE4callB1Y_
FN:239,_RNvXs5_Cskjp04g6RO9E_15api_bones_towerINtB5_18ProblemJsonServiceINtNtNtCsksMDDxcDbCX_5tower4util10service_fn9ServiceFnNCNCNvCskrVjZgCeeVl_12problem_json4main0s0_0EEINtCsk5fuVICVjdO_13tower_service7ServiceINtNtCsj901y1vRFmJ_4http7request7RequestuEE10poll_readyB1Y_
FN:247,_RNvXs5_Cskjp04g6RO9E_15api_bones_towerINtB5_18ProblemJsonServiceINtNtNtCsksMDDxcDbCX_5tower4util10service_fn9ServiceFnNCNCNvCskrVjZgCeeVl_12problem_json4main0s0_0EEINtCsk5fuVICVjdO_13tower_service7ServiceINtNtCsj901y1vRFmJ_4http7request7RequestuEE4callB1Y_
FN:239,_RNvXs5_Cskjp04g6RO9E_15api_bones_towerINtB5_18ProblemJsonServiceINtNtNtCsksMDDxcDbCX_5tower4util10service_fn9ServiceFnNCNCNvCskrVjZgCeeVl_12problem_json4main0s_0EEINtCsk5fuVICVjdO_13tower_service7ServiceINtNtCsj901y1vRFmJ_4http7request7RequestuEE10poll_readyB1Y_
FN:247,_RNvXs5_Cskjp04g6RO9E_15api_bones_towerINtB5_18ProblemJsonServiceINtNtNtCsksMDDxcDbCX_5tower4util10service_fn9ServiceFnNCNCNvCskrVjZgCeeVl_12problem_json4main0s_0EEINtCsk5fuVICVjdO_13tower_service7ServiceINtNtCsj901y1vRFmJ_4http7request7RequestuEE4callB1Y_
FN:249,_RNCNvXINICskjp04g6RO9E_15api_bones_towers5_0ppEINtB7_18ProblemJsonServicepEINtCsk5fuVICVjdO_13tower_service7ServiceINtNtCsj901y1vRFmJ_4http7request7RequestpEE4call0B7_
FN:94,_RNvXINICskjp04g6RO9E_15api_bones_towers0_0pENtB5_14RequestIdLayerINtCsjJP8XdZJijT_11tower_layer5LayerpE5layerB5_
FN:121,_RNvXINICskjp04g6RO9E_15api_bones_towers1_0pppEINtB5_16RequestIdServicepEINtCsk5fuVICVjdO_13tower_service7ServiceINtNtCsj901y1vRFmJ_4http7request7RequestpEE10poll_readyB5_
FN:125,_RNvXINICskjp04g6RO9E_15api_bones_towers1_0pppEINtB5_16RequestIdServicepEINtCsk5fuVICVjdO_13tower_service7ServiceINtNtCsj901y1vRFmJ_4http7request7RequestpEE4callB5_
FN:162,_RNvXINICskjp04g6RO9E_15api_bones_towers2_0pppEINtB5_15RequestIdFutureppENtNtNtCsbUtogaBoXXO_4core6future6future6Future4pollB5_
FN:216,_RNvXINICskjp04g6RO9E_15api_bones_towers4_0pENtB5_16ProblemJsonLayerINtCsjJP8XdZJijT_11tower_layer5LayerpE5layerB5_
FN:239,_RNvXINICskjp04g6RO9E_15api_bones_towers5_0ppEINtB5_18ProblemJsonServicepEINtCsk5fuVICVjdO_13tower_service7ServiceINtNtCsj901y1vRFmJ_4http7request7RequestpEE10poll_readyB5_
FN:247,_RNvXINICskjp04g6RO9E_15api_bones_towers5_0ppEINtB5_18ProblemJsonServicepEINtCsk5fuVICVjdO_13tower_service7ServiceINtNtCsj901y1vRFmJ_4http7request7RequestpEE4callB5_
FN:262,_RNvCskjp04g6RO9E_15api_bones_tower21api_error_to_response
FN:78,_RNvMCskjp04g6RO9E_15api_bones_towerNtB2_14RequestIdLayer3new
FN:208,_RNvMs3_Cskjp04g6RO9E_15api_bones_towerNtB5_16ProblemJsonLayer3new
FN:86,_RNvXs_Cskjp04g6RO9E_15api_bones_towerNtB4_14RequestIdLayerNtNtCsbUtogaBoXXO_4core7default7Default7default
FN:94,_RNvXs0_Cskjp04g6RO9E_15api_bones_towerNtB5_14RequestIdLayerINtCsjJP8XdZJijT_11tower_layer5LayerINtNtNtCsksMDDxcDbCX_5tower4util10service_fn9ServiceFnNvCsipe8wtjPcF7_10request_id15echo_request_idEE5layerB2p_
FN:121,_RNvXs1_Cskjp04g6RO9E_15api_bones_towerINtB5_16RequestIdServiceINtNtNtCsksMDDxcDbCX_5tower4util10service_fn9ServiceFnNvCsipe8wtjPcF7_10request_id15echo_request_idEEINtCsk5fuVICVjdO_13tower_service7ServiceINtNtCsj901y1vRFmJ_4http7request7RequestuEE10poll_readyB1S_
FN:125,_RNvXs1_Cskjp04g6RO9E_15api_bones_towerINtB5_16RequestIdServiceINtNtNtCsksMDDxcDbCX_5tower4util10service_fn9ServiceFnNvCsipe8wtjPcF7_10request_id15echo_request_idEEINtCsk5fuVICVjdO_13tower_service7ServiceINtNtCsj901y1vRFmJ_4http7request7RequestuEE4callB1S_
FN:162,_RNvXs2_Cskjp04g6RO9E_15api_bones_towerINtB5_15RequestIdFutureNCNvCsipe8wtjPcF7_10request_id15echo_request_id0NtNtCsipk7xt2ATo7_5alloc6string6StringENtNtNtCsbUtogaBoXXO_4core6future6future6Future4pollB11_
FNDA:1,_RNCNCNCNCNvNtCs2jOaoKFfTIb_15api_bones_tower5testss_31request_id_layer_injects_header0000Bb_
FNDA:1,_RNCNCNCNvNtCs2jOaoKFfTIb_15api_bones_tower5testss_29problem_json_layer_maps_error000B9_
FNDA:1,_RNCNCNCNvNtCs2jOaoKFfTIb_15api_bones_tower5testss_30request_id_future_poll_pending000B9_
FNDA:1,_RNCNCNCNvNtCs2jOaoKFfTIb_15api_bones_tower5testss_31problem_json_service_poll_ready000B9_
FNDA:1,_RNCNCNCNvNtCs2jOaoKFfTIb_15api_bones_tower5testss_31request_id_layer_injects_header000B9_
FNDA:1,_RNCNCNCNvNtCs2jOaoKFfTIb_15api_bones_tower5testss_36problem_json_layer_passes_through_ok000B9_
FNDA:1,_RNCNCNCNvNtCs2jOaoKFfTIb_15api_bones_tower5testss_40request_id_future_propagates_inner_error000B9_
FNDA:1,_RNCNCNCNvNtCs2jOaoKFfTIb_15api_bones_tower5testss_42request_id_layer_preserves_existing_header000B9_
FNDA:1,_RNCNCNvNtCs2jOaoKFfTIb_15api_bones_tower5testss_29problem_json_layer_maps_error00B7_
FNDA:1,_RNCNCNvNtCs2jOaoKFfTIb_15api_bones_tower5testss_30request_id_future_poll_pending00B7_
FNDA:1,_RNCNCNvNtCs2jOaoKFfTIb_15api_bones_tower5testss_31problem_json_service_poll_ready00B7_
FNDA:1,_RNCNCNvNtCs2jOaoKFfTIb_15api_bones_tower5testss_31request_id_layer_injects_header00B7_
FNDA:1,_RNCNCNvNtCs2jOaoKFfTIb_15api_bones_tower5testss_36problem_json_layer_passes_through_ok00B7_
FNDA:1,_RNCNCNvNtCs2jOaoKFfTIb_15api_bones_tower5testss_40request_id_future_propagates_inner_error00B7_
FNDA:1,_RNCNCNvNtCs2jOaoKFfTIb_15api_bones_tower5testss_42request_id_layer_preserves_existing_header00B7_
FNDA:1,_RNCNvNtCs2jOaoKFfTIb_15api_bones_tower5testss_29problem_json_layer_maps_error0B5_
FNDA:1,_RNCNvNtCs2jOaoKFfTIb_15api_bones_tower5testss_30request_id_future_poll_pending0B5_
FNDA:1,_RNCNvNtCs2jOaoKFfTIb_15api_bones_tower5testss_31problem_json_service_poll_ready0B5_
FNDA:1,_RNCNvNtCs2jOaoKFfTIb_15api_bones_tower5testss_31request_id_layer_injects_header0B5_
FNDA:1,_RNCNvNtCs2jOaoKFfTIb_15api_bones_tower5testss_36problem_json_layer_passes_through_ok0B5_
FNDA:1,_RNCNvNtCs2jOaoKFfTIb_15api_bones_tower5testss_40request_id_future_propagates_inner_error0B5_
FNDA:1,_RNCNvNtCs2jOaoKFfTIb_15api_bones_tower5testss_42request_id_layer_preserves_existing_header0B5_
FNDA:1,_RNvNtCs2jOaoKFfTIb_15api_bones_tower5testss_29problem_json_layer_maps_error
FNDA:1,_RNvNtCs2jOaoKFfTIb_15api_bones_tower5testss_30request_id_future_poll_pending
FNDA:1,_RNvNtCs2jOaoKFfTIb_15api_bones_tower5testss_31problem_json_service_poll_ready
FNDA:1,_RNvNtCs2jOaoKFfTIb_15api_bones_tower5testss_31request_id_layer_injects_header
FNDA:1,_RNvNtCs2jOaoKFfTIb_15api_bones_tower5testss_36problem_json_layer_passes_through_ok
FNDA:1,_RNvNtCs2jOaoKFfTIb_15api_bones_tower5testss_39request_id_layer_default_is_same_as_new
FNDA:1,_RNvNtCs2jOaoKFfTIb_15api_bones_tower5testss_40request_id_future_propagates_inner_error
FNDA:1,_RNvNtCs2jOaoKFfTIb_15api_bones_tower5testss_42request_id_layer_preserves_existing_header
FNDA:1,_RNCNvXs5_Cs2jOaoKFfTIb_15api_bones_towerINtB7_18ProblemJsonServiceINtNtNtCsksMDDxcDbCX_5tower4util10service_fn9ServiceFnNCNCNvNtB7_5testss_29problem_json_layer_maps_error00EEINtCsk5fuVICVjdO_13tower_service7ServiceINtNtCsj901y1vRFmJ_4http7request7RequestuEE4call0B7_
FNDA:1,_RNCNvXs5_Cs2jOaoKFfTIb_15api_bones_towerINtB7_18ProblemJsonServiceINtNtNtCsksMDDxcDbCX_5tower4util10service_fn9ServiceFnNCNCNvNtB7_5testss_31problem_json_service_poll_ready00EEINtCsk5fuVICVjdO_13tower_service7ServiceINtNtCsj901y1vRFmJ_4http7request7RequestuEE4call0B7_
FNDA:1,_RNCNvXs5_Cs2jOaoKFfTIb_15api_bones_towerINtB7_18ProblemJsonServiceINtNtNtCsksMDDxcDbCX_5tower4util10service_fn9ServiceFnNCNCNvNtB7_5testss_36problem_json_layer_passes_through_ok00EEINtCsk5fuVICVjdO_13tower_service7ServiceINtNtCsj901y1vRFmJ_4http7request7RequestuEE4call0B7_
FNDA:1,_RNvXs0_Cs2jOaoKFfTIb_15api_bones_towerNtB5_14RequestIdLayerINtCsjJP8XdZJijT_11tower_layer5LayerINtNtNtCsksMDDxcDbCX_5tower4util10service_fn9ServiceFnNCNCNvNtB5_5testss_30request_id_future_poll_pending00EE5layerB5_
FNDA:1,_RNvXs0_Cs2jOaoKFfTIb_15api_bones_towerNtB5_14RequestIdLayerINtCsjJP8XdZJijT_11tower_layer5LayerINtNtNtCsksMDDxcDbCX_5tower4util10service_fn9ServiceFnNCNCNvNtB5_5testss_31request_id_layer_injects_header00EE5layerB5_
FNDA:1,_RNvXs0_Cs2jOaoKFfTIb_15api_bones_towerNtB5_14RequestIdLayerINtCsjJP8XdZJijT_11tower_layer5LayerINtNtNtCsksMDDxcDbCX_5tower4util10service_fn9ServiceFnNCNCNvNtB5_5testss_40request_id_future_propagates_inner_error00EE5layerB5_
FNDA:1,_RNvXs0_Cs2jOaoKFfTIb_15api_bones_towerNtB5_14RequestIdLayerINtCsjJP8XdZJijT_11tower_layer5LayerINtNtNtCsksMDDxcDbCX_5tower4util10service_fn9ServiceFnNCNCNvNtB5_5testss_42request_id_layer_preserves_existing_header00EE5layerB5_
FNDA:1,_RNvXs1_Cs2jOaoKFfTIb_15api_bones_towerINtB5_16RequestIdServiceINtNtNtCsksMDDxcDbCX_5tower4util10service_fn9ServiceFnNCNCNvNtB5_5testss_30request_id_future_poll_pending00EEINtCsk5fuVICVjdO_13tower_service7ServiceINtNtCsj901y1vRFmJ_4http7request7RequestuEE4callB5_
FNDA:1,_RNvXs1_Cs2jOaoKFfTIb_15api_bones_towerINtB5_16RequestIdServiceINtNtNtCsksMDDxcDbCX_5tower4util10service_fn9ServiceFnNCNCNvNtB5_5testss_31request_id_layer_injects_header00EEINtCsk5fuVICVjdO_13tower_service7ServiceINtNtCsj901y1vRFmJ_4http7request7RequestuEE10poll_readyB5_
FNDA:1,_RNvXs1_Cs2jOaoKFfTIb_15api_bones_towerINtB5_16RequestIdServiceINtNtNtCsksMDDxcDbCX_5tower4util10service_fn9ServiceFnNCNCNvNtB5_5testss_31request_id_layer_injects_header00EEINtCsk5fuVICVjdO_13tower_service7ServiceINtNtCsj901y1vRFmJ_4http7request7RequestuEE4callB5_
FNDA:1,_RNvXs1_Cs2jOaoKFfTIb_15api_bones_towerINtB5_16RequestIdServiceINtNtNtCsksMDDxcDbCX_5tower4util10service_fn9ServiceFnNCNCNvNtB5_5testss_40request_id_future_propagates_inner_error00EEINtCsk5fuVICVjdO_13tower_service7ServiceINtNtCsj901y1vRFmJ_4http7request7RequestuEE10poll_readyB5_
FNDA:1,_RNvXs1_Cs2jOaoKFfTIb_15api_bones_towerINtB5_16RequestIdServiceINtNtNtCsksMDDxcDbCX_5tower4util10service_fn9ServiceFnNCNCNvNtB5_5testss_40request_id_future_propagates_inner_error00EEINtCsk5fuVICVjdO_13tower_service7ServiceINtNtCsj901y1vRFmJ_4http7request7RequestuEE4callB5_
FNDA:1,_RNvXs1_Cs2jOaoKFfTIb_15api_bones_towerINtB5_16RequestIdServiceINtNtNtCsksMDDxcDbCX_5tower4util10service_fn9ServiceFnNCNCNvNtB5_5testss_42request_id_layer_preserves_existing_header00EEINtCsk5fuVICVjdO_13tower_service7ServiceINtNtCsj901y1vRFmJ_4http7request7RequestuEE10poll_readyB5_
FNDA:1,_RNvXs1_Cs2jOaoKFfTIb_15api_bones_towerINtB5_16RequestIdServiceINtNtNtCsksMDDxcDbCX_5tower4util10service_fn9ServiceFnNCNCNvNtB5_5testss_42request_id_layer_preserves_existing_header00EEINtCsk5fuVICVjdO_13tower_service7ServiceINtNtCsj901y1vRFmJ_4http7request7RequestuEE4callB5_
FNDA:2,_RNvXs2_Cs2jOaoKFfTIb_15api_bones_towerINtB5_15RequestIdFutureNCNCNCNvNtB5_5testss_30request_id_future_poll_pending000NtNtCsipk7xt2ATo7_5alloc6string6StringENtNtNtCsbUtogaBoXXO_4core6future6future6Future4pollB5_
FNDA:1,_RNvXs2_Cs2jOaoKFfTIb_15api_bones_towerINtB5_15RequestIdFutureNCNCNCNvNtB5_5testss_31request_id_layer_injects_header000NtNtCsipk7xt2ATo7_5alloc6string6StringENtNtNtCsbUtogaBoXXO_4core6future6future6Future4pollB5_
FNDA:1,_RNvXs2_Cs2jOaoKFfTIb_15api_bones_towerINtB5_15RequestIdFutureNCNCNCNvNtB5_5testss_40request_id_future_propagates_inner_error000NtNtCsipk7xt2ATo7_5alloc6string6StringENtNtNtCsbUtogaBoXXO_4core6future6future6Future4pollB5_
FNDA:1,_RNvXs2_Cs2jOaoKFfTIb_15api_bones_towerINtB5_15RequestIdFutureNCNCNCNvNtB5_5testss_42request_id_layer_preserves_existing_header000NtNtCsipk7xt2ATo7_5alloc6string6StringENtNtNtCsbUtogaBoXXO_4core6future6future6Future4pollB5_
FNDA:1,_RNvXs4_Cs2jOaoKFfTIb_15api_bones_towerNtB5_16ProblemJsonLayerINtCsjJP8XdZJijT_11tower_layer5LayerINtNtNtCsksMDDxcDbCX_5tower4util10service_fn9ServiceFnNCNCNvNtB5_5testss_29problem_json_layer_maps_error00EE5layerB5_
FNDA:1,_RNvXs4_Cs2jOaoKFfTIb_15api_bones_towerNtB5_16ProblemJsonLayerINtCsjJP8XdZJijT_11tower_layer5LayerINtNtNtCsksMDDxcDbCX_5tower4util10service_fn9ServiceFnNCNCNvNtB5_5testss_36problem_json_layer_passes_through_ok00EE5layerB5_
FNDA:1,_RNvXs5_Cs2jOaoKFfTIb_15api_bones_towerINtB5_18ProblemJsonServiceINtNtNtCsksMDDxcDbCX_5tower4util10service_fn9ServiceFnNCNCNvNtB5_5testss_29problem_json_layer_maps_error00EEINtCsk5fuVICVjdO_13tower_service7ServiceINtNtCsj901y1vRFmJ_4http7request7RequestuEE10poll_readyB5_
FNDA:1,_RNvXs5_Cs2jOaoKFfTIb_15api_bones_towerINtB5_18ProblemJsonServiceINtNtNtCsksMDDxcDbCX_5tower4util10service_fn9ServiceFnNCNCNvNtB5_5testss_29problem_json_layer_maps_error00EEINtCsk5fuVICVjdO_13tower_service7ServiceINtNtCsj901y1vRFmJ_4http7request7RequestuEE4callB5_
FNDA:1,_RNvXs5_Cs2jOaoKFfTIb_15api_bones_towerINtB5_18ProblemJsonServiceINtNtNtCsksMDDxcDbCX_5tower4util10service_fn9ServiceFnNCNCNvNtB5_5testss_31problem_json_service_poll_ready00EEINtCsk5fuVICVjdO_13tower_service7ServiceINtNtCsj901y1vRFmJ_4http7request7RequestuEE10poll_readyB5_
FNDA:1,_RNvXs5_Cs2jOaoKFfTIb_15api_bones_towerINtB5_18ProblemJsonServiceINtNtNtCsksMDDxcDbCX_5tower4util10service_fn9ServiceFnNCNCNvNtB5_5testss_31problem_json_service_poll_ready00EEINtCsk5fuVICVjdO_13tower_service7ServiceINtNtCsj901y1vRFmJ_4http7request7RequestuEE4callB5_
FNDA:1,_RNvXs5_Cs2jOaoKFfTIb_15api_bones_towerINtB5_18ProblemJsonServiceINtNtNtCsksMDDxcDbCX_5tower4util10service_fn9ServiceFnNCNCNvNtB5_5testss_36problem_json_layer_passes_through_ok00EEINtCsk5fuVICVjdO_13tower_service7ServiceINtNtCsj901y1vRFmJ_4http7request7RequestuEE10poll_readyB5_
FNDA:1,_RNvXs5_Cs2jOaoKFfTIb_15api_bones_towerINtB5_18ProblemJsonServiceINtNtNtCsksMDDxcDbCX_5tower4util10service_fn9ServiceFnNCNCNvNtB5_5testss_36problem_json_layer_passes_through_ok00EEINtCsk5fuVICVjdO_13tower_service7ServiceINtNtCsj901y1vRFmJ_4http7request7RequestuEE4callB5_
FNDA:1,_RNvCs2jOaoKFfTIb_15api_bones_tower21api_error_to_response
FNDA:5,_RNvMCs2jOaoKFfTIb_15api_bones_towerNtB2_14RequestIdLayer3new
FNDA:2,_RNvMs3_Cs2jOaoKFfTIb_15api_bones_towerNtB5_16ProblemJsonLayer3new
FNDA:1,_RNvXs_Cs2jOaoKFfTIb_15api_bones_towerNtB4_14RequestIdLayerNtNtCsbUtogaBoXXO_4core7default7Default7default
FNDA:0,_RNCNvXs5_Cskjp04g6RO9E_15api_bones_towerINtB7_18ProblemJsonServiceINtNtNtCsksMDDxcDbCX_5tower4util10service_fn9ServiceFnNCNCNvCskrVjZgCeeVl_12problem_json4main00EEINtCsk5fuVICVjdO_13tower_service7ServiceINtNtCsj901y1vRFmJ_4http7request7RequestuEE4call0B20_
FNDA:0,_RNCNvXs5_Cskjp04g6RO9E_15api_bones_towerINtB7_18ProblemJsonServiceINtNtNtCsksMDDxcDbCX_5tower4util10service_fn9ServiceFnNCNCNvCskrVjZgCeeVl_12problem_json4main0s0_0EEINtCsk5fuVICVjdO_13tower_service7ServiceINtNtCsj901y1vRFmJ_4http7request7RequestuEE4call0B20_
FNDA:0,_RNCNvXs5_Cskjp04g6RO9E_15api_bones_towerINtB7_18ProblemJsonServiceINtNtNtCsksMDDxcDbCX_5tower4util10service_fn9ServiceFnNCNCNvCskrVjZgCeeVl_12problem_json4main0s_0EEINtCsk5fuVICVjdO_13tower_service7ServiceINtNtCsj901y1vRFmJ_4http7request7RequestuEE4call0B20_
FNDA:0,_RNvXs0_Cskjp04g6RO9E_15api_bones_towerNtB5_14RequestIdLayerINtCsjJP8XdZJijT_11tower_layer5LayerINtB5_18ProblemJsonServiceINtNtNtCsksMDDxcDbCX_5tower4util10service_fn9ServiceFnNCNCNvCskrVjZgCeeVl_12problem_json4main0s0_0EEE5layerB2T_
FNDA:0,_RNvXs1_Cskjp04g6RO9E_15api_bones_towerINtB5_16RequestIdServiceINtB5_18ProblemJsonServiceINtNtNtCsksMDDxcDbCX_5tower4util10service_fn9ServiceFnNCNCNvCskrVjZgCeeVl_12problem_json4main0s0_0EEEINtCsk5fuVICVjdO_13tower_service7ServiceINtNtCsj901y1vRFmJ_4http7request7RequestuEE10poll_readyB2m_
FNDA:0,_RNvXs1_Cskjp04g6RO9E_15api_bones_towerINtB5_16RequestIdServiceINtB5_18ProblemJsonServiceINtNtNtCsksMDDxcDbCX_5tower4util10service_fn9ServiceFnNCNCNvCskrVjZgCeeVl_12problem_json4main0s0_0EEEINtCsk5fuVICVjdO_13tower_service7ServiceINtNtCsj901y1vRFmJ_4http7request7RequestuEE4callB2m_
FNDA:0,_RNvXs2_Cskjp04g6RO9E_15api_bones_towerINtB5_15RequestIdFutureINtNtCsbUtogaBoXXO_4core3pin3PinINtNtCsipk7xt2ATo7_5alloc5boxed3BoxDNtNtNtB12_6future6future6Futurep6OutputINtNtB12_6result6ResultINtNtCsj901y1vRFmJ_4http8response8ResponseNtNtB1y_6string6StringENtNtB12_7convert10InfallibleENtNtB12_6marker4SendEL_EEB3J_EB23_4pollCskrVjZgCeeVl_12problem_json
FNDA:0,_RNvXs4_Cskjp04g6RO9E_15api_bones_towerNtB5_16ProblemJsonLayerINtCsjJP8XdZJijT_11tower_layer5LayerINtNtNtCsksMDDxcDbCX_5tower4util10service_fn9ServiceFnNCNCNvCskrVjZgCeeVl_12problem_json4main00EE5layerB2v_
FNDA:0,_RNvXs4_Cskjp04g6RO9E_15api_bones_towerNtB5_16ProblemJsonLayerINtCsjJP8XdZJijT_11tower_layer5LayerINtNtNtCsksMDDxcDbCX_5tower4util10service_fn9ServiceFnNCNCNvCskrVjZgCeeVl_12problem_json4main0s0_0EE5layerB2v_
FNDA:0,_RNvXs4_Cskjp04g6RO9E_15api_bones_towerNtB5_16ProblemJsonLayerINtCsjJP8XdZJijT_11tower_layer5LayerINtNtNtCsksMDDxcDbCX_5tower4util10service_fn9ServiceFnNCNCNvCskrVjZgCeeVl_12problem_json4main0s_0EE5layerB2v_
FNDA:0,_RNvXs5_Cskjp04g6RO9E_15api_bones_towerINtB5_18ProblemJsonServiceINtNtNtCsksMDDxcDbCX_5tower4util10service_fn9ServiceFnNCNCNvCskrVjZgCeeVl_12problem_json4main00EEINtCsk5fuVICVjdO_13tower_service7ServiceINtNtCsj901y1vRFmJ_4http7request7RequestuEE10poll_readyB1Y_
FNDA:0,_RNvXs5_Cskjp04g6RO9E_15api_bones_towerINtB5_18ProblemJsonServiceINtNtNtCsksMDDxcDbCX_5tower4util10service_fn9ServiceFnNCNCNvCskrVjZgCeeVl_12problem_json4main00EEINtCsk5fuVICVjdO_13tower_service7ServiceINtNtCsj901y1vRFmJ_4http7request7RequestuEE4callB1Y_
FNDA:0,_RNvXs5_Cskjp04g6RO9E_15api_bones_towerINtB5_18ProblemJsonServiceINtNtNtCsksMDDxcDbCX_5tower4util10service_fn9ServiceFnNCNCNvCskrVjZgCeeVl_12problem_json4main0s0_0EEINtCsk5fuVICVjdO_13tower_service7ServiceINtNtCsj901y1vRFmJ_4http7request7RequestuEE10poll_readyB1Y_
FNDA:0,_RNvXs5_Cskjp04g6RO9E_15api_bones_towerINtB5_18ProblemJsonServiceINtNtNtCsksMDDxcDbCX_5tower4util10service_fn9ServiceFnNCNCNvCskrVjZgCeeVl_12problem_json4main0s0_0EEINtCsk5fuVICVjdO_13tower_service7ServiceINtNtCsj901y1vRFmJ_4http7request7RequestuEE4callB1Y_
FNDA:0,_RNvXs5_Cskjp04g6RO9E_15api_bones_towerINtB5_18ProblemJsonServiceINtNtNtCsksMDDxcDbCX_5tower4util10service_fn9ServiceFnNCNCNvCskrVjZgCeeVl_12problem_json4main0s_0EEINtCsk5fuVICVjdO_13tower_service7ServiceINtNtCsj901y1vRFmJ_4http7request7RequestuEE10poll_readyB1Y_
FNDA:0,_RNvXs5_Cskjp04g6RO9E_15api_bones_towerINtB5_18ProblemJsonServiceINtNtNtCsksMDDxcDbCX_5tower4util10service_fn9ServiceFnNCNCNvCskrVjZgCeeVl_12problem_json4main0s_0EEINtCsk5fuVICVjdO_13tower_service7ServiceINtNtCsj901y1vRFmJ_4http7request7RequestuEE4callB1Y_
FNDA:0,_RNCNvXINICskjp04g6RO9E_15api_bones_towers5_0ppEINtB7_18ProblemJsonServicepEINtCsk5fuVICVjdO_13tower_service7ServiceINtNtCsj901y1vRFmJ_4http7request7RequestpEE4call0B7_
FNDA:0,_RNvXINICskjp04g6RO9E_15api_bones_towers0_0pENtB5_14RequestIdLayerINtCsjJP8XdZJijT_11tower_layer5LayerpE5layerB5_
FNDA:0,_RNvXINICskjp04g6RO9E_15api_bones_towers1_0pppEINtB5_16RequestIdServicepEINtCsk5fuVICVjdO_13tower_service7ServiceINtNtCsj901y1vRFmJ_4http7request7RequestpEE10poll_readyB5_
FNDA:0,_RNvXINICskjp04g6RO9E_15api_bones_towers1_0pppEINtB5_16RequestIdServicepEINtCsk5fuVICVjdO_13tower_service7ServiceINtNtCsj901y1vRFmJ_4http7request7RequestpEE4callB5_
FNDA:0,_RNvXINICskjp04g6RO9E_15api_bones_towers2_0pppEINtB5_15RequestIdFutureppENtNtNtCsbUtogaBoXXO_4core6future6future6Future4pollB5_
FNDA:0,_RNvXINICskjp04g6RO9E_15api_bones_towers4_0pENtB5_16ProblemJsonLayerINtCsjJP8XdZJijT_11tower_layer5LayerpE5layerB5_
FNDA:0,_RNvXINICskjp04g6RO9E_15api_bones_towers5_0ppEINtB5_18ProblemJsonServicepEINtCsk5fuVICVjdO_13tower_service7ServiceINtNtCsj901y1vRFmJ_4http7request7RequestpEE10poll_readyB5_
FNDA:0,_RNvXINICskjp04g6RO9E_15api_bones_towers5_0ppEINtB5_18ProblemJsonServicepEINtCsk5fuVICVjdO_13tower_service7ServiceINtNtCsj901y1vRFmJ_4http7request7RequestpEE4callB5_
FNDA:0,_RNvCskjp04g6RO9E_15api_bones_tower21api_error_to_response
FNDA:0,_RNvMCskjp04g6RO9E_15api_bones_towerNtB2_14RequestIdLayer3new
FNDA:0,_RNvMs3_Cskjp04g6RO9E_15api_bones_towerNtB5_16ProblemJsonLayer3new
FNDA:0,_RNvXs_Cskjp04g6RO9E_15api_bones_towerNtB4_14RequestIdLayerNtNtCsbUtogaBoXXO_4core7default7Default7default
FNDA:0,_RNvXs0_Cskjp04g6RO9E_15api_bones_towerNtB5_14RequestIdLayerINtCsjJP8XdZJijT_11tower_layer5LayerINtNtNtCsksMDDxcDbCX_5tower4util10service_fn9ServiceFnNvCsipe8wtjPcF7_10request_id15echo_request_idEE5layerB2p_
FNDA:0,_RNvXs1_Cskjp04g6RO9E_15api_bones_towerINtB5_16RequestIdServiceINtNtNtCsksMDDxcDbCX_5tower4util10service_fn9ServiceFnNvCsipe8wtjPcF7_10request_id15echo_request_idEEINtCsk5fuVICVjdO_13tower_service7ServiceINtNtCsj901y1vRFmJ_4http7request7RequestuEE10poll_readyB1S_
FNDA:0,_RNvXs1_Cskjp04g6RO9E_15api_bones_towerINtB5_16RequestIdServiceINtNtNtCsksMDDxcDbCX_5tower4util10service_fn9ServiceFnNvCsipe8wtjPcF7_10request_id15echo_request_idEEINtCsk5fuVICVjdO_13tower_service7ServiceINtNtCsj901y1vRFmJ_4http7request7RequestuEE4callB1S_
FNDA:0,_RNvXs2_Cskjp04g6RO9E_15api_bones_towerINtB5_15RequestIdFutureNCNvCsipe8wtjPcF7_10request_id15echo_request_id0NtNtCsipk7xt2ATo7_5alloc6string6StringENtNtNtCsbUtogaBoXXO_4core6future6future6Future4pollB11_
FNF:42
FNH:42
DA:78,5
DA:79,5
DA:80,5
DA:81,5
DA:82,5
DA:86,1
DA:87,1
DA:88,1
DA:94,4
DA:95,4
DA:96,4
DA:97,4
DA:98,4
DA:99,4
DA:121,3
DA:122,3
DA:123,3
DA:125,4
DA:127,4
DA:128,1
DA:130,3
DA:131,3
DA:132,3
DA:133,3
DA:134,3
DA:135,3
DA:138,4
DA:139,4
DA:140,4
DA:141,4
DA:142,4
DA:143,4
DA:144,4
DA:162,5
DA:163,5
DA:164,5
DA:165,1
DA:166,3
DA:167,3
DA:168,3
DA:169,3
DA:170,3
DA:172,1
DA:174,5
DA:208,2
DA:209,2
DA:210,2
DA:216,2
DA:217,2
DA:218,2
DA:239,3
DA:240,3
DA:241,0
DA:242,3
DA:243,0
DA:245,3
DA:247,3
DA:248,3
DA:249,3
DA:250,3
DA:251,2
DA:252,1
DA:253,1
DA:254,1
DA:257,3
DA:258,3
DA:262,1
DA:265,1
DA:266,1
DA:267,1
DA:269,1
DA:270,1
DA:272,1
DA:273,1
DA:274,1
DA:275,1
DA:276,1
DA:277,1
DA:289,1
DA:290,1
DA:291,1
DA:292,1
DA:293,1
DA:294,1
DA:295,1
DA:296,1
DA:297,1
DA:298,1
DA:299,1
DA:300,1
DA:301,2
DA:303,1
DA:304,1
DA:305,1
DA:306,1
DA:309,1
DA:310,1
DA:311,1
DA:312,1
DA:313,1
DA:314,2
DA:316,1
DA:317,1
DA:318,1
DA:319,1
DA:320,1
DA:321,1
DA:322,1
DA:323,1
DA:324,1
DA:325,1
DA:326,1
DA:327,1
DA:328,1
DA:329,1
DA:330,1
DA:333,1
DA:334,1
DA:335,1
DA:336,1
DA:337,1
DA:338,2
DA:340,1
DA:341,1
DA:342,1
DA:343,1
DA:344,1
DA:345,1
DA:346,1
DA:347,1
DA:348,1
DA:349,1
DA:350,1
DA:351,1
DA:354,1
DA:355,1
DA:356,1
DA:357,1
DA:358,1
DA:359,1
DA:360,1
DA:361,1
DA:362,1
DA:363,1
DA:364,2
DA:366,1
DA:367,1
DA:368,1
DA:369,1
DA:372,1
DA:373,1
DA:374,1
DA:377,1
DA:380,1
DA:381,1
DA:382,2
DA:383,1
DA:384,1
DA:385,1
DA:386,1
DA:387,1
DA:388,1
DA:391,1
DA:392,1
DA:393,1
DA:394,1
DA:395,1
DA:396,2
DA:398,1
DA:399,1
DA:400,1
DA:401,1
DA:402,1
DA:405,1
DA:411,1
DA:412,1
DA:414,1
DA:415,1
DA:416,1
DA:417,1
DA:418,1
DA:419,1
DA:420,1
DA:421,1
DA:422,1
DA:423,1
DA:425,1
DA:426,1
DA:428,1
DA:429,1
DA:430,1
DA:431,1
DA:432,1
DA:433,1
BRF:0
BRH:0
LF:233
LH:228
end_of_record
SF:/Users/gsalingu/git/api-bones/.claude/worktrees/feat+211-nested-org-adr/src/audit.rs
FN:380,_RNCNvXs8_NtCs1ufPfM0GhR0_9api_bones5auditNtB7_9PrincipalNtNtNtCsdzzFRNBoJB7_8proptest9arbitrary6traits9Arbitrary14arbitrary_with0B9_
FN:412,_RNCNvXs9_NtCs1ufPfM0GhR0_9api_bones5auditNtB7_11PrincipalIdNtNtNtCsdzzFRNBoJB7_8proptest9arbitrary6traits9Arbitrary14arbitrary_with0B9_
FN:684,_RNCNvXsf_NtCs1ufPfM0GhR0_9api_bones5auditNtB7_9AuditInfoNtNtNtCsdzzFRNBoJB7_8proptest9arbitrary6traits9Arbitrary14arbitrary_with0B9_
FN:320,_RNvXs5_NtCs1ufPfM0GhR0_9api_bones5auditNtB5_9PrincipalNtCsbaNmgZyAOpq_9arbitrary9Arbitrary9arbitrary
FN:344,_RNvXs6_NtCs1ufPfM0GhR0_9api_bones5auditNtB5_11PrincipalIdNtCsbaNmgZyAOpq_9arbitrary9Arbitrary9arbitrary
FN:361,_RNvXs7_NtCs1ufPfM0GhR0_9api_bones5auditNtB5_13PrincipalKindNtCsbaNmgZyAOpq_9arbitrary9Arbitrary9arbitrary
FN:377,_RNvXs8_NtCs1ufPfM0GhR0_9api_bones5auditNtB5_9PrincipalNtNtNtCsdzzFRNBoJB7_8proptest9arbitrary6traits9Arbitrary14arbitrary_with
FN:409,_RNvXs9_NtCs1ufPfM0GhR0_9api_bones5auditNtB5_11PrincipalIdNtNtNtCsdzzFRNBoJB7_8proptest9arbitrary6traits9Arbitrary14arbitrary_with
FN:434,_RNvXsa_NtCs1ufPfM0GhR0_9api_bones5auditNtB5_13PrincipalKindNtNtNtCsdzzFRNBoJB7_8proptest9arbitrary6traits9Arbitrary14arbitrary_with
FN:653,_RNvXse_NtCs1ufPfM0GhR0_9api_bones5auditNtB5_9AuditInfoNtCsbaNmgZyAOpq_9arbitrary9Arbitrary9arbitrary
FN:675,_RNvXsf_NtCs1ufPfM0GhR0_9api_bones5auditNtB5_9AuditInfoNtNtNtCsdzzFRNBoJB7_8proptest9arbitrary6traits9Arbitrary14arbitrary_with
FN:940,_RNvNtNtCs1ufPfM0GhR0_9api_bones5audit5testss_15new_constructor
FN:727,_RNvNtNtCs1ufPfM0GhR0_9api_bones5audit5testss_20principal_id_display
FN:721,_RNvNtNtCs1ufPfM0GhR0_9api_bones5audit5testss_22principal_id_from_uuid
FN:714,_RNvNtNtCs1ufPfM0GhR0_9api_bones5audit5testss_23principal_id_from_owned
FN:708,_RNvNtNtCs1ufPfM0GhR0_9api_bones5audit5testss_23principal_id_static_str
FN:918,_RNvNtNtCs1ufPfM0GhR0_9api_bones5audit5testss_25now_with_system_principal
FN:868,_RNvNtNtCs1ufPfM0GhR0_9api_bones5audit5testss_25principal_clone_roundtrip
FN:745,_RNvNtNtCs1ufPfM0GhR0_9api_bones5audit5testss_26principal_kind_copy_and_eq
FN:752,_RNvNtNtCs1ufPfM0GhR0_9api_bones5audit5testss_27principal_kind_all_variants
FN:762,_RNvNtNtCs1ufPfM0GhR0_9api_bones5audit5testss_29principal_human_has_user_kind
FN:734,_RNvNtNtCs1ufPfM0GhR0_9api_bones5audit5testss_30principal_id_serde_transparent
FN:825,_RNvNtNtCs1ufPfM0GhR0_9api_bones5audit5testss_31principal_as_str_returns_id_str
FN:840,_RNvNtNtCs1ufPfM0GhR0_9api_bones5audit5testss_31principal_debug_is_not_redacted
FN:787,_RNvNtNtCs1ufPfM0GhR0_9api_bones5audit5testss_31principal_with_org_path_builder
FN:775,_RNvNtNtCs1ufPfM0GhR0_9api_bones5audit5testss_32principal_system_has_system_kind
FN:894,_RNvNtNtCs1ufPfM0GhR0_9api_bones5audit5testss_33principal_serde_includes_org_path
FN:1019,_RNvNtNtCs1ufPfM0GhR0_9api_bones5audit5testss_33resolved_principal_from_principal
FN:904,_RNvNtNtCs1ufPfM0GhR0_9api_bones5audit5testss_34now_sets_created_at_and_updated_at
FN:769,_RNvNtNtCs1ufPfM0GhR0_9api_bones5audit5testss_34principal_human_has_empty_org_path
FN:992,_RNvNtNtCs1ufPfM0GhR0_9api_bones5audit5testss_34principal_parse_error_is_std_error
FN:804,_RNvNtNtCs1ufPfM0GhR0_9api_bones5audit5testss_34principal_try_parse_sets_user_kind
FN:953,_RNvNtNtCs1ufPfM0GhR0_9api_bones5audit5testss_34serde_round_trip_with_system_actor
FN:781,_RNvNtNtCs1ufPfM0GhR0_9api_bones5audit5testss_35principal_system_has_empty_org_path
FN:832,_RNvNtNtCs1ufPfM0GhR0_9api_bones5audit5testss_36principal_display_forwards_to_as_str
FN:962,_RNvNtNtCs1ufPfM0GhR0_9api_bones5audit5testss_37serde_actor_fields_are_always_present
FN:876,_RNvNtNtCs1ufPfM0GhR0_9api_bones5audit5testss_38principal_serde_struct_roundtrip_human
FN:796,_RNvNtNtCs1ufPfM0GhR0_9api_bones5audit5testss_38principal_try_parse_accepts_valid_uuid
FN:885,_RNvNtNtCs1ufPfM0GhR0_9api_bones5audit5testss_39principal_serde_struct_roundtrip_system
FN:927,_RNvNtNtCs1ufPfM0GhR0_9api_bones5audit5testss_39touch_updates_updated_at_and_updated_by
FN:811,_RNvNtNtCs1ufPfM0GhR0_9api_bones5audit5testss_40principal_try_parse_rejects_email_string
FN:819,_RNvNtNtCs1ufPfM0GhR0_9api_bones5audit5testss_40principal_try_parse_rejects_empty_string
FN:983,_RNvNtNtCs1ufPfM0GhR0_9api_bones5audit5testss_44principal_parse_error_display_contains_input
FN:1003,_RNvNtNtCs1ufPfM0GhR0_9api_bones5audit5testss_44resolved_principal_new_and_display_with_name
FN:1011,_RNvNtNtCs1ufPfM0GhR0_9api_bones5audit5testss_45resolved_principal_display_falls_back_to_uuid
FN:1028,_RNvNtNtCs1ufPfM0GhR0_9api_bones5audit5testss_48resolved_principal_serde_omits_none_display_name
FN:851,_RNvNtNtCs1ufPfM0GhR0_9api_bones5audit5testss_53principal_equality_and_hash_across_owned_and_borrowed
FN:1040,_RNvNtNtCs1ufPfM0GhR0_9api_bones5audit5testss_55resolved_principal_serde_includes_display_name_when_set
FN:250,_RNCNvMs3_NtCs1ufPfM0GhR0_9api_bones5auditNtB7_9Principal9try_parse0B9_
FN:632,_RNCNvMsc_NtCs1ufPfM0GhR0_9api_bones5auditNtB7_17ResolvedPrincipal7display0B9_
FN:56,_RNvMNtCs1ufPfM0GhR0_9api_bones5auditNtB2_11PrincipalId10from_owned
FN:50,_RNvMNtCs1ufPfM0GhR0_9api_bones5auditNtB2_11PrincipalId10static_str
FN:62,_RNvMNtCs1ufPfM0GhR0_9api_bones5auditNtB2_11PrincipalId6as_str
FN:69,_RNvMNtCs1ufPfM0GhR0_9api_bones5auditNtB2_11PrincipalId9from_uuid
FN:304,_RNvMs3_NtCs1ufPfM0GhR0_9api_bones5auditNtB5_9Principal13with_org_path
FN:215,_RNvMs3_NtCs1ufPfM0GhR0_9api_bones5auditNtB5_9Principal5human
FN:285,_RNvMs3_NtCs1ufPfM0GhR0_9api_bones5auditNtB5_9Principal6as_str
FN:267,_RNvMs3_NtCs1ufPfM0GhR0_9api_bones5auditNtB5_9Principal6system
FN:246,_RNvMs3_NtCs1ufPfM0GhR0_9api_bones5auditNtB5_9Principal9try_parse
FN:512,_RNvMsb_NtCs1ufPfM0GhR0_9api_bones5auditNtB5_9AuditInfo3new
FN:547,_RNvMsb_NtCs1ufPfM0GhR0_9api_bones5auditNtB5_9AuditInfo3now
FN:575,_RNvMsb_NtCs1ufPfM0GhR0_9api_bones5auditNtB5_9AuditInfo5touch
FN:622,_RNvMsc_NtCs1ufPfM0GhR0_9api_bones5auditNtB5_17ResolvedPrincipal3new
FN:629,_RNvMsc_NtCs1ufPfM0GhR0_9api_bones5auditNtB5_17ResolvedPrincipal7display
FN:81,_RNvXs0_NtCs1ufPfM0GhR0_9api_bones5auditNtB5_11PrincipalIdNtNtCsbUtogaBoXXO_4core3fmt7Display3fmt
FN:118,_RNvXs1_NtCs1ufPfM0GhR0_9api_bones5auditNtB5_19PrincipalParseErrorNtNtCsbUtogaBoXXO_4core3fmt7Display3fmt
FN:311,_RNvXs4_NtCs1ufPfM0GhR0_9api_bones5auditNtB5_9PrincipalNtNtCsbUtogaBoXXO_4core3fmt7Display3fmt
FN:75,_RNvXs_NtCs1ufPfM0GhR0_9api_bones5auditNtB4_11PrincipalIdNtNtCsbUtogaBoXXO_4core3fmt5Debug3fmt
FN:637,_RNvXsd_NtCs1ufPfM0GhR0_9api_bones5auditNtB5_17ResolvedPrincipalINtNtCsbUtogaBoXXO_4core7convert4FromNtB5_9PrincipalE4from
FN:250,_RNCNvMs3_NtCs6zS5XWhHsrg_9api_bones5auditNtB7_9Principal9try_parse0B9_
FN:632,_RNCNvMsc_NtCs6zS5XWhHsrg_9api_bones5auditNtB7_17ResolvedPrincipal7display0B9_
FN:380,_RNCNvXs8_NtCs6zS5XWhHsrg_9api_bones5auditNtB7_9PrincipalNtNtNtCsdzzFRNBoJB7_8proptest9arbitrary6traits9Arbitrary14arbitrary_with0B9_
FN:412,_RNCNvXs9_NtCs6zS5XWhHsrg_9api_bones5auditNtB7_11PrincipalIdNtNtNtCsdzzFRNBoJB7_8proptest9arbitrary6traits9Arbitrary14arbitrary_with0B9_
FN:684,_RNCNvXsf_NtCs6zS5XWhHsrg_9api_bones5auditNtB7_9AuditInfoNtNtNtCsdzzFRNBoJB7_8proptest9arbitrary6traits9Arbitrary14arbitrary_with0B9_
FN:56,_RNvMNtCs6zS5XWhHsrg_9api_bones5auditNtB2_11PrincipalId10from_owned
FN:50,_RNvMNtCs6zS5XWhHsrg_9api_bones5auditNtB2_11PrincipalId10static_str
FN:62,_RNvMNtCs6zS5XWhHsrg_9api_bones5auditNtB2_11PrincipalId6as_str
FN:69,_RNvMNtCs6zS5XWhHsrg_9api_bones5auditNtB2_11PrincipalId9from_uuid
FN:304,_RNvMs3_NtCs6zS5XWhHsrg_9api_bones5auditNtB5_9Principal13with_org_path
FN:215,_RNvMs3_NtCs6zS5XWhHsrg_9api_bones5auditNtB5_9Principal5human
FN:285,_RNvMs3_NtCs6zS5XWhHsrg_9api_bones5auditNtB5_9Principal6as_str
FN:267,_RNvMs3_NtCs6zS5XWhHsrg_9api_bones5auditNtB5_9Principal6system
FN:246,_RNvMs3_NtCs6zS5XWhHsrg_9api_bones5auditNtB5_9Principal9try_parse
FN:512,_RNvMsb_NtCs6zS5XWhHsrg_9api_bones5auditNtB5_9AuditInfo3new
FN:547,_RNvMsb_NtCs6zS5XWhHsrg_9api_bones5auditNtB5_9AuditInfo3now
FN:575,_RNvMsb_NtCs6zS5XWhHsrg_9api_bones5auditNtB5_9AuditInfo5touch
FN:622,_RNvMsc_NtCs6zS5XWhHsrg_9api_bones5auditNtB5_17ResolvedPrincipal3new
FN:629,_RNvMsc_NtCs6zS5XWhHsrg_9api_bones5auditNtB5_17ResolvedPrincipal7display
FN:81,_RNvXs0_NtCs6zS5XWhHsrg_9api_bones5auditNtB5_11PrincipalIdNtNtCsbUtogaBoXXO_4core3fmt7Display3fmt
FN:118,_RNvXs1_NtCs6zS5XWhHsrg_9api_bones5auditNtB5_19PrincipalParseErrorNtNtCsbUtogaBoXXO_4core3fmt7Display3fmt
FN:311,_RNvXs4_NtCs6zS5XWhHsrg_9api_bones5auditNtB5_9PrincipalNtNtCsbUtogaBoXXO_4core3fmt7Display3fmt
FN:320,_RNvXs5_NtCs6zS5XWhHsrg_9api_bones5auditNtB5_9PrincipalNtCsbaNmgZyAOpq_9arbitrary9Arbitrary9arbitrary
FN:344,_RNvXs6_NtCs6zS5XWhHsrg_9api_bones5auditNtB5_11PrincipalIdNtCsbaNmgZyAOpq_9arbitrary9Arbitrary9arbitrary
FN:361,_RNvXs7_NtCs6zS5XWhHsrg_9api_bones5auditNtB5_13PrincipalKindNtCsbaNmgZyAOpq_9arbitrary9Arbitrary9arbitrary
FN:377,_RNvXs8_NtCs6zS5XWhHsrg_9api_bones5auditNtB5_9PrincipalNtNtNtCsdzzFRNBoJB7_8proptest9arbitrary6traits9Arbitrary14arbitrary_with
FN:409,_RNvXs9_NtCs6zS5XWhHsrg_9api_bones5auditNtB5_11PrincipalIdNtNtNtCsdzzFRNBoJB7_8proptest9arbitrary6traits9Arbitrary14arbitrary_with
FN:75,_RNvXs_NtCs6zS5XWhHsrg_9api_bones5auditNtB4_11PrincipalIdNtNtCsbUtogaBoXXO_4core3fmt5Debug3fmt
FN:434,_RNvXsa_NtCs6zS5XWhHsrg_9api_bones5auditNtB5_13PrincipalKindNtNtNtCsdzzFRNBoJB7_8proptest9arbitrary6traits9Arbitrary14arbitrary_with
FN:637,_RNvXsd_NtCs6zS5XWhHsrg_9api_bones5auditNtB5_17ResolvedPrincipalINtNtCsbUtogaBoXXO_4core7convert4FromNtB5_9PrincipalE4from
FN:653,_RNvXse_NtCs6zS5XWhHsrg_9api_bones5auditNtB5_9AuditInfoNtCsbaNmgZyAOpq_9arbitrary9Arbitrary9arbitrary
FN:675,_RNvXsf_NtCs6zS5XWhHsrg_9api_bones5auditNtB5_9AuditInfoNtNtNtCsdzzFRNBoJB7_8proptest9arbitrary6traits9Arbitrary14arbitrary_with
FNDA:0,_RNCNvXs8_NtCs1ufPfM0GhR0_9api_bones5auditNtB7_9PrincipalNtNtNtCsdzzFRNBoJB7_8proptest9arbitrary6traits9Arbitrary14arbitrary_with0B9_
FNDA:0,_RNCNvXs9_NtCs1ufPfM0GhR0_9api_bones5auditNtB7_11PrincipalIdNtNtNtCsdzzFRNBoJB7_8proptest9arbitrary6traits9Arbitrary14arbitrary_with0B9_
FNDA:0,_RNCNvXsf_NtCs1ufPfM0GhR0_9api_bones5auditNtB7_9AuditInfoNtNtNtCsdzzFRNBoJB7_8proptest9arbitrary6traits9Arbitrary14arbitrary_with0B9_
FNDA:0,_RNvXs5_NtCs1ufPfM0GhR0_9api_bones5auditNtB5_9PrincipalNtCsbaNmgZyAOpq_9arbitrary9Arbitrary9arbitrary
FNDA:0,_RNvXs6_NtCs1ufPfM0GhR0_9api_bones5auditNtB5_11PrincipalIdNtCsbaNmgZyAOpq_9arbitrary9Arbitrary9arbitrary
FNDA:0,_RNvXs7_NtCs1ufPfM0GhR0_9api_bones5auditNtB5_13PrincipalKindNtCsbaNmgZyAOpq_9arbitrary9Arbitrary9arbitrary
FNDA:0,_RNvXs8_NtCs1ufPfM0GhR0_9api_bones5auditNtB5_9PrincipalNtNtNtCsdzzFRNBoJB7_8proptest9arbitrary6traits9Arbitrary14arbitrary_with
FNDA:0,_RNvXs9_NtCs1ufPfM0GhR0_9api_bones5auditNtB5_11PrincipalIdNtNtNtCsdzzFRNBoJB7_8proptest9arbitrary6traits9Arbitrary14arbitrary_with
FNDA:0,_RNvXsa_NtCs1ufPfM0GhR0_9api_bones5auditNtB5_13PrincipalKindNtNtNtCsdzzFRNBoJB7_8proptest9arbitrary6traits9Arbitrary14arbitrary_with
FNDA:0,_RNvXse_NtCs1ufPfM0GhR0_9api_bones5auditNtB5_9AuditInfoNtCsbaNmgZyAOpq_9arbitrary9Arbitrary9arbitrary
FNDA:0,_RNvXsf_NtCs1ufPfM0GhR0_9api_bones5auditNtB5_9AuditInfoNtNtNtCsdzzFRNBoJB7_8proptest9arbitrary6traits9Arbitrary14arbitrary_with
FNDA:1,_RNvNtNtCs1ufPfM0GhR0_9api_bones5audit5testss_15new_constructor
FNDA:1,_RNvNtNtCs1ufPfM0GhR0_9api_bones5audit5testss_20principal_id_display
FNDA:1,_RNvNtNtCs1ufPfM0GhR0_9api_bones5audit5testss_22principal_id_from_uuid
FNDA:1,_RNvNtNtCs1ufPfM0GhR0_9api_bones5audit5testss_23principal_id_from_owned
FNDA:1,_RNvNtNtCs1ufPfM0GhR0_9api_bones5audit5testss_23principal_id_static_str
FNDA:1,_RNvNtNtCs1ufPfM0GhR0_9api_bones5audit5testss_25now_with_system_principal
FNDA:1,_RNvNtNtCs1ufPfM0GhR0_9api_bones5audit5testss_25principal_clone_roundtrip
FNDA:1,_RNvNtNtCs1ufPfM0GhR0_9api_bones5audit5testss_26principal_kind_copy_and_eq
FNDA:1,_RNvNtNtCs1ufPfM0GhR0_9api_bones5audit5testss_27principal_kind_all_variants
FNDA:1,_RNvNtNtCs1ufPfM0GhR0_9api_bones5audit5testss_29principal_human_has_user_kind
FNDA:1,_RNvNtNtCs1ufPfM0GhR0_9api_bones5audit5testss_30principal_id_serde_transparent
FNDA:1,_RNvNtNtCs1ufPfM0GhR0_9api_bones5audit5testss_31principal_as_str_returns_id_str
FNDA:1,_RNvNtNtCs1ufPfM0GhR0_9api_bones5audit5testss_31principal_debug_is_not_redacted
FNDA:1,_RNvNtNtCs1ufPfM0GhR0_9api_bones5audit5testss_31principal_with_org_path_builder
FNDA:1,_RNvNtNtCs1ufPfM0GhR0_9api_bones5audit5testss_32principal_system_has_system_kind
FNDA:1,_RNvNtNtCs1ufPfM0GhR0_9api_bones5audit5testss_33principal_serde_includes_org_path
FNDA:1,_RNvNtNtCs1ufPfM0GhR0_9api_bones5audit5testss_33resolved_principal_from_principal
FNDA:1,_RNvNtNtCs1ufPfM0GhR0_9api_bones5audit5testss_34now_sets_created_at_and_updated_at
FNDA:1,_RNvNtNtCs1ufPfM0GhR0_9api_bones5audit5testss_34principal_human_has_empty_org_path
FNDA:1,_RNvNtNtCs1ufPfM0GhR0_9api_bones5audit5testss_34principal_parse_error_is_std_error
FNDA:1,_RNvNtNtCs1ufPfM0GhR0_9api_bones5audit5testss_34principal_try_parse_sets_user_kind
FNDA:1,_RNvNtNtCs1ufPfM0GhR0_9api_bones5audit5testss_34serde_round_trip_with_system_actor
FNDA:1,_RNvNtNtCs1ufPfM0GhR0_9api_bones5audit5testss_35principal_system_has_empty_org_path
FNDA:1,_RNvNtNtCs1ufPfM0GhR0_9api_bones5audit5testss_36principal_display_forwards_to_as_str
FNDA:1,_RNvNtNtCs1ufPfM0GhR0_9api_bones5audit5testss_37serde_actor_fields_are_always_present
FNDA:1,_RNvNtNtCs1ufPfM0GhR0_9api_bones5audit5testss_38principal_serde_struct_roundtrip_human
FNDA:1,_RNvNtNtCs1ufPfM0GhR0_9api_bones5audit5testss_38principal_try_parse_accepts_valid_uuid
FNDA:1,_RNvNtNtCs1ufPfM0GhR0_9api_bones5audit5testss_39principal_serde_struct_roundtrip_system
FNDA:1,_RNvNtNtCs1ufPfM0GhR0_9api_bones5audit5testss_39touch_updates_updated_at_and_updated_by
FNDA:1,_RNvNtNtCs1ufPfM0GhR0_9api_bones5audit5testss_40principal_try_parse_rejects_email_string
FNDA:1,_RNvNtNtCs1ufPfM0GhR0_9api_bones5audit5testss_40principal_try_parse_rejects_empty_string
FNDA:1,_RNvNtNtCs1ufPfM0GhR0_9api_bones5audit5testss_44principal_parse_error_display_contains_input
FNDA:1,_RNvNtNtCs1ufPfM0GhR0_9api_bones5audit5testss_44resolved_principal_new_and_display_with_name
FNDA:1,_RNvNtNtCs1ufPfM0GhR0_9api_bones5audit5testss_45resolved_principal_display_falls_back_to_uuid
FNDA:1,_RNvNtNtCs1ufPfM0GhR0_9api_bones5audit5testss_48resolved_principal_serde_omits_none_display_name
FNDA:1,_RNvNtNtCs1ufPfM0GhR0_9api_bones5audit5testss_53principal_equality_and_hash_across_owned_and_borrowed
FNDA:1,_RNvNtNtCs1ufPfM0GhR0_9api_bones5audit5testss_55resolved_principal_serde_includes_display_name_when_set
FNDA:2,_RNCNvMs3_NtCs1ufPfM0GhR0_9api_bones5auditNtB7_9Principal9try_parse0B9_
FNDA:1,_RNCNvMsc_NtCs1ufPfM0GhR0_9api_bones5auditNtB7_17ResolvedPrincipal7display0B9_
FNDA:1,_RNvMNtCs1ufPfM0GhR0_9api_bones5auditNtB2_11PrincipalId10from_owned
FNDA:25,_RNvMNtCs1ufPfM0GhR0_9api_bones5auditNtB2_11PrincipalId10static_str
FNDA:11,_RNvMNtCs1ufPfM0GhR0_9api_bones5auditNtB2_11PrincipalId6as_str
FNDA:17,_RNvMNtCs1ufPfM0GhR0_9api_bones5auditNtB2_11PrincipalId9from_uuid
FNDA:1,_RNvMs3_NtCs1ufPfM0GhR0_9api_bones5auditNtB5_9Principal13with_org_path
FNDA:16,_RNvMs3_NtCs1ufPfM0GhR0_9api_bones5auditNtB5_9Principal5human
FNDA:5,_RNvMs3_NtCs1ufPfM0GhR0_9api_bones5auditNtB5_9Principal6as_str
FNDA:22,_RNvMs3_NtCs1ufPfM0GhR0_9api_bones5auditNtB5_9Principal6system
FNDA:4,_RNvMs3_NtCs1ufPfM0GhR0_9api_bones5auditNtB5_9Principal9try_parse
FNDA:1,_RNvMsb_NtCs1ufPfM0GhR0_9api_bones5auditNtB5_9AuditInfo3new
FNDA:5,_RNvMsb_NtCs1ufPfM0GhR0_9api_bones5auditNtB5_9AuditInfo3now
FNDA:1,_RNvMsb_NtCs1ufPfM0GhR0_9api_bones5auditNtB5_9AuditInfo5touch
FNDA:3,_RNvMsc_NtCs1ufPfM0GhR0_9api_bones5auditNtB5_17ResolvedPrincipal3new
FNDA:2,_RNvMsc_NtCs1ufPfM0GhR0_9api_bones5auditNtB5_17ResolvedPrincipal7display
FNDA:1,_RNvXs0_NtCs1ufPfM0GhR0_9api_bones5auditNtB5_11PrincipalIdNtNtCsbUtogaBoXXO_4core3fmt7Display3fmt
FNDA:2,_RNvXs1_NtCs1ufPfM0GhR0_9api_bones5auditNtB5_19PrincipalParseErrorNtNtCsbUtogaBoXXO_4core3fmt7Display3fmt
FNDA:1,_RNvXs4_NtCs1ufPfM0GhR0_9api_bones5auditNtB5_9PrincipalNtNtCsbUtogaBoXXO_4core3fmt7Display3fmt
FNDA:2,_RNvXs_NtCs1ufPfM0GhR0_9api_bones5auditNtB4_11PrincipalIdNtNtCsbUtogaBoXXO_4core3fmt5Debug3fmt
FNDA:2,_RNvXsd_NtCs1ufPfM0GhR0_9api_bones5auditNtB5_17ResolvedPrincipalINtNtCsbUtogaBoXXO_4core7convert4FromNtB5_9PrincipalE4from
FNDA:0,_RNCNvMs3_NtCs6zS5XWhHsrg_9api_bones5auditNtB7_9Principal9try_parse0B9_
FNDA:0,_RNCNvMsc_NtCs6zS5XWhHsrg_9api_bones5auditNtB7_17ResolvedPrincipal7display0B9_
FNDA:768,_RNCNvXs8_NtCs6zS5XWhHsrg_9api_bones5auditNtB7_9PrincipalNtNtNtCsdzzFRNBoJB7_8proptest9arbitrary6traits9Arbitrary14arbitrary_with0B9_
FNDA:0,_RNCNvXs9_NtCs6zS5XWhHsrg_9api_bones5auditNtB7_11PrincipalIdNtNtNtCsdzzFRNBoJB7_8proptest9arbitrary6traits9Arbitrary14arbitrary_with0B9_
FNDA:256,_RNCNvXsf_NtCs6zS5XWhHsrg_9api_bones5auditNtB7_9AuditInfoNtNtNtCsdzzFRNBoJB7_8proptest9arbitrary6traits9Arbitrary14arbitrary_with0B9_
FNDA:0,_RNvMNtCs6zS5XWhHsrg_9api_bones5auditNtB2_11PrincipalId10from_owned
FNDA:0,_RNvMNtCs6zS5XWhHsrg_9api_bones5auditNtB2_11PrincipalId10static_str
FNDA:400,_RNvMNtCs6zS5XWhHsrg_9api_bones5auditNtB2_11PrincipalId6as_str
FNDA:4468,_RNvMNtCs6zS5XWhHsrg_9api_bones5auditNtB2_11PrincipalId9from_uuid
FNDA:0,_RNvMs3_NtCs6zS5XWhHsrg_9api_bones5auditNtB5_9Principal13with_org_path
FNDA:4468,_RNvMs3_NtCs6zS5XWhHsrg_9api_bones5auditNtB5_9Principal5human
FNDA:400,_RNvMs3_NtCs6zS5XWhHsrg_9api_bones5auditNtB5_9Principal6as_str
FNDA:0,_RNvMs3_NtCs6zS5XWhHsrg_9api_bones5auditNtB5_9Principal6system
FNDA:0,_RNvMs3_NtCs6zS5XWhHsrg_9api_bones5auditNtB5_9Principal9try_parse
FNDA:0,_RNvMsb_NtCs6zS5XWhHsrg_9api_bones5auditNtB5_9AuditInfo3new
FNDA:0,_RNvMsb_NtCs6zS5XWhHsrg_9api_bones5auditNtB5_9AuditInfo3now
FNDA:0,_RNvMsb_NtCs6zS5XWhHsrg_9api_bones5auditNtB5_9AuditInfo5touch
FNDA:0,_RNvMsc_NtCs6zS5XWhHsrg_9api_bones5auditNtB5_17ResolvedPrincipal3new
FNDA:0,_RNvMsc_NtCs6zS5XWhHsrg_9api_bones5auditNtB5_17ResolvedPrincipal7display
FNDA:0,_RNvXs0_NtCs6zS5XWhHsrg_9api_bones5auditNtB5_11PrincipalIdNtNtCsbUtogaBoXXO_4core3fmt7Display3fmt
FNDA:0,_RNvXs1_NtCs6zS5XWhHsrg_9api_bones5auditNtB5_19PrincipalParseErrorNtNtCsbUtogaBoXXO_4core3fmt7Display3fmt
FNDA:200,_RNvXs4_NtCs6zS5XWhHsrg_9api_bones5auditNtB5_9PrincipalNtNtCsbUtogaBoXXO_4core3fmt7Display3fmt
FNDA:3000,_RNvXs5_NtCs6zS5XWhHsrg_9api_bones5auditNtB5_9PrincipalNtCsbaNmgZyAOpq_9arbitrary9Arbitrary9arbitrary
FNDA:0,_RNvXs6_NtCs6zS5XWhHsrg_9api_bones5auditNtB5_11PrincipalIdNtCsbaNmgZyAOpq_9arbitrary9Arbitrary9arbitrary
FNDA:0,_RNvXs7_NtCs6zS5XWhHsrg_9api_bones5auditNtB5_13PrincipalKindNtCsbaNmgZyAOpq_9arbitrary9Arbitrary9arbitrary
FNDA:3,_RNvXs8_NtCs6zS5XWhHsrg_9api_bones5auditNtB5_9PrincipalNtNtNtCsdzzFRNBoJB7_8proptest9arbitrary6traits9Arbitrary14arbitrary_with
FNDA:0,_RNvXs9_NtCs6zS5XWhHsrg_9api_bones5auditNtB5_11PrincipalIdNtNtNtCsdzzFRNBoJB7_8proptest9arbitrary6traits9Arbitrary14arbitrary_with
FNDA:0,_RNvXs_NtCs6zS5XWhHsrg_9api_bones5auditNtB4_11PrincipalIdNtNtCsbUtogaBoXXO_4core3fmt5Debug3fmt
FNDA:0,_RNvXsa_NtCs6zS5XWhHsrg_9api_bones5auditNtB5_13PrincipalKindNtNtNtCsdzzFRNBoJB7_8proptest9arbitrary6traits9Arbitrary14arbitrary_with
FNDA:0,_RNvXsd_NtCs6zS5XWhHsrg_9api_bones5auditNtB5_17ResolvedPrincipalINtNtCsbUtogaBoXXO_4core7convert4FromNtB5_9PrincipalE4from
FNDA:1000,_RNvXse_NtCs6zS5XWhHsrg_9api_bones5auditNtB5_9AuditInfoNtCsbaNmgZyAOpq_9arbitrary9Arbitrary9arbitrary
FNDA:1,_RNvXsf_NtCs6zS5XWhHsrg_9api_bones5auditNtB5_9AuditInfoNtNtNtCsdzzFRNBoJB7_8proptest9arbitrary6traits9Arbitrary14arbitrary_with
FNF:69
FNH:64
DA:50,25
DA:51,25
DA:52,25
DA:56,1
DA:57,1
DA:58,1
DA:62,411
DA:63,411
DA:64,411
DA:69,4485
DA:70,4485
DA:71,4485
DA:75,2
DA:76,2
DA:77,2
DA:81,1
DA:82,1
DA:83,1
DA:118,2
DA:119,2
DA:120,2
DA:124,2
DA:215,4484
DA:216,4484
DA:217,4484
DA:218,4484
DA:219,4484
DA:220,4484
DA:221,4484
DA:246,4
DA:247,4
DA:248,4
DA:249,4
DA:250,2
DA:251,2
DA:252,4
DA:267,22
DA:268,22
DA:269,22
DA:270,22
DA:271,22
DA:272,22
DA:273,22
DA:285,405
DA:286,405
DA:287,405
DA:304,1
DA:305,1
DA:306,1
DA:307,1
DA:311,201
DA:312,201
DA:313,201
DA:320,3000
DA:321,3000
DA:322,3000
DA:323,3000
DA:344,0
DA:345,0
DA:346,0
DA:347,0
DA:361,0
DA:362,0
DA:363,0
DA:364,0
DA:365,0
DA:367,0
DA:377,3
DA:379,3
DA:380,768
DA:381,3
DA:382,3
DA:409,0
DA:411,0
DA:412,0
DA:413,0
DA:414,0
DA:434,0
DA:436,0
DA:437,0
DA:512,1
DA:513,1
DA:514,1
DA:515,1
DA:516,1
DA:517,1
DA:518,1
DA:519,1
DA:520,1
DA:521,1
DA:522,1
DA:523,1
DA:524,1
DA:547,5
DA:548,5
DA:549,5
DA:550,5
DA:551,5
DA:552,5
DA:553,5
DA:554,5
DA:555,5
DA:556,5
DA:575,1
DA:576,1
DA:577,1
DA:578,1
DA:622,3
DA:623,3
DA:624,3
DA:629,2
DA:630,2
DA:631,2
DA:632,2
DA:633,2
DA:637,2
DA:638,2
DA:639,2
DA:640,2
DA:641,2
DA:642,2
DA:653,1000
DA:655,1000
DA:656,1000
DA:657,1000
DA:658,1000
DA:659,1000
DA:660,1000
DA:662,1000
DA:663,1000
DA:664,1000
DA:665,1000
DA:667,1000
DA:675,1
DA:677,1
DA:678,1
DA:679,1
DA:680,1
DA:681,1
DA:682,1
DA:683,1
DA:684,256
DA:685,256
DA:686,256
DA:687,256
DA:688,256
DA:689,256
DA:690,256
DA:691,1
DA:692,1
DA:708,1
DA:709,1
DA:710,1
DA:711,1
DA:714,1
DA:715,1
DA:716,1
DA:717,1
DA:721,1
DA:722,1
DA:723,1
DA:724,1
DA:727,1
DA:728,1
DA:729,1
DA:730,1
DA:734,1
DA:735,1
DA:736,1
DA:737,1
DA:738,1
DA:739,1
DA:740,1
DA:745,1
DA:746,1
DA:747,1
DA:748,1
DA:749,1
DA:752,1
DA:753,1
DA:754,1
DA:755,1
DA:756,1
DA:762,1
DA:763,1
DA:764,1
DA:765,1
DA:769,1
DA:770,1
DA:771,1
DA:772,1
DA:775,1
DA:776,1
DA:777,1
DA:778,1
DA:781,1
DA:782,1
DA:783,1
DA:784,1
DA:787,1
DA:788,1
DA:789,1
DA:790,1
DA:791,1
DA:792,1
DA:796,1
DA:797,1
DA:798,1
DA:799,1
DA:800,1
DA:804,1
DA:805,1
DA:806,1
DA:807,1
DA:811,1
DA:812,1
DA:813,1
DA:814,1
DA:815,1
DA:819,1
DA:820,1
DA:821,1
DA:822,1
DA:825,1
DA:826,1
DA:827,1
DA:828,1
DA:832,1
DA:833,1
DA:834,1
DA:835,1
DA:836,1
DA:840,1
DA:841,1
DA:842,1
DA:843,1
DA:844,1
DA:847,1
DA:848,1
DA:851,1
DA:855,1
DA:856,1
DA:857,1
DA:859,1
DA:860,1
DA:861,1
DA:862,1
DA:863,1
DA:864,1
DA:868,1
DA:869,1
DA:870,1
DA:871,1
DA:872,1
DA:876,1
DA:877,1
DA:878,1
DA:879,1
DA:880,1
DA:881,1
DA:885,1
DA:886,1
DA:887,1
DA:888,1
DA:889,1
DA:890,1
DA:894,1
DA:895,1
DA:896,1
DA:897,1
DA:898,1
DA:904,1
DA:905,1
DA:906,1
DA:907,1
DA:908,1
DA:910,1
DA:911,1
DA:912,1
DA:913,1
DA:914,1
DA:918,1
DA:919,1
DA:920,1
DA:921,1
DA:922,1
DA:923,1
DA:927,1
DA:928,1
DA:929,1
DA:930,1
DA:931,1
DA:932,1
DA:934,1
DA:935,1
DA:936,1
DA:940,1
DA:941,1
DA:942,1
DA:943,1
DA:944,1
DA:945,1
DA:946,1
DA:947,1
DA:948,1
DA:949,1
DA:953,1
DA:954,1
DA:955,1
DA:956,1
DA:957,1
DA:958,1
DA:962,1
DA:963,1
DA:964,1
DA:965,1
DA:966,1
DA:969,1
DA:970,1
DA:974,1
DA:975,1
DA:976,1
DA:978,1
DA:983,1
DA:984,1
DA:985,1
DA:986,1
DA:987,1
DA:988,1
DA:992,1
DA:993,1
DA:994,1
DA:995,1
DA:996,1
DA:997,1
DA:1003,1
DA:1004,1
DA:1005,1
DA:1006,1
DA:1007,1
DA:1011,1
DA:1012,1
DA:1013,1
DA:1014,1
DA:1015,1
DA:1019,1
DA:1020,1
DA:1021,1
DA:1022,1
DA:1023,1
DA:1024,1
DA:1028,1
DA:1029,1
DA:1030,1
DA:1031,1
DA:1032,1
DA:1033,1
DA:1036,1
DA:1040,1
DA:1041,1
DA:1042,1
DA:1043,1
DA:1044,1
DA:1045,1
BRF:0
BRH:0
LF:367
LH:348
end_of_record
SF:/Users/gsalingu/git/api-bones/.claude/worktrees/feat+211-nested-org-adr/src/auth.rs
FN:741,_RNvXsq_NtCs1ufPfM0GhR0_9api_bones4authNtNtCsipk7xt2ATo7_5alloc6string6StringINtNtCsbUtogaBoXXO_4core7convert4FromNtB5_5ScopeE4from
FN:1139,_RNvNtNtCs1ufPfM0GhR0_9api_bones4auth5testss_10api_key_eq
FN:1093,_RNvNtNtCs1ufPfM0GhR0_9api_bones4auth5testss_10scope_iter
FN:1000,_RNvNtNtCs1ufPfM0GhR0_9api_bones4auth5testss_11scope_empty
FN:1026,_RNvNtNtCs1ufPfM0GhR0_9api_bones4auth5testss_11scope_union
FN:897,_RNvNtNtCs1ufPfM0GhR0_9api_bones4auth5testss_12parse_apikey
FN:877,_RNvNtNtCs1ufPfM0GhR0_9api_bones4auth5testss_12parse_bearer
FN:907,_RNvNtNtCs1ufPfM0GhR0_9api_bones4auth5testss_12parse_oauth2
FN:840,_RNvNtNtCs1ufPfM0GhR0_9api_bones4auth5testss_14api_key_as_str
FN:1121,_RNvNtNtCs1ufPfM0GhR0_9api_bones4auth5testss_15bearer_token_eq
FN:1148,_RNvNtNtCs1ufPfM0GhR0_9api_bones4auth5testss_15oauth2_token_eq
FN:960,_RNvNtNtCs1ufPfM0GhR0_9api_bones4auth5testss_16permission_valid
FN:913,_RNvNtNtCs1ufPfM0GhR0_9api_bones4auth5testss_18parse_other_scheme
FN:1006,_RNvNtNtCs1ufPfM0GhR0_9api_bones4auth5testss_18scope_deduplicates
FN:1036,_RNvNtNtCs1ufPfM0GhR0_9api_bones4auth5testss_18scope_intersection
FN:1012,_RNvNtNtCs1ufPfM0GhR0_9api_bones4auth5testss_18scope_is_subset_of
FN:768,_RNvNtNtCs1ufPfM0GhR0_9api_bones4auth5testss_19auth_scheme_display
FN:796,_RNvNtNtCs1ufPfM0GhR0_9api_bones4auth5testss_19bearer_token_as_str
FN:858,_RNvNtNtCs1ufPfM0GhR0_9api_bones4auth5testss_19oauth2_token_fields
FN:1130,_RNvNtNtCs1ufPfM0GhR0_9api_bones4auth5testss_20basic_credentials_eq
FN:810,_RNvNtNtCs1ufPfM0GhR0_9api_bones4auth5testss_20bearer_token_display
FN:920,_RNvNtNtCs1ufPfM0GhR0_9api_bones4auth5testss_20parse_empty_is_error
FN:846,_RNvNtNtCs1ufPfM0GhR0_9api_bones4auth5testss_21api_key_debug_redacts
FN:884,_RNvNtNtCs1ufPfM0GhR0_9api_bones4auth5testss_21parse_basic_roundtrip
FN:1053,_RNvNtNtCs1ufPfM0GhR0_9api_bones4auth5testss_21scope_serde_roundtrip
FN:1100,_RNvNtNtCs1ufPfM0GhR0_9api_bones4auth5testss_21scope_try_from_string
FN:1074,_RNvNtNtCs1ufPfM0GhR0_9api_bones4auth5testss_22scope_from_permissions
FN:1046,_RNvNtNtCs1ufPfM0GhR0_9api_bones4auth5testss_23scope_display_is_sorted
FN:1086,_RNvNtNtCs1ufPfM0GhR0_9api_bones4auth5testss_23scope_empty_constructor
FN:991,_RNvNtNtCs1ufPfM0GhR0_9api_bones4auth5testss_23scope_parse_and_display
FN:820,_RNvNtNtCs1ufPfM0GhR0_9api_bones4auth5testss_24basic_credentials_fields
FN:1231,_RNvNtNtCs1ufPfM0GhR0_9api_bones4auth5testss_25parse_scope_error_display
FN:966,_RNvNtNtCs1ufPfM0GhR0_9api_bones4auth5testss_25permission_empty_is_error
FN:778,_RNvNtNtCs1ufPfM0GhR0_9api_bones4auth5testss_26auth_scheme_from_str_known
FN:802,_RNvNtNtCs1ufPfM0GhR0_9api_bones4auth5testss_26bearer_token_debug_redacts
FN:865,_RNvNtNtCs1ufPfM0GhR0_9api_bones4auth5testss_26oauth2_token_debug_redacts
FN:1110,_RNvNtNtCs1ufPfM0GhR0_9api_bones4auth5testss_26oauth2_token_no_token_type
FN:786,_RNvNtNtCs1ufPfM0GhR0_9api_bones4auth5testss_27auth_scheme_from_str_custom
FN:1062,_RNvNtNtCs1ufPfM0GhR0_9api_bones4auth5testss_28bearer_token_serde_roundtrip
FN:1020,_RNvNtNtCs1ufPfM0GhR0_9api_bones4auth5testss_28scope_self_is_subset_of_self
FN:936,_RNvNtNtCs1ufPfM0GhR0_9api_bones4auth5testss_29parse_invalid_base64_is_error
FN:1221,_RNvNtNtCs1ufPfM0GhR0_9api_bones4auth5testss_30parse_permission_error_display
FN:971,_RNvNtNtCs1ufPfM0GhR0_9api_bones4auth5testss_30permission_whitespace_is_error
FN:1180,_RNvNtNtCs1ufPfM0GhR0_9api_bones4auth5testss_33parse_authorization_error_display
FN:1205,_RNvNtNtCs1ufPfM0GhR0_9api_bones4auth5testss_33parse_basic_invalid_utf8_is_error
FN:944,_RNvNtNtCs1ufPfM0GhR0_9api_bones4auth5testss_34parse_basic_missing_colon_is_error
FN:928,_RNvNtNtCs1ufPfM0GhR0_9api_bones4auth5testss_34parse_missing_credentials_is_error
FN:1161,_RNvNtNtCs1ufPfM0GhR0_9api_bones4auth5testss_40authorization_header_scheme_all_variants
FN:827,_RNvNtNtCs1ufPfM0GhR0_9api_bones4auth5testss_40basic_credentials_debug_redacts_password
FN:979,_RNvNtNtCs1ufPfM0GhR0_9api_bones4auth5testss_41permission_display_and_from_str_roundtrip
FN:148,_RINvMs0_NtCs1ufPfM0GhR0_9api_bones4authNtB6_11BearerToken3newReEB8_
FN:204,_RINvMs5_NtCs1ufPfM0GhR0_9api_bones4authNtB6_16BasicCredentials3newReB12_EB8_
FN:260,_RINvMs9_NtCs1ufPfM0GhR0_9api_bones4authNtB6_17ApiKeyCredentials3newReEB8_
FN:310,_RINvMsd_NtCs1ufPfM0GhR0_9api_bones4authNtB6_11OAuth2Token3newReBX_EB8_
FN:310,_RINvMsd_NtCs1ufPfM0GhR0_9api_bones4authNtB6_11OAuth2Token3newReNtNtCsipk7xt2ATo7_5alloc6string6StringEB8_
FN:535,_RINvMsk_NtCs1ufPfM0GhR0_9api_bones4authNtB6_10Permission3newReEB8_
FN:612,_RINvMsn_NtCs1ufPfM0GhR0_9api_bones4authNtB6_5Scope16from_permissionsINtNtCsipk7xt2ATo7_5alloc3vec3VecNtB6_10PermissionEEB8_
FN:540,_RNCINvMsk_NtCs1ufPfM0GhR0_9api_bones4authNtB8_10Permission3newReE0Ba_
FN:689,_RNCNvMsn_NtCs1ufPfM0GhR0_9api_bones4authNtB7_5Scope12intersection0B9_
FN:654,_RNCNvMsn_NtCs1ufPfM0GhR0_9api_bones4authNtB7_5Scope12is_subset_of0B9_
FN:639,_RNCNvMsn_NtCs1ufPfM0GhR0_9api_bones4authNtB7_5Scope8contains0B9_
FN:475,_RNCNvXsj_NtCs1ufPfM0GhR0_9api_bones4authNtB7_19AuthorizationHeaderNtNtNtCsbUtogaBoXXO_4core3str6traits7FromStr8from_str0B9_
FN:154,_RNvMs0_NtCs1ufPfM0GhR0_9api_bones4authNtB5_11BearerToken6as_str
FN:219,_RNvMs5_NtCs1ufPfM0GhR0_9api_bones4authNtB5_16BasicCredentials8password
FN:213,_RNvMs5_NtCs1ufPfM0GhR0_9api_bones4authNtB5_16BasicCredentials8username
FN:266,_RNvMs9_NtCs1ufPfM0GhR0_9api_bones4authNtB5_17ApiKeyCredentials6as_str
FN:325,_RNvMsd_NtCs1ufPfM0GhR0_9api_bones4authNtB5_11OAuth2Token10token_type
FN:319,_RNvMsd_NtCs1ufPfM0GhR0_9api_bones4authNtB5_11OAuth2Token6as_str
FN:416,_RNvMsh_NtCs1ufPfM0GhR0_9api_bones4authNtB5_19AuthorizationHeader6scheme
FN:548,_RNvMsk_NtCs1ufPfM0GhR0_9api_bones4authNtB5_10Permission6as_str
FN:685,_RNvMsn_NtCs1ufPfM0GhR0_9api_bones4authNtB5_5Scope12intersection
FN:653,_RNvMsn_NtCs1ufPfM0GhR0_9api_bones4authNtB5_5Scope12is_subset_of
FN:618,_RNvMsn_NtCs1ufPfM0GhR0_9api_bones4authNtB5_5Scope3len
FN:696,_RNvMsn_NtCs1ufPfM0GhR0_9api_bones4authNtB5_5Scope4iter
FN:607,_RNvMsn_NtCs1ufPfM0GhR0_9api_bones4authNtB5_5Scope5empty
FN:669,_RNvMsn_NtCs1ufPfM0GhR0_9api_bones4authNtB5_5Scope5union
FN:638,_RNvMsn_NtCs1ufPfM0GhR0_9api_bones4authNtB5_5Scope8contains
FN:624,_RNvMsn_NtCs1ufPfM0GhR0_9api_bones4authNtB5_5Scope8is_empty
FN:98,_RNvXNtCs1ufPfM0GhR0_9api_bones4authNtB2_10AuthSchemeNtNtCsbUtogaBoXXO_4core3fmt7Display3fmt
FN:160,_RNvXs1_NtCs1ufPfM0GhR0_9api_bones4authNtB5_11BearerTokenNtNtCsbUtogaBoXXO_4core3fmt5Debug3fmt
FN:166,_RNvXs2_NtCs1ufPfM0GhR0_9api_bones4authNtB5_11BearerTokenNtNtCsbUtogaBoXXO_4core3fmt7Display3fmt
FN:172,_RNvXs3_NtCs1ufPfM0GhR0_9api_bones4authNtB5_11BearerTokenNtNtCsbUtogaBoXXO_4core3cmp9PartialEq2eq
FN:225,_RNvXs6_NtCs1ufPfM0GhR0_9api_bones4authNtB5_16BasicCredentialsNtNtCsbUtogaBoXXO_4core3fmt5Debug3fmt
FN:234,_RNvXs7_NtCs1ufPfM0GhR0_9api_bones4authNtB5_16BasicCredentialsNtNtCsbUtogaBoXXO_4core3cmp9PartialEq2eq
FN:113,_RNvXs_NtCs1ufPfM0GhR0_9api_bones4authNtB4_10AuthSchemeNtNtNtCsbUtogaBoXXO_4core3str6traits7FromStr8from_str
FN:272,_RNvXsa_NtCs1ufPfM0GhR0_9api_bones4authNtB5_17ApiKeyCredentialsNtNtCsbUtogaBoXXO_4core3fmt5Debug3fmt
FN:280,_RNvXsb_NtCs1ufPfM0GhR0_9api_bones4authNtB5_17ApiKeyCredentialsNtNtCsbUtogaBoXXO_4core3cmp9PartialEq2eq
FN:331,_RNvXse_NtCs1ufPfM0GhR0_9api_bones4authNtB5_11OAuth2TokenNtNtCsbUtogaBoXXO_4core3fmt5Debug3fmt
FN:340,_RNvXsf_NtCs1ufPfM0GhR0_9api_bones4authNtB5_11OAuth2TokenNtNtCsbUtogaBoXXO_4core3cmp9PartialEq2eq
FN:428,_RNvXsi_NtCs1ufPfM0GhR0_9api_bones4authNtB5_19AuthorizationHeaderNtNtCsbUtogaBoXXO_4core3fmt7Display3fmt
FN:456,_RNvXsj_NtCs1ufPfM0GhR0_9api_bones4authNtB5_19AuthorizationHeaderNtNtNtCsbUtogaBoXXO_4core3str6traits7FromStr8from_str
FN:554,_RNvXsl_NtCs1ufPfM0GhR0_9api_bones4authNtB5_10PermissionNtNtCsbUtogaBoXXO_4core3fmt7Display3fmt
FN:562,_RNvXsm_NtCs1ufPfM0GhR0_9api_bones4authNtB5_10PermissionNtNtNtCsbUtogaBoXXO_4core3str6traits7FromStr8from_str
FN:703,_RNvXso_NtCs1ufPfM0GhR0_9api_bones4authNtB5_5ScopeNtNtCsbUtogaBoXXO_4core3fmt7Display3fmt
FN:726,_RNvXsp_NtCs1ufPfM0GhR0_9api_bones4authNtB5_5ScopeNtNtNtCsbUtogaBoXXO_4core3str6traits7FromStr8from_str
FN:750,_RNvXsr_NtCs1ufPfM0GhR0_9api_bones4authNtB5_5ScopeINtNtCsbUtogaBoXXO_4core7convert7TryFromNtNtCsipk7xt2ATo7_5alloc6string6StringE8try_from
FN:612,_RINvMsn_NtCs6zS5XWhHsrg_9api_bones4authNtB6_5Scope16from_permissionspEB8_
FN:741,_RNvXsq_NtCs6zS5XWhHsrg_9api_bones4authNtNtCsipk7xt2ATo7_5alloc6string6StringINtNtCsbUtogaBoXXO_4core7convert4FromNtB5_5ScopeE4from
FN:154,_RNvMs0_NtCs6zS5XWhHsrg_9api_bones4authNtB5_11BearerToken6as_str
FN:219,_RNvMs5_NtCs6zS5XWhHsrg_9api_bones4authNtB5_16BasicCredentials8password
FN:213,_RNvMs5_NtCs6zS5XWhHsrg_9api_bones4authNtB5_16BasicCredentials8username
FN:266,_RNvMs9_NtCs6zS5XWhHsrg_9api_bones4authNtB5_17ApiKeyCredentials6as_str
FN:325,_RNvMsd_NtCs6zS5XWhHsrg_9api_bones4authNtB5_11OAuth2Token10token_type
FN:319,_RNvMsd_NtCs6zS5XWhHsrg_9api_bones4authNtB5_11OAuth2Token6as_str
FN:416,_RNvMsh_NtCs6zS5XWhHsrg_9api_bones4authNtB5_19AuthorizationHeader6scheme
FN:548,_RNvMsk_NtCs6zS5XWhHsrg_9api_bones4authNtB5_10Permission6as_str
FN:685,_RNvMsn_NtCs6zS5XWhHsrg_9api_bones4authNtB5_5Scope12intersection
FN:653,_RNvMsn_NtCs6zS5XWhHsrg_9api_bones4authNtB5_5Scope12is_subset_of
FN:618,_RNvMsn_NtCs6zS5XWhHsrg_9api_bones4authNtB5_5Scope3len
FN:696,_RNvMsn_NtCs6zS5XWhHsrg_9api_bones4authNtB5_5Scope4iter
FN:607,_RNvMsn_NtCs6zS5XWhHsrg_9api_bones4authNtB5_5Scope5empty
FN:669,_RNvMsn_NtCs6zS5XWhHsrg_9api_bones4authNtB5_5Scope5union
FN:638,_RNvMsn_NtCs6zS5XWhHsrg_9api_bones4authNtB5_5Scope8contains
FN:624,_RNvMsn_NtCs6zS5XWhHsrg_9api_bones4authNtB5_5Scope8is_empty
FN:98,_RNvXNtCs6zS5XWhHsrg_9api_bones4authNtB2_10AuthSchemeNtNtCsbUtogaBoXXO_4core3fmt7Display3fmt
FN:160,_RNvXs1_NtCs6zS5XWhHsrg_9api_bones4authNtB5_11BearerTokenNtNtCsbUtogaBoXXO_4core3fmt5Debug3fmt
FN:166,_RNvXs2_NtCs6zS5XWhHsrg_9api_bones4authNtB5_11BearerTokenNtNtCsbUtogaBoXXO_4core3fmt7Display3fmt
FN:172,_RNvXs3_NtCs6zS5XWhHsrg_9api_bones4authNtB5_11BearerTokenNtNtCsbUtogaBoXXO_4core3cmp9PartialEq2eq
FN:225,_RNvXs6_NtCs6zS5XWhHsrg_9api_bones4authNtB5_16BasicCredentialsNtNtCsbUtogaBoXXO_4core3fmt5Debug3fmt
FN:234,_RNvXs7_NtCs6zS5XWhHsrg_9api_bones4authNtB5_16BasicCredentialsNtNtCsbUtogaBoXXO_4core3cmp9PartialEq2eq
FN:113,_RNvXs_NtCs6zS5XWhHsrg_9api_bones4authNtB4_10AuthSchemeNtNtNtCsbUtogaBoXXO_4core3str6traits7FromStr8from_str
FN:272,_RNvXsa_NtCs6zS5XWhHsrg_9api_bones4authNtB5_17ApiKeyCredentialsNtNtCsbUtogaBoXXO_4core3fmt5Debug3fmt
FN:280,_RNvXsb_NtCs6zS5XWhHsrg_9api_bones4authNtB5_17ApiKeyCredentialsNtNtCsbUtogaBoXXO_4core3cmp9PartialEq2eq
FN:331,_RNvXse_NtCs6zS5XWhHsrg_9api_bones4authNtB5_11OAuth2TokenNtNtCsbUtogaBoXXO_4core3fmt5Debug3fmt
FN:340,_RNvXsf_NtCs6zS5XWhHsrg_9api_bones4authNtB5_11OAuth2TokenNtNtCsbUtogaBoXXO_4core3cmp9PartialEq2eq
FN:428,_RNvXsi_NtCs6zS5XWhHsrg_9api_bones4authNtB5_19AuthorizationHeaderNtNtCsbUtogaBoXXO_4core3fmt7Display3fmt
FN:456,_RNvXsj_NtCs6zS5XWhHsrg_9api_bones4authNtB5_19AuthorizationHeaderNtNtNtCsbUtogaBoXXO_4core3str6traits7FromStr8from_str
FN:554,_RNvXsl_NtCs6zS5XWhHsrg_9api_bones4authNtB5_10PermissionNtNtCsbUtogaBoXXO_4core3fmt7Display3fmt
FN:562,_RNvXsm_NtCs6zS5XWhHsrg_9api_bones4authNtB5_10PermissionNtNtNtCsbUtogaBoXXO_4core3str6traits7FromStr8from_str
FN:703,_RNvXso_NtCs6zS5XWhHsrg_9api_bones4authNtB5_5ScopeNtNtCsbUtogaBoXXO_4core3fmt7Display3fmt
FN:726,_RNvXsp_NtCs6zS5XWhHsrg_9api_bones4authNtB5_5ScopeNtNtNtCsbUtogaBoXXO_4core3str6traits7FromStr8from_str
FN:750,_RNvXsr_NtCs6zS5XWhHsrg_9api_bones4authNtB5_5ScopeINtNtCsbUtogaBoXXO_4core7convert7TryFromNtNtCsipk7xt2ATo7_5alloc6string6StringE8try_from
FN:148,_RINvMs0_NtCs6zS5XWhHsrg_9api_bones4authNtB6_11BearerToken3newReEB8_
FN:204,_RINvMs5_NtCs6zS5XWhHsrg_9api_bones4authNtB6_16BasicCredentials3newReB12_EB8_
FN:260,_RINvMs9_NtCs6zS5XWhHsrg_9api_bones4authNtB6_17ApiKeyCredentials3newReEB8_
FN:310,_RINvMsd_NtCs6zS5XWhHsrg_9api_bones4authNtB6_11OAuth2Token3newReNtNtCsipk7xt2ATo7_5alloc6string6StringEB8_
FN:535,_RINvMsk_NtCs6zS5XWhHsrg_9api_bones4authNtB6_10Permission3newReEB8_
FN:540,_RNCINvMsk_NtCs6zS5XWhHsrg_9api_bones4authNtB8_10Permission3newReE0Ba_
FN:689,_RNCNvMsn_NtCs6zS5XWhHsrg_9api_bones4authNtB7_5Scope12intersection0B9_
FN:654,_RNCNvMsn_NtCs6zS5XWhHsrg_9api_bones4authNtB7_5Scope12is_subset_of0B9_
FN:639,_RNCNvMsn_NtCs6zS5XWhHsrg_9api_bones4authNtB7_5Scope8contains0B9_
FN:475,_RNCNvXsj_NtCs6zS5XWhHsrg_9api_bones4authNtB7_19AuthorizationHeaderNtNtNtCsbUtogaBoXXO_4core3str6traits7FromStr8from_str0B9_
FN:310,_RINvMsd_NtCs6zS5XWhHsrg_9api_bones4authNtB6_11OAuth2Token3newReBX_ECs2fHIKKb8h0M_9auth_flow
FN:535,_RINvMsk_NtCs6zS5XWhHsrg_9api_bones4authNtB6_10Permission3newRReECs2fHIKKb8h0M_9auth_flow
FN:612,_RINvMsn_NtCs6zS5XWhHsrg_9api_bones4authNtB6_5Scope16from_permissionsINtNtCsipk7xt2ATo7_5alloc3vec3VecNtB6_10PermissionEECs2fHIKKb8h0M_9auth_flow
FN:540,_RNCINvMsk_NtCs6zS5XWhHsrg_9api_bones4authNtB8_10Permission3newRReE0Cs2fHIKKb8h0M_9auth_flow
FNDA:1,_RNvXsq_NtCs1ufPfM0GhR0_9api_bones4authNtNtCsipk7xt2ATo7_5alloc6string6StringINtNtCsbUtogaBoXXO_4core7convert4FromNtB5_5ScopeE4from
FNDA:1,_RNvNtNtCs1ufPfM0GhR0_9api_bones4auth5testss_10api_key_eq
FNDA:1,_RNvNtNtCs1ufPfM0GhR0_9api_bones4auth5testss_10scope_iter
FNDA:1,_RNvNtNtCs1ufPfM0GhR0_9api_bones4auth5testss_11scope_empty
FNDA:1,_RNvNtNtCs1ufPfM0GhR0_9api_bones4auth5testss_11scope_union
FNDA:1,_RNvNtNtCs1ufPfM0GhR0_9api_bones4auth5testss_12parse_apikey
FNDA:1,_RNvNtNtCs1ufPfM0GhR0_9api_bones4auth5testss_12parse_bearer
FNDA:1,_RNvNtNtCs1ufPfM0GhR0_9api_bones4auth5testss_12parse_oauth2
FNDA:1,_RNvNtNtCs1ufPfM0GhR0_9api_bones4auth5testss_14api_key_as_str
FNDA:1,_RNvNtNtCs1ufPfM0GhR0_9api_bones4auth5testss_15bearer_token_eq
FNDA:1,_RNvNtNtCs1ufPfM0GhR0_9api_bones4auth5testss_15oauth2_token_eq
FNDA:1,_RNvNtNtCs1ufPfM0GhR0_9api_bones4auth5testss_16permission_valid
FNDA:1,_RNvNtNtCs1ufPfM0GhR0_9api_bones4auth5testss_18parse_other_scheme
FNDA:1,_RNvNtNtCs1ufPfM0GhR0_9api_bones4auth5testss_18scope_deduplicates
FNDA:1,_RNvNtNtCs1ufPfM0GhR0_9api_bones4auth5testss_18scope_intersection
FNDA:1,_RNvNtNtCs1ufPfM0GhR0_9api_bones4auth5testss_18scope_is_subset_of
FNDA:1,_RNvNtNtCs1ufPfM0GhR0_9api_bones4auth5testss_19auth_scheme_display
FNDA:1,_RNvNtNtCs1ufPfM0GhR0_9api_bones4auth5testss_19bearer_token_as_str
FNDA:1,_RNvNtNtCs1ufPfM0GhR0_9api_bones4auth5testss_19oauth2_token_fields
FNDA:1,_RNvNtNtCs1ufPfM0GhR0_9api_bones4auth5testss_20basic_credentials_eq
FNDA:1,_RNvNtNtCs1ufPfM0GhR0_9api_bones4auth5testss_20bearer_token_display
FNDA:1,_RNvNtNtCs1ufPfM0GhR0_9api_bones4auth5testss_20parse_empty_is_error
FNDA:1,_RNvNtNtCs1ufPfM0GhR0_9api_bones4auth5testss_21api_key_debug_redacts
FNDA:1,_RNvNtNtCs1ufPfM0GhR0_9api_bones4auth5testss_21parse_basic_roundtrip
FNDA:1,_RNvNtNtCs1ufPfM0GhR0_9api_bones4auth5testss_21scope_serde_roundtrip
FNDA:1,_RNvNtNtCs1ufPfM0GhR0_9api_bones4auth5testss_21scope_try_from_string
FNDA:1,_RNvNtNtCs1ufPfM0GhR0_9api_bones4auth5testss_22scope_from_permissions
FNDA:1,_RNvNtNtCs1ufPfM0GhR0_9api_bones4auth5testss_23scope_display_is_sorted
FNDA:1,_RNvNtNtCs1ufPfM0GhR0_9api_bones4auth5testss_23scope_empty_constructor
FNDA:1,_RNvNtNtCs1ufPfM0GhR0_9api_bones4auth5testss_23scope_parse_and_display
FNDA:1,_RNvNtNtCs1ufPfM0GhR0_9api_bones4auth5testss_24basic_credentials_fields
FNDA:1,_RNvNtNtCs1ufPfM0GhR0_9api_bones4auth5testss_25parse_scope_error_display
FNDA:1,_RNvNtNtCs1ufPfM0GhR0_9api_bones4auth5testss_25permission_empty_is_error
FNDA:1,_RNvNtNtCs1ufPfM0GhR0_9api_bones4auth5testss_26auth_scheme_from_str_known
FNDA:1,_RNvNtNtCs1ufPfM0GhR0_9api_bones4auth5testss_26bearer_token_debug_redacts
FNDA:1,_RNvNtNtCs1ufPfM0GhR0_9api_bones4auth5testss_26oauth2_token_debug_redacts
FNDA:1,_RNvNtNtCs1ufPfM0GhR0_9api_bones4auth5testss_26oauth2_token_no_token_type
FNDA:1,_RNvNtNtCs1ufPfM0GhR0_9api_bones4auth5testss_27auth_scheme_from_str_custom
FNDA:1,_RNvNtNtCs1ufPfM0GhR0_9api_bones4auth5testss_28bearer_token_serde_roundtrip
FNDA:1,_RNvNtNtCs1ufPfM0GhR0_9api_bones4auth5testss_28scope_self_is_subset_of_self
FNDA:1,_RNvNtNtCs1ufPfM0GhR0_9api_bones4auth5testss_29parse_invalid_base64_is_error
FNDA:1,_RNvNtNtCs1ufPfM0GhR0_9api_bones4auth5testss_30parse_permission_error_display
FNDA:1,_RNvNtNtCs1ufPfM0GhR0_9api_bones4auth5testss_30permission_whitespace_is_error
FNDA:1,_RNvNtNtCs1ufPfM0GhR0_9api_bones4auth5testss_33parse_authorization_error_display
FNDA:1,_RNvNtNtCs1ufPfM0GhR0_9api_bones4auth5testss_33parse_basic_invalid_utf8_is_error
FNDA:1,_RNvNtNtCs1ufPfM0GhR0_9api_bones4auth5testss_34parse_basic_missing_colon_is_error
FNDA:1,_RNvNtNtCs1ufPfM0GhR0_9api_bones4auth5testss_34parse_missing_credentials_is_error
FNDA:1,_RNvNtNtCs1ufPfM0GhR0_9api_bones4auth5testss_40authorization_header_scheme_all_variants
FNDA:1,_RNvNtNtCs1ufPfM0GhR0_9api_bones4auth5testss_40basic_credentials_debug_redacts_password
FNDA:1,_RNvNtNtCs1ufPfM0GhR0_9api_bones4auth5testss_41permission_display_and_from_str_roundtrip
FNDA:10,_RINvMs0_NtCs1ufPfM0GhR0_9api_bones4authNtB6_11BearerToken3newReEB8_
FNDA:7,_RINvMs5_NtCs1ufPfM0GhR0_9api_bones4authNtB6_16BasicCredentials3newReB12_EB8_
FNDA:8,_RINvMs9_NtCs1ufPfM0GhR0_9api_bones4authNtB6_17ApiKeyCredentials3newReEB8_
FNDA:4,_RINvMsd_NtCs1ufPfM0GhR0_9api_bones4authNtB6_11OAuth2Token3newReBX_EB8_
FNDA:4,_RINvMsd_NtCs1ufPfM0GhR0_9api_bones4authNtB6_11OAuth2Token3newReNtNtCsipk7xt2ATo7_5alloc6string6StringEB8_
FNDA:38,_RINvMsk_NtCs1ufPfM0GhR0_9api_bones4authNtB6_10Permission3newReEB8_
FNDA:1,_RINvMsn_NtCs1ufPfM0GhR0_9api_bones4authNtB6_5Scope16from_permissionsINtNtCsipk7xt2ATo7_5alloc3vec3VecNtB6_10PermissionEEB8_
FNDA:155,_RNCINvMsk_NtCs1ufPfM0GhR0_9api_bones4authNtB8_10Permission3newReE0Ba_
FNDA:2,_RNCNvMsn_NtCs1ufPfM0GhR0_9api_bones4authNtB7_5Scope12intersection0B9_
FNDA:5,_RNCNvMsn_NtCs1ufPfM0GhR0_9api_bones4authNtB7_5Scope12is_subset_of0B9_
FNDA:15,_RNCNvMsn_NtCs1ufPfM0GhR0_9api_bones4authNtB7_5Scope8contains0B9_
FNDA:1,_RNCNvXsj_NtCs1ufPfM0GhR0_9api_bones4authNtB7_19AuthorizationHeaderNtNtNtCsbUtogaBoXXO_4core3str6traits7FromStr8from_str0B9_
FNDA:2,_RNvMs0_NtCs1ufPfM0GhR0_9api_bones4authNtB5_11BearerToken6as_str
FNDA:3,_RNvMs5_NtCs1ufPfM0GhR0_9api_bones4authNtB5_16BasicCredentials8password
FNDA:3,_RNvMs5_NtCs1ufPfM0GhR0_9api_bones4authNtB5_16BasicCredentials8username
FNDA:2,_RNvMs9_NtCs1ufPfM0GhR0_9api_bones4authNtB5_17ApiKeyCredentials6as_str
FNDA:2,_RNvMsd_NtCs1ufPfM0GhR0_9api_bones4authNtB5_11OAuth2Token10token_type
FNDA:3,_RNvMsd_NtCs1ufPfM0GhR0_9api_bones4authNtB5_11OAuth2Token6as_str
FNDA:5,_RNvMsh_NtCs1ufPfM0GhR0_9api_bones4authNtB5_19AuthorizationHeader6scheme
FNDA:24,_RNvMsk_NtCs1ufPfM0GhR0_9api_bones4authNtB5_10Permission6as_str
FNDA:1,_RNvMsn_NtCs1ufPfM0GhR0_9api_bones4authNtB5_5Scope12intersection
FNDA:3,_RNvMsn_NtCs1ufPfM0GhR0_9api_bones4authNtB5_5Scope12is_subset_of
FNDA:6,_RNvMsn_NtCs1ufPfM0GhR0_9api_bones4authNtB5_5Scope3len
FNDA:1,_RNvMsn_NtCs1ufPfM0GhR0_9api_bones4authNtB5_5Scope4iter
FNDA:2,_RNvMsn_NtCs1ufPfM0GhR0_9api_bones4authNtB5_5Scope5empty
FNDA:1,_RNvMsn_NtCs1ufPfM0GhR0_9api_bones4authNtB5_5Scope5union
FNDA:10,_RNvMsn_NtCs1ufPfM0GhR0_9api_bones4authNtB5_5Scope8contains
FNDA:2,_RNvMsn_NtCs1ufPfM0GhR0_9api_bones4authNtB5_5Scope8is_empty
FNDA:6,_RNvXNtCs1ufPfM0GhR0_9api_bones4authNtB2_10AuthSchemeNtNtCsbUtogaBoXXO_4core3fmt7Display3fmt
FNDA:1,_RNvXs1_NtCs1ufPfM0GhR0_9api_bones4authNtB5_11BearerTokenNtNtCsbUtogaBoXXO_4core3fmt5Debug3fmt
FNDA:1,_RNvXs2_NtCs1ufPfM0GhR0_9api_bones4authNtB5_11BearerTokenNtNtCsbUtogaBoXXO_4core3fmt7Display3fmt
FNDA:4,_RNvXs3_NtCs1ufPfM0GhR0_9api_bones4authNtB5_11BearerTokenNtNtCsbUtogaBoXXO_4core3cmp9PartialEq2eq
FNDA:1,_RNvXs6_NtCs1ufPfM0GhR0_9api_bones4authNtB5_16BasicCredentialsNtNtCsbUtogaBoXXO_4core3fmt5Debug3fmt
FNDA:2,_RNvXs7_NtCs1ufPfM0GhR0_9api_bones4authNtB5_16BasicCredentialsNtNtCsbUtogaBoXXO_4core3cmp9PartialEq2eq
FNDA:5,_RNvXs_NtCs1ufPfM0GhR0_9api_bones4authNtB4_10AuthSchemeNtNtNtCsbUtogaBoXXO_4core3str6traits7FromStr8from_str
FNDA:1,_RNvXsa_NtCs1ufPfM0GhR0_9api_bones4authNtB5_17ApiKeyCredentialsNtNtCsbUtogaBoXXO_4core3fmt5Debug3fmt
FNDA:3,_RNvXsb_NtCs1ufPfM0GhR0_9api_bones4authNtB5_17ApiKeyCredentialsNtNtCsbUtogaBoXXO_4core3cmp9PartialEq2eq
FNDA:1,_RNvXse_NtCs1ufPfM0GhR0_9api_bones4authNtB5_11OAuth2TokenNtNtCsbUtogaBoXXO_4core3fmt5Debug3fmt
FNDA:2,_RNvXsf_NtCs1ufPfM0GhR0_9api_bones4authNtB5_11OAuth2TokenNtNtCsbUtogaBoXXO_4core3cmp9PartialEq2eq
FNDA:5,_RNvXsi_NtCs1ufPfM0GhR0_9api_bones4authNtB5_19AuthorizationHeaderNtNtCsbUtogaBoXXO_4core3fmt7Display3fmt
FNDA:14,_RNvXsj_NtCs1ufPfM0GhR0_9api_bones4authNtB5_19AuthorizationHeaderNtNtNtCsbUtogaBoXXO_4core3str6traits7FromStr8from_str
FNDA:1,_RNvXsl_NtCs1ufPfM0GhR0_9api_bones4authNtB5_10PermissionNtNtCsbUtogaBoXXO_4core3fmt7Display3fmt
FNDA:1,_RNvXsm_NtCs1ufPfM0GhR0_9api_bones4authNtB5_10PermissionNtNtNtCsbUtogaBoXXO_4core3str6traits7FromStr8from_str
FNDA:2,_RNvXso_NtCs1ufPfM0GhR0_9api_bones4authNtB5_5ScopeNtNtCsbUtogaBoXXO_4core3fmt7Display3fmt
FNDA:15,_RNvXsp_NtCs1ufPfM0GhR0_9api_bones4authNtB5_5ScopeNtNtNtCsbUtogaBoXXO_4core3str6traits7FromStr8from_str
FNDA:2,_RNvXsr_NtCs1ufPfM0GhR0_9api_bones4authNtB5_5ScopeINtNtCsbUtogaBoXXO_4core7convert7TryFromNtNtCsipk7xt2ATo7_5alloc6string6StringE8try_from
FNDA:0,_RINvMsn_NtCs6zS5XWhHsrg_9api_bones4authNtB6_5Scope16from_permissionspEB8_
FNDA:0,_RNvXsq_NtCs6zS5XWhHsrg_9api_bones4authNtNtCsipk7xt2ATo7_5alloc6string6StringINtNtCsbUtogaBoXXO_4core7convert4FromNtB5_5ScopeE4from
FNDA:0,_RNvMs0_NtCs6zS5XWhHsrg_9api_bones4authNtB5_11BearerToken6as_str
FNDA:0,_RNvMs5_NtCs6zS5XWhHsrg_9api_bones4authNtB5_16BasicCredentials8password
FNDA:0,_RNvMs5_NtCs6zS5XWhHsrg_9api_bones4authNtB5_16BasicCredentials8username
FNDA:0,_RNvMs9_NtCs6zS5XWhHsrg_9api_bones4authNtB5_17ApiKeyCredentials6as_str
FNDA:0,_RNvMsd_NtCs6zS5XWhHsrg_9api_bones4authNtB5_11OAuth2Token10token_type
FNDA:0,_RNvMsd_NtCs6zS5XWhHsrg_9api_bones4authNtB5_11OAuth2Token6as_str
FNDA:0,_RNvMsh_NtCs6zS5XWhHsrg_9api_bones4authNtB5_19AuthorizationHeader6scheme
FNDA:0,_RNvMsk_NtCs6zS5XWhHsrg_9api_bones4authNtB5_10Permission6as_str
FNDA:0,_RNvMsn_NtCs6zS5XWhHsrg_9api_bones4authNtB5_5Scope12intersection
FNDA:0,_RNvMsn_NtCs6zS5XWhHsrg_9api_bones4authNtB5_5Scope12is_subset_of
FNDA:0,_RNvMsn_NtCs6zS5XWhHsrg_9api_bones4authNtB5_5Scope3len
FNDA:0,_RNvMsn_NtCs6zS5XWhHsrg_9api_bones4authNtB5_5Scope4iter
FNDA:0,_RNvMsn_NtCs6zS5XWhHsrg_9api_bones4authNtB5_5Scope5empty
FNDA:0,_RNvMsn_NtCs6zS5XWhHsrg_9api_bones4authNtB5_5Scope5union
FNDA:0,_RNvMsn_NtCs6zS5XWhHsrg_9api_bones4authNtB5_5Scope8contains
FNDA:0,_RNvMsn_NtCs6zS5XWhHsrg_9api_bones4authNtB5_5Scope8is_empty
FNDA:0,_RNvXNtCs6zS5XWhHsrg_9api_bones4authNtB2_10AuthSchemeNtNtCsbUtogaBoXXO_4core3fmt7Display3fmt
FNDA:0,_RNvXs1_NtCs6zS5XWhHsrg_9api_bones4authNtB5_11BearerTokenNtNtCsbUtogaBoXXO_4core3fmt5Debug3fmt
FNDA:0,_RNvXs2_NtCs6zS5XWhHsrg_9api_bones4authNtB5_11BearerTokenNtNtCsbUtogaBoXXO_4core3fmt7Display3fmt
FNDA:0,_RNvXs3_NtCs6zS5XWhHsrg_9api_bones4authNtB5_11BearerTokenNtNtCsbUtogaBoXXO_4core3cmp9PartialEq2eq
FNDA:0,_RNvXs6_NtCs6zS5XWhHsrg_9api_bones4authNtB5_16BasicCredentialsNtNtCsbUtogaBoXXO_4core3fmt5Debug3fmt
FNDA:0,_RNvXs7_NtCs6zS5XWhHsrg_9api_bones4authNtB5_16BasicCredentialsNtNtCsbUtogaBoXXO_4core3cmp9PartialEq2eq
FNDA:0,_RNvXs_NtCs6zS5XWhHsrg_9api_bones4authNtB4_10AuthSchemeNtNtNtCsbUtogaBoXXO_4core3str6traits7FromStr8from_str
FNDA:0,_RNvXsa_NtCs6zS5XWhHsrg_9api_bones4authNtB5_17ApiKeyCredentialsNtNtCsbUtogaBoXXO_4core3fmt5Debug3fmt
FNDA:0,_RNvXsb_NtCs6zS5XWhHsrg_9api_bones4authNtB5_17ApiKeyCredentialsNtNtCsbUtogaBoXXO_4core3cmp9PartialEq2eq
FNDA:0,_RNvXse_NtCs6zS5XWhHsrg_9api_bones4authNtB5_11OAuth2TokenNtNtCsbUtogaBoXXO_4core3fmt5Debug3fmt
FNDA:0,_RNvXsf_NtCs6zS5XWhHsrg_9api_bones4authNtB5_11OAuth2TokenNtNtCsbUtogaBoXXO_4core3cmp9PartialEq2eq
FNDA:0,_RNvXsi_NtCs6zS5XWhHsrg_9api_bones4authNtB5_19AuthorizationHeaderNtNtCsbUtogaBoXXO_4core3fmt7Display3fmt
FNDA:0,_RNvXsj_NtCs6zS5XWhHsrg_9api_bones4authNtB5_19AuthorizationHeaderNtNtNtCsbUtogaBoXXO_4core3str6traits7FromStr8from_str
FNDA:0,_RNvXsl_NtCs6zS5XWhHsrg_9api_bones4authNtB5_10PermissionNtNtCsbUtogaBoXXO_4core3fmt7Display3fmt
FNDA:0,_RNvXsm_NtCs6zS5XWhHsrg_9api_bones4authNtB5_10PermissionNtNtNtCsbUtogaBoXXO_4core3str6traits7FromStr8from_str
FNDA:0,_RNvXso_NtCs6zS5XWhHsrg_9api_bones4authNtB5_5ScopeNtNtCsbUtogaBoXXO_4core3fmt7Display3fmt
FNDA:0,_RNvXsp_NtCs6zS5XWhHsrg_9api_bones4authNtB5_5ScopeNtNtNtCsbUtogaBoXXO_4core3str6traits7FromStr8from_str
FNDA:0,_RNvXsr_NtCs6zS5XWhHsrg_9api_bones4authNtB5_5ScopeINtNtCsbUtogaBoXXO_4core7convert7TryFromNtNtCsipk7xt2ATo7_5alloc6string6StringE8try_from
FNDA:0,_RINvMs0_NtCs6zS5XWhHsrg_9api_bones4authNtB6_11BearerToken3newReEB8_
FNDA:0,_RINvMs5_NtCs6zS5XWhHsrg_9api_bones4authNtB6_16BasicCredentials3newReB12_EB8_
FNDA:0,_RINvMs9_NtCs6zS5XWhHsrg_9api_bones4authNtB6_17ApiKeyCredentials3newReEB8_
FNDA:0,_RINvMsd_NtCs6zS5XWhHsrg_9api_bones4authNtB6_11OAuth2Token3newReNtNtCsipk7xt2ATo7_5alloc6string6StringEB8_
FNDA:0,_RINvMsk_NtCs6zS5XWhHsrg_9api_bones4authNtB6_10Permission3newReEB8_
FNDA:0,_RNCINvMsk_NtCs6zS5XWhHsrg_9api_bones4authNtB8_10Permission3newReE0Ba_
FNDA:0,_RNCNvMsn_NtCs6zS5XWhHsrg_9api_bones4authNtB7_5Scope12intersection0B9_
FNDA:0,_RNCNvMsn_NtCs6zS5XWhHsrg_9api_bones4authNtB7_5Scope12is_subset_of0B9_
FNDA:0,_RNCNvMsn_NtCs6zS5XWhHsrg_9api_bones4authNtB7_5Scope8contains0B9_
FNDA:0,_RNCNvXsj_NtCs6zS5XWhHsrg_9api_bones4authNtB7_19AuthorizationHeaderNtNtNtCsbUtogaBoXXO_4core3str6traits7FromStr8from_str0B9_
FNDA:0,_RINvMsd_NtCs6zS5XWhHsrg_9api_bones4authNtB6_11OAuth2Token3newReBX_ECs2fHIKKb8h0M_9auth_flow
FNDA:0,_RINvMsk_NtCs6zS5XWhHsrg_9api_bones4authNtB6_10Permission3newRReECs2fHIKKb8h0M_9auth_flow
FNDA:0,_RINvMsn_NtCs6zS5XWhHsrg_9api_bones4authNtB6_5Scope16from_permissionsINtNtCsipk7xt2ATo7_5alloc3vec3VecNtB6_10PermissionEECs2fHIKKb8h0M_9auth_flow
FNDA:0,_RNCINvMsk_NtCs6zS5XWhHsrg_9api_bones4authNtB8_10Permission3newRReE0Cs2fHIKKb8h0M_9auth_flow
FNF:95
FNH:95
DA:98,6
DA:99,6
DA:100,1
DA:101,1
DA:102,1
DA:103,1
DA:104,1
DA:105,1
DA:107,6
DA:113,5
DA:114,5
DA:115,5
DA:116,3
DA:117,2
DA:118,2
DA:119,2
DA:120,1
DA:122,5
DA:148,10
DA:149,10
DA:150,10
DA:154,2
DA:155,2
DA:156,2
DA:160,1
DA:161,1
DA:162,1
DA:166,1
DA:167,1
DA:168,1
DA:172,4
DA:173,4
DA:174,4
DA:204,7
DA:205,7
DA:206,7
DA:207,7
DA:208,7
DA:209,7
DA:213,3
DA:214,3
DA:215,3
DA:219,3
DA:220,3
DA:221,3
DA:225,1
DA:226,1
DA:227,1
DA:228,1
DA:229,1
DA:230,1
DA:234,2
DA:235,2
DA:236,2
DA:260,8
DA:261,8
DA:262,8
DA:266,2
DA:267,2
DA:268,2
DA:272,1
DA:273,1
DA:274,1
DA:275,1
DA:276,1
DA:280,3
DA:281,3
DA:282,3
DA:310,8
DA:311,8
DA:312,8
DA:313,8
DA:314,8
DA:315,8
DA:319,3
DA:320,3
DA:321,3
DA:325,2
DA:326,2
DA:327,2
DA:331,1
DA:332,1
DA:333,1
DA:334,1
DA:335,1
DA:336,1
DA:340,2
DA:341,2
DA:342,2
DA:416,5
DA:417,5
DA:418,1
DA:419,1
DA:420,1
DA:421,1
DA:422,1
DA:424,5
DA:428,5
DA:429,5
DA:430,1
DA:431,1
DA:433,1
DA:434,1
DA:435,1
DA:437,1
DA:438,1
DA:440,1
DA:441,1
DA:442,1
DA:444,5
DA:456,14
DA:457,14
DA:458,14
DA:459,1
DA:460,13
DA:461,13
DA:462,13
DA:463,13
DA:464,12
DA:465,12
DA:466,0
DA:467,12
DA:469,12
DA:470,12
DA:471,10
DA:473,5
DA:474,5
DA:475,5
DA:476,4
DA:477,4
DA:478,3
DA:479,3
DA:480,3
DA:481,2
DA:483,5
DA:484,3
DA:485,2
DA:487,1
DA:488,1
DA:489,1
DA:490,1
DA:492,14
DA:535,38
DA:536,38
DA:537,38
DA:538,1
DA:539,37
DA:540,155
DA:541,1
DA:542,36
DA:543,36
DA:544,38
DA:548,24
DA:549,24
DA:550,24
DA:554,1
DA:555,1
DA:556,1
DA:562,1
DA:563,1
DA:564,1
DA:607,2
DA:608,2
DA:609,2
DA:612,1
DA:613,1
DA:614,1
DA:618,6
DA:619,6
DA:620,6
DA:624,2
DA:625,2
DA:626,2
DA:638,10
DA:639,15
DA:640,10
DA:653,3
DA:654,5
DA:655,3
DA:669,1
DA:670,1
DA:671,1
DA:685,1
DA:687,1
DA:688,1
DA:689,2
DA:690,1
DA:691,1
DA:693,1
DA:696,1
DA:697,1
DA:698,1
DA:703,2
DA:704,2
DA:705,5
DA:706,5
DA:707,3
DA:708,2
DA:709,5
DA:710,5
DA:712,2
DA:713,2
DA:726,15
DA:727,15
DA:728,15
DA:729,1
DA:730,14
DA:731,14
DA:732,14
DA:733,14
DA:734,14
DA:735,14
DA:736,15
DA:741,1
DA:742,1
DA:743,1
DA:750,2
DA:751,2
DA:752,2
DA:768,1
DA:769,1
DA:770,1
DA:771,1
DA:772,1
DA:773,1
DA:774,1
DA:775,1
DA:778,1
DA:779,1
DA:780,1
DA:781,1
DA:782,1
DA:783,1
DA:786,1
DA:787,1
DA:788,1
DA:789,1
DA:796,1
DA:797,1
DA:798,1
DA:799,1
DA:802,1
DA:803,1
DA:804,1
DA:805,1
DA:806,1
DA:807,1
DA:810,1
DA:811,1
DA:812,1
DA:813,1
DA:820,1
DA:821,1
DA:822,1
DA:823,1
DA:824,1
DA:827,1
DA:828,1
DA:829,1
DA:830,1
DA:831,1
DA:832,1
DA:833,1
DA:840,1
DA:841,1
DA:842,1
DA:843,1
DA:846,1
DA:847,1
DA:848,1
DA:849,1
DA:850,1
DA:851,1
DA:858,1
DA:859,1
DA:860,1
DA:861,1
DA:862,1
DA:865,1
DA:866,1
DA:867,1
DA:868,1
DA:869,1
DA:870,1
DA:877,1
DA:878,1
DA:879,1
DA:880,1
DA:881,1
DA:884,1
DA:886,1
DA:887,1
DA:888,1
DA:889,1
DA:891,0
DA:893,1
DA:894,1
DA:897,1
DA:898,1
DA:899,1
DA:901,1
DA:903,1
DA:904,1
DA:907,1
DA:908,1
DA:909,1
DA:910,1
DA:913,1
DA:914,1
DA:915,1
DA:916,1
DA:917,1
DA:920,1
DA:921,1
DA:922,1
DA:925,1
DA:928,1
DA:929,1
DA:930,1
DA:933,1
DA:936,1
DA:937,1
DA:938,1
DA:941,1
DA:944,1
DA:947,1
DA:948,1
DA:949,1
DA:950,1
DA:953,1
DA:960,1
DA:961,1
DA:962,1
DA:963,1
DA:966,1
DA:967,1
DA:968,1
DA:971,1
DA:972,1
DA:973,1
DA:976,1
DA:979,1
DA:980,1
DA:981,1
DA:982,1
DA:983,1
DA:984,1
DA:991,1
DA:992,1
DA:993,1
DA:994,1
DA:995,1
DA:996,1
DA:997,1
DA:1000,1
DA:1001,1
DA:1002,1
DA:1003,1
DA:1006,1
DA:1007,1
DA:1008,1
DA:1009,1
DA:1012,1
DA:1013,1
DA:1014,1
DA:1015,1
DA:1016,1
DA:1017,1
DA:1020,1
DA:1021,1
DA:1022,1
DA:1023,1
DA:1026,1
DA:1027,1
DA:1028,1
DA:1029,1
DA:1030,1
DA:1031,1
DA:1032,1
DA:1033,1
DA:1036,1
DA:1037,1
DA:1038,1
DA:1039,1
DA:1040,1
DA:1041,1
DA:1042,1
DA:1043,1
DA:1046,1
DA:1047,1
DA:1048,1
DA:1049,1
DA:1053,1
DA:1054,1
DA:1055,1
DA:1056,1
DA:1057,1
DA:1058,1
DA:1062,1
DA:1063,1
DA:1064,1
DA:1065,1
DA:1066,1
DA:1067,1
DA:1074,1
DA:1075,1
DA:1076,1
DA:1077,1
DA:1079,1
DA:1080,1
DA:1081,1
DA:1082,1
DA:1083,1
DA:1086,1
DA:1087,1
DA:1088,1
DA:1089,1
DA:1090,1
DA:1093,1
DA:1094,1
DA:1095,1
DA:1096,1
DA:1097,1
DA:1100,1
DA:1101,1
DA:1102,1
DA:1103,1
DA:1110,1
DA:1111,1
DA:1112,1
DA:1113,1
DA:1114,1
DA:1121,1
DA:1122,1
DA:1123,1
DA:1124,1
DA:1125,1
DA:1126,1
DA:1127,1
DA:1130,1
DA:1131,1
DA:1132,1
DA:1133,1
DA:1134,1
DA:1135,1
DA:1136,1
DA:1139,1
DA:1140,1
DA:1141,1
DA:1142,1
DA:1143,1
DA:1144,1
DA:1145,1
DA:1148,1
DA:1149,1
DA:1150,1
DA:1151,1
DA:1152,1
DA:1153,1
DA:1154,1
DA:1161,1
DA:1162,1
DA:1163,1
DA:1165,1
DA:1166,1
DA:1168,1
DA:1169,1
DA:1171,1
DA:1172,1
DA:1173,1
DA:1180,1
DA:1181,1
DA:1182,1
DA:1183,1
DA:1184,1
DA:1185,1
DA:1187,1
DA:1188,1
DA:1189,1
DA:1190,1
DA:1192,1
DA:1193,1
DA:1194,1
DA:1195,1
DA:1197,1
DA:1198,1
DA:1205,1
DA:1208,1
DA:1209,1
DA:1210,1
DA:1211,1
DA:1214,1
DA:1221,1
DA:1222,1
DA:1223,1
DA:1224,1
DA:1225,1
DA:1226,1
DA:1228,1
DA:1231,1
DA:1235,1
DA:1236,1
DA:1237,1
BRF:0
BRH:0
LF:508
LH:506
end_of_record
SF:/Users/gsalingu/git/api-bones/.claude/worktrees/feat+211-nested-org-adr/src/axum_extractors.rs
FN:88,_RNvMNtCs1ufPfM0GhR0_9api_bones15axum_extractorsNtB2_13Authorization14require_scheme
FN:107,_RNCNCNvXs_NtCs1ufPfM0GhR0_9api_bones15axum_extractorsNtB8_13AuthorizationINtNtCsgRxEIuGfDXj_9axum_core7extract16FromRequestPartsuE18from_request_parts00Ba_
FN:114,_RNCNCNvXs_NtCs1ufPfM0GhR0_9api_bones15axum_extractorsNtB8_13AuthorizationINtNtCsgRxEIuGfDXj_9axum_core7extract16FromRequestPartsuE18from_request_parts0s0_0Ba_
FN:115,_RNCNCNvXs_NtCs1ufPfM0GhR0_9api_bones15axum_extractorsNtB8_13AuthorizationINtNtCsgRxEIuGfDXj_9axum_core7extract16FromRequestPartsuE18from_request_parts0s1_0Ba_
FN:109,_RNCNCNvXs_NtCs1ufPfM0GhR0_9api_bones15axum_extractorsNtB8_13AuthorizationINtNtCsgRxEIuGfDXj_9axum_core7extract16FromRequestPartsuE18from_request_parts0s_0Ba_
FN:103,_RNCNvXs_NtCs1ufPfM0GhR0_9api_bones15axum_extractorsNtB6_13AuthorizationINtNtCsgRxEIuGfDXj_9axum_core7extract16FromRequestPartsuE18from_request_parts0B8_
FN:103,_RNvXs_NtCs1ufPfM0GhR0_9api_bones15axum_extractorsNtB4_13AuthorizationINtNtCsgRxEIuGfDXj_9axum_core7extract16FromRequestPartsuE18from_request_partsB6_
FN:169,_RNCNvNtNtCs1ufPfM0GhR0_9api_bones15axum_extractors5tests12extract_auth0B7_
FN:159,_RNCNvNtNtCs1ufPfM0GhR0_9api_bones15axum_extractors5tests15extract_version0B7_
FN:139,_RNCNvNtNtCs1ufPfM0GhR0_9api_bones15axum_extractors5tests18extract_request_id0B7_
FN:149,_RNCNvNtNtCs1ufPfM0GhR0_9api_bones15axum_extractors5tests19extract_idempotency0B7_
FN:287,_RNCNvNtNtCs1ufPfM0GhR0_9api_bones15axum_extractors5testss_18request_id_display0B7_
FN:180,_RNCNvNtNtCs1ufPfM0GhR0_9api_bones15axum_extractors5testss_18request_id_present0B7_
FN:312,_RNCNvNtNtCs1ufPfM0GhR0_9api_bones15axum_extractors5testss_19api_version_display0B7_
FN:261,_RNCNvNtNtCs1ufPfM0GhR0_9api_bones15axum_extractors5testss_20authorization_bearer0B7_
FN:303,_RNCNvNtNtCs1ufPfM0GhR0_9api_bones15axum_extractors5testss_21idempotency_key_deref0B7_
FN:241,_RNCNvNtNtCs1ufPfM0GhR0_9api_bones15axum_extractors5testss_22api_version_from_query0B7_
FN:233,_RNCNvNtNtCs1ufPfM0GhR0_9api_bones15axum_extractors5testss_23api_version_from_header0B7_
FN:295,_RNCNvNtNtCs1ufPfM0GhR0_9api_bones15axum_extractors5testss_23idempotency_key_display0B7_
FN:210,_RNCNvNtNtCs1ufPfM0GhR0_9api_bones15axum_extractors5testss_23idempotency_key_present0B7_
FN:202,_RNCNvNtNtCs1ufPfM0GhR0_9api_bones15axum_extractors5testss_25request_id_deref_to_inner0B7_
FN:188,_RNCNvNtNtCs1ufPfM0GhR0_9api_bones15axum_extractors5testss_30request_id_missing_rejects_4000B7_
FN:255,_RNCNvNtNtCs1ufPfM0GhR0_9api_bones15axum_extractors5testss_31api_version_missing_rejects_4000B7_
FN:274,_RNCNvNtNtCs1ufPfM0GhR0_9api_bones15axum_extractors5testss_31authorization_require_scheme_ok0B7_
FN:320,_RNCNvNtNtCs1ufPfM0GhR0_9api_bones15axum_extractors5testss_31request_id_non_utf8_rejects_4000B7_
FN:268,_RNCNvNtNtCs1ufPfM0GhR0_9api_bones15axum_extractors5testss_33authorization_missing_rejects_4010B7_
FN:247,_RNCNvNtNtCs1ufPfM0GhR0_9api_bones15axum_extractors5testss_35api_version_header_takes_precedence0B7_
FN:218,_RNCNvNtNtCs1ufPfM0GhR0_9api_bones15axum_extractors5testss_35idempotency_key_missing_rejects_4000B7_
FN:194,_RNCNvNtNtCs1ufPfM0GhR0_9api_bones15axum_extractors5testss_35request_id_invalid_uuid_rejects_4000B7_
FN:333,_RNCNvNtNtCs1ufPfM0GhR0_9api_bones15axum_extractors5testss_36idempotency_key_non_utf8_rejects_4000B7_
FN:224,_RNCNvNtNtCs1ufPfM0GhR0_9api_bones15axum_extractors5testss_36idempotency_key_too_long_rejects_4000B7_
FN:372,_RNCNvNtNtCs1ufPfM0GhR0_9api_bones15axum_extractors5testss_38authorization_empty_scheme_rejects_4010B7_
FN:346,_RNCNvNtNtCs1ufPfM0GhR0_9api_bones15axum_extractors5testss_39api_version_non_utf8_header_rejects_4000B7_
FN:359,_RNCNvNtNtCs1ufPfM0GhR0_9api_bones15axum_extractors5testss_41authorization_non_utf8_header_rejects_4010B7_
FN:280,_RNCNvNtNtCs1ufPfM0GhR0_9api_bones15axum_extractors5testss_41authorization_require_scheme_mismatch_4010B7_
FN:392,_RNCNvNtNtCs1ufPfM0GhR0_9api_bones15axum_extractors5testss_43api_version_invalid_query_value_rejects_4000B7_
FN:378,_RNCNvNtNtCs1ufPfM0GhR0_9api_bones15axum_extractors5testss_44api_version_from_query_with_preceding_params0B7_
FN:384,_RNCNvNtNtCs1ufPfM0GhR0_9api_bones15axum_extractors5testss_44api_version_invalid_header_value_rejects_4000B7_
FN:169,_RNvNtNtCs1ufPfM0GhR0_9api_bones15axum_extractors5tests12extract_auth
FN:159,_RNvNtNtCs1ufPfM0GhR0_9api_bones15axum_extractors5tests15extract_version
FN:139,_RNvNtNtCs1ufPfM0GhR0_9api_bones15axum_extractors5tests18extract_request_id
FN:149,_RNvNtNtCs1ufPfM0GhR0_9api_bones15axum_extractors5tests19extract_idempotency
FN:287,_RNvNtNtCs1ufPfM0GhR0_9api_bones15axum_extractors5testss_18request_id_display
FN:180,_RNvNtNtCs1ufPfM0GhR0_9api_bones15axum_extractors5testss_18request_id_present
FN:312,_RNvNtNtCs1ufPfM0GhR0_9api_bones15axum_extractors5testss_19api_version_display
FN:261,_RNvNtNtCs1ufPfM0GhR0_9api_bones15axum_extractors5testss_20authorization_bearer
FN:303,_RNvNtNtCs1ufPfM0GhR0_9api_bones15axum_extractors5testss_21idempotency_key_deref
FN:241,_RNvNtNtCs1ufPfM0GhR0_9api_bones15axum_extractors5testss_22api_version_from_query
FN:233,_RNvNtNtCs1ufPfM0GhR0_9api_bones15axum_extractors5testss_23api_version_from_header
FN:295,_RNvNtNtCs1ufPfM0GhR0_9api_bones15axum_extractors5testss_23idempotency_key_display
FN:210,_RNvNtNtCs1ufPfM0GhR0_9api_bones15axum_extractors5testss_23idempotency_key_present
FN:202,_RNvNtNtCs1ufPfM0GhR0_9api_bones15axum_extractors5testss_25request_id_deref_to_inner
FN:188,_RNvNtNtCs1ufPfM0GhR0_9api_bones15axum_extractors5testss_30request_id_missing_rejects_400
FN:255,_RNvNtNtCs1ufPfM0GhR0_9api_bones15axum_extractors5testss_31api_version_missing_rejects_400
FN:274,_RNvNtNtCs1ufPfM0GhR0_9api_bones15axum_extractors5testss_31authorization_require_scheme_ok
FN:320,_RNvNtNtCs1ufPfM0GhR0_9api_bones15axum_extractors5testss_31request_id_non_utf8_rejects_400
FN:268,_RNvNtNtCs1ufPfM0GhR0_9api_bones15axum_extractors5testss_33authorization_missing_rejects_401
FN:247,_RNvNtNtCs1ufPfM0GhR0_9api_bones15axum_extractors5testss_35api_version_header_takes_precedence
FN:218,_RNvNtNtCs1ufPfM0GhR0_9api_bones15axum_extractors5testss_35idempotency_key_missing_rejects_400
FN:194,_RNvNtNtCs1ufPfM0GhR0_9api_bones15axum_extractors5testss_35request_id_invalid_uuid_rejects_400
FN:333,_RNvNtNtCs1ufPfM0GhR0_9api_bones15axum_extractors5testss_36idempotency_key_non_utf8_rejects_400
FN:224,_RNvNtNtCs1ufPfM0GhR0_9api_bones15axum_extractors5testss_36idempotency_key_too_long_rejects_400
FN:372,_RNvNtNtCs1ufPfM0GhR0_9api_bones15axum_extractors5testss_38authorization_empty_scheme_rejects_401
FN:346,_RNvNtNtCs1ufPfM0GhR0_9api_bones15axum_extractors5testss_39api_version_non_utf8_header_rejects_400
FN:359,_RNvNtNtCs1ufPfM0GhR0_9api_bones15axum_extractors5testss_41authorization_non_utf8_header_rejects_401
FN:280,_RNvNtNtCs1ufPfM0GhR0_9api_bones15axum_extractors5testss_41authorization_require_scheme_mismatch_401
FN:392,_RNvNtNtCs1ufPfM0GhR0_9api_bones15axum_extractors5testss_43api_version_invalid_query_value_rejects_400
FN:378,_RNvNtNtCs1ufPfM0GhR0_9api_bones15axum_extractors5testss_44api_version_from_query_with_preceding_params
FN:384,_RNvNtNtCs1ufPfM0GhR0_9api_bones15axum_extractors5testss_44api_version_invalid_header_value_rejects_400
FN:107,_RNCNCNvXININtCs6zS5XWhHsrg_9api_bones15axum_extractorss_0pENtB9_13AuthorizationINtNtCsgRxEIuGfDXj_9axum_core7extract16FromRequestPartspE18from_request_parts00Bb_
FN:114,_RNCNCNvXININtCs6zS5XWhHsrg_9api_bones15axum_extractorss_0pENtB9_13AuthorizationINtNtCsgRxEIuGfDXj_9axum_core7extract16FromRequestPartspE18from_request_parts0s0_0Bb_
FN:115,_RNCNCNvXININtCs6zS5XWhHsrg_9api_bones15axum_extractorss_0pENtB9_13AuthorizationINtNtCsgRxEIuGfDXj_9axum_core7extract16FromRequestPartspE18from_request_parts0s1_0Bb_
FN:109,_RNCNCNvXININtCs6zS5XWhHsrg_9api_bones15axum_extractorss_0pENtB9_13AuthorizationINtNtCsgRxEIuGfDXj_9axum_core7extract16FromRequestPartspE18from_request_parts0s_0Bb_
FN:103,_RNCNvXININtCs6zS5XWhHsrg_9api_bones15axum_extractorss_0pENtB7_13AuthorizationINtNtCsgRxEIuGfDXj_9axum_core7extract16FromRequestPartspE18from_request_parts0B9_
FN:103,_RNvXININtCs6zS5XWhHsrg_9api_bones15axum_extractorss_0pENtB5_13AuthorizationINtNtCsgRxEIuGfDXj_9axum_core7extract16FromRequestPartspE18from_request_partsB7_
FN:107,_RNCNCNvXs_NtCs6zS5XWhHsrg_9api_bones15axum_extractorsNtB8_13AuthorizationINtNtCsgRxEIuGfDXj_9axum_core7extract16FromRequestPartsuE18from_request_parts00Csi3Z6uToK8f7_20axum_core_extractors
FN:114,_RNCNCNvXs_NtCs6zS5XWhHsrg_9api_bones15axum_extractorsNtB8_13AuthorizationINtNtCsgRxEIuGfDXj_9axum_core7extract16FromRequestPartsuE18from_request_parts0s0_0Csi3Z6uToK8f7_20axum_core_extractors
FN:115,_RNCNCNvXs_NtCs6zS5XWhHsrg_9api_bones15axum_extractorsNtB8_13AuthorizationINtNtCsgRxEIuGfDXj_9axum_core7extract16FromRequestPartsuE18from_request_parts0s1_0Csi3Z6uToK8f7_20axum_core_extractors
FN:109,_RNCNCNvXs_NtCs6zS5XWhHsrg_9api_bones15axum_extractorsNtB8_13AuthorizationINtNtCsgRxEIuGfDXj_9axum_core7extract16FromRequestPartsuE18from_request_parts0s_0Csi3Z6uToK8f7_20axum_core_extractors
FN:103,_RNCNvXs_NtCs6zS5XWhHsrg_9api_bones15axum_extractorsNtB6_13AuthorizationINtNtCsgRxEIuGfDXj_9axum_core7extract16FromRequestPartsuE18from_request_parts0Csi3Z6uToK8f7_20axum_core_extractors
FN:103,_RNvXs_NtCs6zS5XWhHsrg_9api_bones15axum_extractorsNtB4_13AuthorizationINtNtCsgRxEIuGfDXj_9axum_core7extract16FromRequestPartsuE18from_request_partsCsi3Z6uToK8f7_20axum_core_extractors
FN:88,_RNvMNtCs6zS5XWhHsrg_9api_bones15axum_extractorsNtB2_13Authorization14require_scheme
FNDA:2,_RNvMNtCs1ufPfM0GhR0_9api_bones15axum_extractorsNtB2_13Authorization14require_scheme
FNDA:1,_RNCNCNvXs_NtCs1ufPfM0GhR0_9api_bones15axum_extractorsNtB8_13AuthorizationINtNtCsgRxEIuGfDXj_9axum_core7extract16FromRequestPartsuE18from_request_parts00Ba_
FNDA:4,_RNCNCNvXs_NtCs1ufPfM0GhR0_9api_bones15axum_extractorsNtB8_13AuthorizationINtNtCsgRxEIuGfDXj_9axum_core7extract16FromRequestPartsuE18from_request_parts0s0_0Ba_
FNDA:1,_RNCNCNvXs_NtCs1ufPfM0GhR0_9api_bones15axum_extractorsNtB8_13AuthorizationINtNtCsgRxEIuGfDXj_9axum_core7extract16FromRequestPartsuE18from_request_parts0s1_0Ba_
FNDA:1,_RNCNCNvXs_NtCs1ufPfM0GhR0_9api_bones15axum_extractorsNtB8_13AuthorizationINtNtCsgRxEIuGfDXj_9axum_core7extract16FromRequestPartsuE18from_request_parts0s_0Ba_
FNDA:6,_RNCNvXs_NtCs1ufPfM0GhR0_9api_bones15axum_extractorsNtB6_13AuthorizationINtNtCsgRxEIuGfDXj_9axum_core7extract16FromRequestPartsuE18from_request_parts0B8_
FNDA:6,_RNvXs_NtCs1ufPfM0GhR0_9api_bones15axum_extractorsNtB4_13AuthorizationINtNtCsgRxEIuGfDXj_9axum_core7extract16FromRequestPartsuE18from_request_partsB6_
FNDA:5,_RNCNvNtNtCs1ufPfM0GhR0_9api_bones15axum_extractors5tests12extract_auth0B7_
FNDA:8,_RNCNvNtNtCs1ufPfM0GhR0_9api_bones15axum_extractors5tests15extract_version0B7_
FNDA:5,_RNCNvNtNtCs1ufPfM0GhR0_9api_bones15axum_extractors5tests18extract_request_id0B7_
FNDA:5,_RNCNvNtNtCs1ufPfM0GhR0_9api_bones15axum_extractors5tests19extract_idempotency0B7_
FNDA:1,_RNCNvNtNtCs1ufPfM0GhR0_9api_bones15axum_extractors5testss_18request_id_display0B7_
FNDA:1,_RNCNvNtNtCs1ufPfM0GhR0_9api_bones15axum_extractors5testss_18request_id_present0B7_
FNDA:1,_RNCNvNtNtCs1ufPfM0GhR0_9api_bones15axum_extractors5testss_19api_version_display0B7_
FNDA:1,_RNCNvNtNtCs1ufPfM0GhR0_9api_bones15axum_extractors5testss_20authorization_bearer0B7_
FNDA:1,_RNCNvNtNtCs1ufPfM0GhR0_9api_bones15axum_extractors5testss_21idempotency_key_deref0B7_
FNDA:1,_RNCNvNtNtCs1ufPfM0GhR0_9api_bones15axum_extractors5testss_22api_version_from_query0B7_
FNDA:1,_RNCNvNtNtCs1ufPfM0GhR0_9api_bones15axum_extractors5testss_23api_version_from_header0B7_
FNDA:1,_RNCNvNtNtCs1ufPfM0GhR0_9api_bones15axum_extractors5testss_23idempotency_key_display0B7_
FNDA:1,_RNCNvNtNtCs1ufPfM0GhR0_9api_bones15axum_extractors5testss_23idempotency_key_present0B7_
FNDA:1,_RNCNvNtNtCs1ufPfM0GhR0_9api_bones15axum_extractors5testss_25request_id_deref_to_inner0B7_
FNDA:1,_RNCNvNtNtCs1ufPfM0GhR0_9api_bones15axum_extractors5testss_30request_id_missing_rejects_4000B7_
FNDA:1,_RNCNvNtNtCs1ufPfM0GhR0_9api_bones15axum_extractors5testss_31api_version_missing_rejects_4000B7_
FNDA:1,_RNCNvNtNtCs1ufPfM0GhR0_9api_bones15axum_extractors5testss_31authorization_require_scheme_ok0B7_
FNDA:1,_RNCNvNtNtCs1ufPfM0GhR0_9api_bones15axum_extractors5testss_31request_id_non_utf8_rejects_4000B7_
FNDA:1,_RNCNvNtNtCs1ufPfM0GhR0_9api_bones15axum_extractors5testss_33authorization_missing_rejects_4010B7_
FNDA:1,_RNCNvNtNtCs1ufPfM0GhR0_9api_bones15axum_extractors5testss_35api_version_header_takes_precedence0B7_
FNDA:1,_RNCNvNtNtCs1ufPfM0GhR0_9api_bones15axum_extractors5testss_35idempotency_key_missing_rejects_4000B7_
FNDA:1,_RNCNvNtNtCs1ufPfM0GhR0_9api_bones15axum_extractors5testss_35request_id_invalid_uuid_rejects_4000B7_
FNDA:1,_RNCNvNtNtCs1ufPfM0GhR0_9api_bones15axum_extractors5testss_36idempotency_key_non_utf8_rejects_4000B7_
FNDA:1,_RNCNvNtNtCs1ufPfM0GhR0_9api_bones15axum_extractors5testss_36idempotency_key_too_long_rejects_4000B7_
FNDA:1,_RNCNvNtNtCs1ufPfM0GhR0_9api_bones15axum_extractors5testss_38authorization_empty_scheme_rejects_4010B7_
FNDA:1,_RNCNvNtNtCs1ufPfM0GhR0_9api_bones15axum_extractors5testss_39api_version_non_utf8_header_rejects_4000B7_
FNDA:1,_RNCNvNtNtCs1ufPfM0GhR0_9api_bones15axum_extractors5testss_41authorization_non_utf8_header_rejects_4010B7_
FNDA:1,_RNCNvNtNtCs1ufPfM0GhR0_9api_bones15axum_extractors5testss_41authorization_require_scheme_mismatch_4010B7_
FNDA:1,_RNCNvNtNtCs1ufPfM0GhR0_9api_bones15axum_extractors5testss_43api_version_invalid_query_value_rejects_4000B7_
FNDA:1,_RNCNvNtNtCs1ufPfM0GhR0_9api_bones15axum_extractors5testss_44api_version_from_query_with_preceding_params0B7_
FNDA:1,_RNCNvNtNtCs1ufPfM0GhR0_9api_bones15axum_extractors5testss_44api_version_invalid_header_value_rejects_4000B7_
FNDA:5,_RNvNtNtCs1ufPfM0GhR0_9api_bones15axum_extractors5tests12extract_auth
FNDA:8,_RNvNtNtCs1ufPfM0GhR0_9api_bones15axum_extractors5tests15extract_version
FNDA:5,_RNvNtNtCs1ufPfM0GhR0_9api_bones15axum_extractors5tests18extract_request_id
FNDA:5,_RNvNtNtCs1ufPfM0GhR0_9api_bones15axum_extractors5tests19extract_idempotency
FNDA:1,_RNvNtNtCs1ufPfM0GhR0_9api_bones15axum_extractors5testss_18request_id_display
FNDA:1,_RNvNtNtCs1ufPfM0GhR0_9api_bones15axum_extractors5testss_18request_id_present
FNDA:1,_RNvNtNtCs1ufPfM0GhR0_9api_bones15axum_extractors5testss_19api_version_display
FNDA:1,_RNvNtNtCs1ufPfM0GhR0_9api_bones15axum_extractors5testss_20authorization_bearer
FNDA:1,_RNvNtNtCs1ufPfM0GhR0_9api_bones15axum_extractors5testss_21idempotency_key_deref
FNDA:1,_RNvNtNtCs1ufPfM0GhR0_9api_bones15axum_extractors5testss_22api_version_from_query
FNDA:1,_RNvNtNtCs1ufPfM0GhR0_9api_bones15axum_extractors5testss_23api_version_from_header
FNDA:1,_RNvNtNtCs1ufPfM0GhR0_9api_bones15axum_extractors5testss_23idempotency_key_display
FNDA:1,_RNvNtNtCs1ufPfM0GhR0_9api_bones15axum_extractors5testss_23idempotency_key_present
FNDA:1,_RNvNtNtCs1ufPfM0GhR0_9api_bones15axum_extractors5testss_25request_id_deref_to_inner
FNDA:1,_RNvNtNtCs1ufPfM0GhR0_9api_bones15axum_extractors5testss_30request_id_missing_rejects_400
FNDA:1,_RNvNtNtCs1ufPfM0GhR0_9api_bones15axum_extractors5testss_31api_version_missing_rejects_400
FNDA:1,_RNvNtNtCs1ufPfM0GhR0_9api_bones15axum_extractors5testss_31authorization_require_scheme_ok
FNDA:1,_RNvNtNtCs1ufPfM0GhR0_9api_bones15axum_extractors5testss_31request_id_non_utf8_rejects_400
FNDA:1,_RNvNtNtCs1ufPfM0GhR0_9api_bones15axum_extractors5testss_33authorization_missing_rejects_401
FNDA:1,_RNvNtNtCs1ufPfM0GhR0_9api_bones15axum_extractors5testss_35api_version_header_takes_precedence
FNDA:1,_RNvNtNtCs1ufPfM0GhR0_9api_bones15axum_extractors5testss_35idempotency_key_missing_rejects_400
FNDA:1,_RNvNtNtCs1ufPfM0GhR0_9api_bones15axum_extractors5testss_35request_id_invalid_uuid_rejects_400
FNDA:1,_RNvNtNtCs1ufPfM0GhR0_9api_bones15axum_extractors5testss_36idempotency_key_non_utf8_rejects_400
FNDA:1,_RNvNtNtCs1ufPfM0GhR0_9api_bones15axum_extractors5testss_36idempotency_key_too_long_rejects_400
FNDA:1,_RNvNtNtCs1ufPfM0GhR0_9api_bones15axum_extractors5testss_38authorization_empty_scheme_rejects_401
FNDA:1,_RNvNtNtCs1ufPfM0GhR0_9api_bones15axum_extractors5testss_39api_version_non_utf8_header_rejects_400
FNDA:1,_RNvNtNtCs1ufPfM0GhR0_9api_bones15axum_extractors5testss_41authorization_non_utf8_header_rejects_401
FNDA:1,_RNvNtNtCs1ufPfM0GhR0_9api_bones15axum_extractors5testss_41authorization_require_scheme_mismatch_401
FNDA:1,_RNvNtNtCs1ufPfM0GhR0_9api_bones15axum_extractors5testss_43api_version_invalid_query_value_rejects_400
FNDA:1,_RNvNtNtCs1ufPfM0GhR0_9api_bones15axum_extractors5testss_44api_version_from_query_with_preceding_params
FNDA:1,_RNvNtNtCs1ufPfM0GhR0_9api_bones15axum_extractors5testss_44api_version_invalid_header_value_rejects_400
FNDA:0,_RNCNCNvXININtCs6zS5XWhHsrg_9api_bones15axum_extractorss_0pENtB9_13AuthorizationINtNtCsgRxEIuGfDXj_9axum_core7extract16FromRequestPartspE18from_request_parts00Bb_
FNDA:0,_RNCNCNvXININtCs6zS5XWhHsrg_9api_bones15axum_extractorss_0pENtB9_13AuthorizationINtNtCsgRxEIuGfDXj_9axum_core7extract16FromRequestPartspE18from_request_parts0s0_0Bb_
FNDA:0,_RNCNCNvXININtCs6zS5XWhHsrg_9api_bones15axum_extractorss_0pENtB9_13AuthorizationINtNtCsgRxEIuGfDXj_9axum_core7extract16FromRequestPartspE18from_request_parts0s1_0Bb_
FNDA:0,_RNCNCNvXININtCs6zS5XWhHsrg_9api_bones15axum_extractorss_0pENtB9_13AuthorizationINtNtCsgRxEIuGfDXj_9axum_core7extract16FromRequestPartspE18from_request_parts0s_0Bb_
FNDA:0,_RNCNvXININtCs6zS5XWhHsrg_9api_bones15axum_extractorss_0pENtB7_13AuthorizationINtNtCsgRxEIuGfDXj_9axum_core7extract16FromRequestPartspE18from_request_parts0B9_
FNDA:0,_RNvXININtCs6zS5XWhHsrg_9api_bones15axum_extractorss_0pENtB5_13AuthorizationINtNtCsgRxEIuGfDXj_9axum_core7extract16FromRequestPartspE18from_request_partsB7_
FNDA:0,_RNCNCNvXs_NtCs6zS5XWhHsrg_9api_bones15axum_extractorsNtB8_13AuthorizationINtNtCsgRxEIuGfDXj_9axum_core7extract16FromRequestPartsuE18from_request_parts00Csi3Z6uToK8f7_20axum_core_extractors
FNDA:0,_RNCNCNvXs_NtCs6zS5XWhHsrg_9api_bones15axum_extractorsNtB8_13AuthorizationINtNtCsgRxEIuGfDXj_9axum_core7extract16FromRequestPartsuE18from_request_parts0s0_0Csi3Z6uToK8f7_20axum_core_extractors
FNDA:0,_RNCNCNvXs_NtCs6zS5XWhHsrg_9api_bones15axum_extractorsNtB8_13AuthorizationINtNtCsgRxEIuGfDXj_9axum_core7extract16FromRequestPartsuE18from_request_parts0s1_0Csi3Z6uToK8f7_20axum_core_extractors
FNDA:0,_RNCNCNvXs_NtCs6zS5XWhHsrg_9api_bones15axum_extractorsNtB8_13AuthorizationINtNtCsgRxEIuGfDXj_9axum_core7extract16FromRequestPartsuE18from_request_parts0s_0Csi3Z6uToK8f7_20axum_core_extractors
FNDA:0,_RNCNvXs_NtCs6zS5XWhHsrg_9api_bones15axum_extractorsNtB6_13AuthorizationINtNtCsgRxEIuGfDXj_9axum_core7extract16FromRequestPartsuE18from_request_parts0Csi3Z6uToK8f7_20axum_core_extractors
FNDA:0,_RNvXs_NtCs6zS5XWhHsrg_9api_bones15axum_extractorsNtB4_13AuthorizationINtNtCsgRxEIuGfDXj_9axum_core7extract16FromRequestPartsuE18from_request_partsCsi3Z6uToK8f7_20axum_core_extractors
FNDA:0,_RNvMNtCs6zS5XWhHsrg_9api_bones15axum_extractorsNtB2_13Authorization14require_scheme
FNF:69
FNH:69
DA:88,2
DA:89,2
DA:90,1
DA:92,1
DA:93,1
DA:94,1
DA:95,1
DA:97,2
DA:103,6
DA:104,6
DA:105,6
DA:106,6
DA:107,6
DA:108,5
DA:109,5
DA:111,4
DA:112,4
DA:113,4
DA:114,4
DA:115,4
DA:116,3
DA:117,3
DA:119,3
DA:120,3
DA:121,3
DA:122,3
DA:123,6
DA:139,5
DA:140,5
DA:141,5
DA:142,4
DA:143,4
DA:144,5
DA:145,5
DA:146,5
DA:147,5
DA:149,5
DA:150,5
DA:151,5
DA:152,4
DA:153,4
DA:154,5
DA:155,5
DA:156,5
DA:157,5
DA:159,8
DA:160,8
DA:161,8
DA:162,4
DA:163,4
DA:164,8
DA:165,8
DA:166,8
DA:167,8
DA:169,5
DA:170,5
DA:171,5
DA:172,4
DA:173,4
DA:174,5
DA:175,5
DA:176,5
DA:177,5
DA:180,1
DA:181,1
DA:182,1
DA:183,1
DA:184,1
DA:185,1
DA:188,1
DA:189,1
DA:190,1
DA:191,1
DA:194,1
DA:195,1
DA:196,1
DA:197,1
DA:198,1
DA:199,1
DA:202,1
DA:203,1
DA:204,1
DA:205,1
DA:206,1
DA:207,1
DA:210,1
DA:211,1
DA:212,1
DA:213,1
DA:214,1
DA:215,1
DA:218,1
DA:219,1
DA:220,1
DA:221,1
DA:224,1
DA:225,1
DA:226,1
DA:227,1
DA:228,1
DA:229,1
DA:230,1
DA:233,1
DA:234,1
DA:235,1
DA:236,1
DA:237,1
DA:238,1
DA:241,1
DA:242,1
DA:243,1
DA:244,1
DA:247,1
DA:248,1
DA:249,1
DA:250,1
DA:251,1
DA:252,1
DA:255,1
DA:256,1
DA:257,1
DA:258,1
DA:261,1
DA:262,1
DA:263,1
DA:264,1
DA:265,1
DA:268,1
DA:269,1
DA:270,1
DA:271,1
DA:274,1
DA:275,1
DA:276,1
DA:277,1
DA:280,1
DA:281,1
DA:282,1
DA:283,1
DA:284,1
DA:287,1
DA:288,1
DA:289,1
DA:290,1
DA:291,1
DA:292,1
DA:295,1
DA:296,1
DA:297,1
DA:298,1
DA:299,1
DA:300,1
DA:303,1
DA:304,1
DA:305,1
DA:306,1
DA:307,1
DA:308,1
DA:309,1
DA:312,1
DA:313,1
DA:314,1
DA:315,1
DA:316,1
DA:317,1
DA:320,1
DA:322,1
DA:323,1
DA:324,1
DA:325,1
DA:326,1
DA:327,1
DA:328,1
DA:329,1
DA:330,1
DA:333,1
DA:335,1
DA:336,1
DA:337,1
DA:338,1
DA:339,1
DA:340,1
DA:341,1
DA:342,1
DA:343,1
DA:346,1
DA:348,1
DA:349,1
DA:350,1
DA:351,1
DA:352,1
DA:353,1
DA:354,1
DA:355,1
DA:356,1
DA:359,1
DA:361,1
DA:362,1
DA:363,1
DA:364,1
DA:365,1
DA:366,1
DA:367,1
DA:368,1
DA:369,1
DA:372,1
DA:373,1
DA:374,1
DA:375,1
DA:378,1
DA:379,1
DA:380,1
DA:381,1
DA:384,1
DA:385,1
DA:386,1
DA:387,1
DA:388,1
DA:389,1
DA:392,1
DA:393,1
DA:394,1
DA:395,1
BRF:0
BRH:0
LF:286
LH:286
end_of_record
SF:/Users/gsalingu/git/api-bones/.claude/worktrees/feat+211-nested-org-adr/src/bulk.rs
FN:181,_RNCNvMs_NtCs1ufPfM0GhR0_9api_bones4bulkINtB6_12BulkResponseNtNtCsipk7xt2ATo7_5alloc6string6StringE12failed_count0B8_
FN:161,_RNCNvMs_NtCs1ufPfM0GhR0_9api_bones4bulkINtB6_12BulkResponseNtNtCsipk7xt2ATo7_5alloc6string6StringE15succeeded_count0B8_
FN:181,_RNCNvMs_NtCs1ufPfM0GhR0_9api_bones4bulkINtB6_12BulkResponselE12failed_count0B8_
FN:161,_RNCNvMs_NtCs1ufPfM0GhR0_9api_bones4bulkINtB6_12BulkResponselE15succeeded_count0B8_
FN:121,_RNvMNtCs1ufPfM0GhR0_9api_bones4bulkINtB2_14BulkItemResultNtNtCsipk7xt2ATo7_5alloc6string6StringE10is_failureB4_
FN:102,_RNvMNtCs1ufPfM0GhR0_9api_bones4bulkINtB2_14BulkItemResultNtNtCsipk7xt2ATo7_5alloc6string6StringE10is_successB4_
FN:121,_RNvMNtCs1ufPfM0GhR0_9api_bones4bulkINtB2_14BulkItemResultlE10is_failureB4_
FN:102,_RNvMNtCs1ufPfM0GhR0_9api_bones4bulkINtB2_14BulkItemResultlE10is_successB4_
FN:180,_RNvMs_NtCs1ufPfM0GhR0_9api_bones4bulkINtB4_12BulkResponseNtNtCsipk7xt2ATo7_5alloc6string6StringE12failed_countB6_
FN:201,_RNvMs_NtCs1ufPfM0GhR0_9api_bones4bulkINtB4_12BulkResponseNtNtCsipk7xt2ATo7_5alloc6string6StringE12has_failuresB6_
FN:160,_RNvMs_NtCs1ufPfM0GhR0_9api_bones4bulkINtB4_12BulkResponseNtNtCsipk7xt2ATo7_5alloc6string6StringE15succeeded_countB6_
FN:180,_RNvMs_NtCs1ufPfM0GhR0_9api_bones4bulkINtB4_12BulkResponselE12failed_countB6_
FN:201,_RNvMs_NtCs1ufPfM0GhR0_9api_bones4bulkINtB4_12BulkResponselE12has_failuresB6_
FN:160,_RNvMs_NtCs1ufPfM0GhR0_9api_bones4bulkINtB4_12BulkResponselE15succeeded_countB6_
FN:215,_RNvNtNtCs1ufPfM0GhR0_9api_bones4bulk5tests10make_error
FN:232,_RNvNtNtCs1ufPfM0GhR0_9api_bones4bulk5testss_18bulk_request_empty
FN:316,_RNvNtNtCs1ufPfM0GhR0_9api_bones4bulk5testss_19bulk_response_empty
FN:295,_RNvNtNtCs1ufPfM0GhR0_9api_bones4bulk5testss_19bulk_response_mixed
FN:224,_RNvNtNtCs1ufPfM0GhR0_9api_bones4bulk5testss_25bulk_request_construction
FN:276,_RNvNtNtCs1ufPfM0GhR0_9api_bones4bulk5testss_25bulk_response_all_failure
FN:263,_RNvNtNtCs1ufPfM0GhR0_9api_bones4bulk5testss_25bulk_response_all_success
FN:329,_RNvNtNtCs1ufPfM0GhR0_9api_bones4bulk5testss_29bulk_request_serde_round_trip
FN:249,_RNvNtNtCs1ufPfM0GhR0_9api_bones4bulk5testss_35bulk_item_result_failure_is_failure
FN:242,_RNvNtNtCs1ufPfM0GhR0_9api_bones4bulk5testss_35bulk_item_result_success_is_success
FN:368,_RNvNtNtCs1ufPfM0GhR0_9api_bones4bulk5testss_36bulk_response_serde_round_trip_mixed
FN:390,_RNvNtNtCs1ufPfM0GhR0_9api_bones4bulk5testss_39bulk_item_result_failure_uses_api_error
FN:354,_RNvNtNtCs1ufPfM0GhR0_9api_bones4bulk5testss_41bulk_item_result_failure_serde_round_trip
FN:341,_RNvNtNtCs1ufPfM0GhR0_9api_bones4bulk5testss_41bulk_item_result_success_serde_round_trip
FN:181,_RNCNvMs_NtCs6zS5XWhHsrg_9api_bones4bulkINtB6_12BulkResponsepE12failed_count0B8_
FN:161,_RNCNvMs_NtCs6zS5XWhHsrg_9api_bones4bulkINtB6_12BulkResponsepE15succeeded_count0B8_
FN:121,_RNvMNtCs6zS5XWhHsrg_9api_bones4bulkINtB2_14BulkItemResultpE10is_failureB4_
FN:102,_RNvMNtCs6zS5XWhHsrg_9api_bones4bulkINtB2_14BulkItemResultpE10is_successB4_
FN:180,_RNvMs_NtCs6zS5XWhHsrg_9api_bones4bulkINtB4_12BulkResponsepE12failed_countB6_
FN:201,_RNvMs_NtCs6zS5XWhHsrg_9api_bones4bulkINtB4_12BulkResponsepE12has_failuresB6_
FN:160,_RNvMs_NtCs6zS5XWhHsrg_9api_bones4bulkINtB4_12BulkResponsepE15succeeded_countB6_
FN:181,_RNCNvMs_NtCs6zS5XWhHsrg_9api_bones4bulkINtB6_12BulkResponseNtCsdc0ucZ8kxm6_13bulk_envelope5OrderE12failed_count0BX_
FN:161,_RNCNvMs_NtCs6zS5XWhHsrg_9api_bones4bulkINtB6_12BulkResponseNtCsdc0ucZ8kxm6_13bulk_envelope5OrderE15succeeded_count0BX_
FN:121,_RNvMNtCs6zS5XWhHsrg_9api_bones4bulkINtB2_14BulkItemResultNtCsdc0ucZ8kxm6_13bulk_envelope5OrderE10is_failureBV_
FN:102,_RNvMNtCs6zS5XWhHsrg_9api_bones4bulkINtB2_14BulkItemResultNtCsdc0ucZ8kxm6_13bulk_envelope5OrderE10is_successBV_
FN:180,_RNvMs_NtCs6zS5XWhHsrg_9api_bones4bulkINtB4_12BulkResponseNtCsdc0ucZ8kxm6_13bulk_envelope5OrderE12failed_countBV_
FN:201,_RNvMs_NtCs6zS5XWhHsrg_9api_bones4bulkINtB4_12BulkResponseNtCsdc0ucZ8kxm6_13bulk_envelope5OrderE12has_failuresBV_
FN:160,_RNvMs_NtCs6zS5XWhHsrg_9api_bones4bulkINtB4_12BulkResponseNtCsdc0ucZ8kxm6_13bulk_envelope5OrderE15succeeded_countBV_
FN:181,_RNCNvMs_NtCs6zS5XWhHsrg_9api_bones4bulkINtB6_12BulkResponseNtNtCsipk7xt2ATo7_5alloc6string6StringE12failed_count0CsiBlXQkauzCX_15bulk_operations
FN:161,_RNCNvMs_NtCs6zS5XWhHsrg_9api_bones4bulkINtB6_12BulkResponseNtNtCsipk7xt2ATo7_5alloc6string6StringE15succeeded_count0CsiBlXQkauzCX_15bulk_operations
FN:121,_RNvMNtCs6zS5XWhHsrg_9api_bones4bulkINtB2_14BulkItemResultNtNtCsipk7xt2ATo7_5alloc6string6StringE10is_failureCsiBlXQkauzCX_15bulk_operations
FN:102,_RNvMNtCs6zS5XWhHsrg_9api_bones4bulkINtB2_14BulkItemResultNtNtCsipk7xt2ATo7_5alloc6string6StringE10is_successCsiBlXQkauzCX_15bulk_operations
FN:180,_RNvMs_NtCs6zS5XWhHsrg_9api_bones4bulkINtB4_12BulkResponseNtNtCsipk7xt2ATo7_5alloc6string6StringE12failed_countCsiBlXQkauzCX_15bulk_operations
FN:201,_RNvMs_NtCs6zS5XWhHsrg_9api_bones4bulkINtB4_12BulkResponseNtNtCsipk7xt2ATo7_5alloc6string6StringE12has_failuresCsiBlXQkauzCX_15bulk_operations
FN:160,_RNvMs_NtCs6zS5XWhHsrg_9api_bones4bulkINtB4_12BulkResponseNtNtCsipk7xt2ATo7_5alloc6string6StringE15succeeded_countCsiBlXQkauzCX_15bulk_operations
FNDA:3,_RNCNvMs_NtCs1ufPfM0GhR0_9api_bones4bulkINtB6_12BulkResponseNtNtCsipk7xt2ATo7_5alloc6string6StringE12failed_count0B8_
FNDA:3,_RNCNvMs_NtCs1ufPfM0GhR0_9api_bones4bulkINtB6_12BulkResponseNtNtCsipk7xt2ATo7_5alloc6string6StringE15succeeded_count0B8_
FNDA:4,_RNCNvMs_NtCs1ufPfM0GhR0_9api_bones4bulkINtB6_12BulkResponselE12failed_count0B8_
FNDA:4,_RNCNvMs_NtCs1ufPfM0GhR0_9api_bones4bulkINtB6_12BulkResponselE15succeeded_count0B8_
FNDA:5,_RNvMNtCs1ufPfM0GhR0_9api_bones4bulkINtB2_14BulkItemResultNtNtCsipk7xt2ATo7_5alloc6string6StringE10is_failureB4_
FNDA:3,_RNvMNtCs1ufPfM0GhR0_9api_bones4bulkINtB2_14BulkItemResultNtNtCsipk7xt2ATo7_5alloc6string6StringE10is_successB4_
FNDA:9,_RNvMNtCs1ufPfM0GhR0_9api_bones4bulkINtB2_14BulkItemResultlE10is_failureB4_
FNDA:6,_RNvMNtCs1ufPfM0GhR0_9api_bones4bulkINtB2_14BulkItemResultlE10is_successB4_
FNDA:1,_RNvMs_NtCs1ufPfM0GhR0_9api_bones4bulkINtB4_12BulkResponseNtNtCsipk7xt2ATo7_5alloc6string6StringE12failed_countB6_
FNDA:1,_RNvMs_NtCs1ufPfM0GhR0_9api_bones4bulkINtB4_12BulkResponseNtNtCsipk7xt2ATo7_5alloc6string6StringE12has_failuresB6_
FNDA:1,_RNvMs_NtCs1ufPfM0GhR0_9api_bones4bulkINtB4_12BulkResponseNtNtCsipk7xt2ATo7_5alloc6string6StringE15succeeded_countB6_
FNDA:3,_RNvMs_NtCs1ufPfM0GhR0_9api_bones4bulkINtB4_12BulkResponselE12failed_countB6_
FNDA:3,_RNvMs_NtCs1ufPfM0GhR0_9api_bones4bulkINtB4_12BulkResponselE12has_failuresB6_
FNDA:3,_RNvMs_NtCs1ufPfM0GhR0_9api_bones4bulkINtB4_12BulkResponselE15succeeded_countB6_
FNDA:6,_RNvNtNtCs1ufPfM0GhR0_9api_bones4bulk5tests10make_error
FNDA:1,_RNvNtNtCs1ufPfM0GhR0_9api_bones4bulk5testss_18bulk_request_empty
FNDA:1,_RNvNtNtCs1ufPfM0GhR0_9api_bones4bulk5testss_19bulk_response_empty
FNDA:1,_RNvNtNtCs1ufPfM0GhR0_9api_bones4bulk5testss_19bulk_response_mixed
FNDA:1,_RNvNtNtCs1ufPfM0GhR0_9api_bones4bulk5testss_25bulk_request_construction
FNDA:1,_RNvNtNtCs1ufPfM0GhR0_9api_bones4bulk5testss_25bulk_response_all_failure
FNDA:1,_RNvNtNtCs1ufPfM0GhR0_9api_bones4bulk5testss_25bulk_response_all_success
FNDA:1,_RNvNtNtCs1ufPfM0GhR0_9api_bones4bulk5testss_29bulk_request_serde_round_trip
FNDA:1,_RNvNtNtCs1ufPfM0GhR0_9api_bones4bulk5testss_35bulk_item_result_failure_is_failure
FNDA:1,_RNvNtNtCs1ufPfM0GhR0_9api_bones4bulk5testss_35bulk_item_result_success_is_success
FNDA:1,_RNvNtNtCs1ufPfM0GhR0_9api_bones4bulk5testss_36bulk_response_serde_round_trip_mixed
FNDA:1,_RNvNtNtCs1ufPfM0GhR0_9api_bones4bulk5testss_39bulk_item_result_failure_uses_api_error
FNDA:1,_RNvNtNtCs1ufPfM0GhR0_9api_bones4bulk5testss_41bulk_item_result_failure_serde_round_trip
FNDA:1,_RNvNtNtCs1ufPfM0GhR0_9api_bones4bulk5testss_41bulk_item_result_success_serde_round_trip
FNDA:0,_RNCNvMs_NtCs6zS5XWhHsrg_9api_bones4bulkINtB6_12BulkResponsepE12failed_count0B8_
FNDA:0,_RNCNvMs_NtCs6zS5XWhHsrg_9api_bones4bulkINtB6_12BulkResponsepE15succeeded_count0B8_
FNDA:0,_RNvMNtCs6zS5XWhHsrg_9api_bones4bulkINtB2_14BulkItemResultpE10is_failureB4_
FNDA:0,_RNvMNtCs6zS5XWhHsrg_9api_bones4bulkINtB2_14BulkItemResultpE10is_successB4_
FNDA:0,_RNvMs_NtCs6zS5XWhHsrg_9api_bones4bulkINtB4_12BulkResponsepE12failed_countB6_
FNDA:0,_RNvMs_NtCs6zS5XWhHsrg_9api_bones4bulkINtB4_12BulkResponsepE12has_failuresB6_
FNDA:0,_RNvMs_NtCs6zS5XWhHsrg_9api_bones4bulkINtB4_12BulkResponsepE15succeeded_countB6_
FNDA:0,_RNCNvMs_NtCs6zS5XWhHsrg_9api_bones4bulkINtB6_12BulkResponseNtCsdc0ucZ8kxm6_13bulk_envelope5OrderE12failed_count0BX_
FNDA:0,_RNCNvMs_NtCs6zS5XWhHsrg_9api_bones4bulkINtB6_12BulkResponseNtCsdc0ucZ8kxm6_13bulk_envelope5OrderE15succeeded_count0BX_
FNDA:0,_RNvMNtCs6zS5XWhHsrg_9api_bones4bulkINtB2_14BulkItemResultNtCsdc0ucZ8kxm6_13bulk_envelope5OrderE10is_failureBV_
FNDA:0,_RNvMNtCs6zS5XWhHsrg_9api_bones4bulkINtB2_14BulkItemResultNtCsdc0ucZ8kxm6_13bulk_envelope5OrderE10is_successBV_
FNDA:0,_RNvMs_NtCs6zS5XWhHsrg_9api_bones4bulkINtB4_12BulkResponseNtCsdc0ucZ8kxm6_13bulk_envelope5OrderE12failed_countBV_
FNDA:0,_RNvMs_NtCs6zS5XWhHsrg_9api_bones4bulkINtB4_12BulkResponseNtCsdc0ucZ8kxm6_13bulk_envelope5OrderE12has_failuresBV_
FNDA:0,_RNvMs_NtCs6zS5XWhHsrg_9api_bones4bulkINtB4_12BulkResponseNtCsdc0ucZ8kxm6_13bulk_envelope5OrderE15succeeded_countBV_
FNDA:0,_RNCNvMs_NtCs6zS5XWhHsrg_9api_bones4bulkINtB6_12BulkResponseNtNtCsipk7xt2ATo7_5alloc6string6StringE12failed_count0CsiBlXQkauzCX_15bulk_operations
FNDA:0,_RNCNvMs_NtCs6zS5XWhHsrg_9api_bones4bulkINtB6_12BulkResponseNtNtCsipk7xt2ATo7_5alloc6string6StringE15succeeded_count0CsiBlXQkauzCX_15bulk_operations
FNDA:0,_RNvMNtCs6zS5XWhHsrg_9api_bones4bulkINtB2_14BulkItemResultNtNtCsipk7xt2ATo7_5alloc6string6StringE10is_failureCsiBlXQkauzCX_15bulk_operations
FNDA:0,_RNvMNtCs6zS5XWhHsrg_9api_bones4bulkINtB2_14BulkItemResultNtNtCsipk7xt2ATo7_5alloc6string6StringE10is_successCsiBlXQkauzCX_15bulk_operations
FNDA:0,_RNvMs_NtCs6zS5XWhHsrg_9api_bones4bulkINtB4_12BulkResponseNtNtCsipk7xt2ATo7_5alloc6string6StringE12failed_countCsiBlXQkauzCX_15bulk_operations
FNDA:0,_RNvMs_NtCs6zS5XWhHsrg_9api_bones4bulkINtB4_12BulkResponseNtNtCsipk7xt2ATo7_5alloc6string6StringE12has_failuresCsiBlXQkauzCX_15bulk_operations
FNDA:0,_RNvMs_NtCs6zS5XWhHsrg_9api_bones4bulkINtB4_12BulkResponseNtNtCsipk7xt2ATo7_5alloc6string6StringE15succeeded_countCsiBlXQkauzCX_15bulk_operations
FNF:21
FNH:21
DA:102,9
DA:103,9
DA:104,9
DA:121,14
DA:122,14
DA:123,14
DA:160,4
DA:161,7
DA:162,4
DA:180,4
DA:181,7
DA:182,4
DA:201,4
DA:202,4
DA:203,4
DA:215,6
DA:216,6
DA:217,6
DA:224,1
DA:225,1
DA:226,1
DA:227,1
DA:228,1
DA:229,1
DA:232,1
DA:233,1
DA:234,1
DA:235,1
DA:242,1
DA:243,1
DA:244,1
DA:245,1
DA:246,1
DA:249,1
DA:250,1
DA:251,1
DA:252,1
DA:253,1
DA:254,1
DA:255,1
DA:256,1
DA:263,1
DA:264,1
DA:265,1
DA:266,1
DA:267,1
DA:268,1
DA:269,1
DA:270,1
DA:271,1
DA:272,1
DA:273,1
DA:276,1
DA:277,1
DA:278,1
DA:279,1
DA:280,1
DA:281,1
DA:282,1
DA:283,1
DA:284,1
DA:285,1
DA:286,1
DA:287,1
DA:288,1
DA:289,1
DA:290,1
DA:291,1
DA:292,1
DA:295,1
DA:296,1
DA:297,1
DA:298,1
DA:299,1
DA:300,1
DA:301,1
DA:302,1
DA:303,1
DA:304,1
DA:305,1
DA:306,1
DA:307,1
DA:308,1
DA:309,1
DA:310,1
DA:311,1
DA:312,1
DA:313,1
DA:316,1
DA:317,1
DA:318,1
DA:319,1
DA:320,1
DA:321,1
DA:329,1
DA:330,1
DA:331,1
DA:332,1
DA:333,1
DA:334,1
DA:335,1
DA:336,1
DA:337,1
DA:341,1
DA:342,1
DA:343,1
DA:344,1
DA:345,1
DA:346,1
DA:347,1
DA:348,1
DA:349,1
DA:350,1
DA:354,1
DA:355,1
DA:356,1
DA:357,1
DA:358,1
DA:359,1
DA:360,1
DA:361,1
DA:362,1
DA:363,1
DA:364,1
DA:368,1
DA:369,1
DA:370,1
DA:371,1
DA:372,1
DA:373,1
DA:374,1
DA:375,1
DA:376,1
DA:377,1
DA:378,1
DA:379,1
DA:380,1
DA:381,1
DA:382,1
DA:383,1
DA:390,1
DA:391,1
DA:392,1
DA:393,1
DA:394,1
DA:395,1
DA:396,1
DA:397,1
DA:399,0
DA:401,1
BRF:0
BRH:0
LF:152
LH:151
end_of_record
SF:/Users/gsalingu/git/api-bones/.claude/worktrees/feat+211-nested-org-adr/src/cache.rs
FN:364,_RNCNCNvXs2_NtCs1ufPfM0GhR0_9api_bones5cacheNtB9_12CacheControlNtNtNtCsbUtogaBoXXO_4core3str6traits7FromStr8from_str00Bb_
FN:366,_RNCNCNvXs2_NtCs1ufPfM0GhR0_9api_bones5cacheNtB9_12CacheControlNtNtNtCsbUtogaBoXXO_4core3str6traits7FromStr8from_str0s_0Bb_
FN:363,_RNCNvXs2_NtCs1ufPfM0GhR0_9api_bones5cacheNtB7_12CacheControlNtNtNtCsbUtogaBoXXO_4core3str6traits7FromStr8from_str0B9_
FN:385,_RNCNvXs2_NtCs1ufPfM0GhR0_9api_bones5cacheNtB7_12CacheControlNtNtNtCsbUtogaBoXXO_4core3str6traits7FromStr8from_strs_0B9_
FN:290,_RNCNvXs_NtCs1ufPfM0GhR0_9api_bones5cacheNtB6_12CacheControlNtNtCsbUtogaBoXXO_4core3fmt7Display3fmt0B8_
FN:293,_RNCNvXs_NtCs1ufPfM0GhR0_9api_bones5cacheNtB6_12CacheControlNtNtCsbUtogaBoXXO_4core3fmt7Display3fmts0_0B8_
FN:294,_RNCNvXs_NtCs1ufPfM0GhR0_9api_bones5cacheNtB6_12CacheControlNtNtCsbUtogaBoXXO_4core3fmt7Display3fmts1_0B8_
FN:295,_RNCNvXs_NtCs1ufPfM0GhR0_9api_bones5cacheNtB6_12CacheControlNtNtCsbUtogaBoXXO_4core3fmt7Display3fmts2_0B8_
FN:296,_RNCNvXs_NtCs1ufPfM0GhR0_9api_bones5cacheNtB6_12CacheControlNtNtCsbUtogaBoXXO_4core3fmt7Display3fmts3_0B8_
FN:291,_RNCNvXs_NtCs1ufPfM0GhR0_9api_bones5cacheNtB6_12CacheControlNtNtCsbUtogaBoXXO_4core3fmt7Display3fmts_0B8_
FN:485,_RNvNtNtCs1ufPfM0GhR0_9api_bones5cache5testss_15builder_private
FN:492,_RNvNtNtCs1ufPfM0GhR0_9api_bones5cache5testss_16builder_no_cache
FN:416,_RNvNtNtCs1ufPfM0GhR0_9api_bones5cache5testss_16builder_no_store
FN:520,_RNvNtNtCs1ufPfM0GhR0_9api_bones5cache5testss_16builder_s_maxage
FN:403,_RNvNtNtCs1ufPfM0GhR0_9api_bones5cache5testss_16default_is_empty
FN:548,_RNvNtNtCs1ufPfM0GhR0_9api_bones5cache5testss_17builder_max_stale
FN:555,_RNvNtNtCs1ufPfM0GhR0_9api_bones5cache5testss_17builder_min_fresh
FN:451,_RNvNtNtCs1ufPfM0GhR0_9api_bones5cache5testss_17roundtrip_complex
FN:430,_RNvNtNtCs1ufPfM0GhR0_9api_bones5cache5testss_18parse_simple_flags
FN:499,_RNvNtNtCs1ufPfM0GhR0_9api_bones5cache5testss_20builder_no_transform
FN:541,_RNvNtNtCs1ufPfM0GhR0_9api_bones5cache5testss_22builder_only_if_cached
FN:534,_RNvNtNtCs1ufPfM0GhR0_9api_bones5cache5testss_22builder_stale_if_error
FN:466,_RNvNtNtCs1ufPfM0GhR0_9api_bones5cache5testss_22parse_case_insensitive
FN:506,_RNvNtNtCs1ufPfM0GhR0_9api_bones5cache5testss_23builder_must_revalidate
FN:422,_RNvNtNtCs1ufPfM0GhR0_9api_bones5cache5testss_24builder_private_no_cache
FN:513,_RNvNtNtCs1ufPfM0GhR0_9api_bones5cache5testss_24builder_proxy_revalidate
FN:473,_RNvNtNtCs1ufPfM0GhR0_9api_bones5cache5testss_24parse_max_stale_no_value
FN:437,_RNvNtNtCs1ufPfM0GhR0_9api_bones5cache5testss_24parse_numeric_directives
FN:479,_RNvNtNtCs1ufPfM0GhR0_9api_bones5cache5testss_26parse_max_stale_with_value
FN:583,_RNvNtNtCs1ufPfM0GhR0_9api_bones5cache5testss_28parse_all_boolean_directives
FN:599,_RNvNtNtCs1ufPfM0GhR0_9api_bones5cache5testss_28parse_all_numeric_directives
FN:527,_RNvNtNtCs1ufPfM0GhR0_9api_bones5cache5testss_30builder_stale_while_revalidate
FN:445,_RNvNtNtCs1ufPfM0GhR0_9api_bones5cache5testss_31parse_unknown_directive_ignored
FN:409,_RNvNtNtCs1ufPfM0GhR0_9api_bones5cache5testss_32builder_public_max_age_immutable
FN:562,_RNvNtNtCs1ufPfM0GhR0_9api_bones5cache5testss_33parse_cache_control_error_display
FN:577,_RNvNtNtCs1ufPfM0GhR0_9api_bones5cache5testss_34parse_numeric_bad_integer_is_error
FN:570,_RNvNtNtCs1ufPfM0GhR0_9api_bones5cache5testss_36parse_numeric_missing_value_is_error
FN:613,_RNvNtNtCs1ufPfM0GhR0_9api_bones5cache5testss_53display_mixed_boolean_and_numeric_with_only_if_cached
FN:222,_RNvMNtCs1ufPfM0GhR0_9api_bones5cacheNtB2_12CacheControl10no_caching
FN:129,_RNvMNtCs1ufPfM0GhR0_9api_bones5cacheNtB2_12CacheControl12no_transform
FN:189,_RNvMNtCs1ufPfM0GhR0_9api_bones5cacheNtB2_12CacheControl14only_if_cached
FN:178,_RNvMNtCs1ufPfM0GhR0_9api_bones5cacheNtB2_12CacheControl14stale_if_error
FN:136,_RNvMNtCs1ufPfM0GhR0_9api_bones5cacheNtB2_12CacheControl15must_revalidate
FN:235,_RNvMNtCs1ufPfM0GhR0_9api_bones5cacheNtB2_12CacheControl16private_no_cache
FN:143,_RNvMNtCs1ufPfM0GhR0_9api_bones5cacheNtB2_12CacheControl16proxy_revalidate
FN:171,_RNvMNtCs1ufPfM0GhR0_9api_bones5cacheNtB2_12CacheControl22stale_while_revalidate
FN:91,_RNvMNtCs1ufPfM0GhR0_9api_bones5cacheNtB2_12CacheControl3new
FN:101,_RNvMNtCs1ufPfM0GhR0_9api_bones5cacheNtB2_12CacheControl6public
FN:157,_RNvMNtCs1ufPfM0GhR0_9api_bones5cacheNtB2_12CacheControl7max_age
FN:108,_RNvMNtCs1ufPfM0GhR0_9api_bones5cacheNtB2_12CacheControl7private
FN:115,_RNvMNtCs1ufPfM0GhR0_9api_bones5cacheNtB2_12CacheControl8no_cache
FN:122,_RNvMNtCs1ufPfM0GhR0_9api_bones5cacheNtB2_12CacheControl8no_store
FN:164,_RNvMNtCs1ufPfM0GhR0_9api_bones5cacheNtB2_12CacheControl8s_maxage
FN:150,_RNvMNtCs1ufPfM0GhR0_9api_bones5cacheNtB2_12CacheControl9immutable
FN:196,_RNvMNtCs1ufPfM0GhR0_9api_bones5cacheNtB2_12CacheControl9max_stale
FN:203,_RNvMNtCs1ufPfM0GhR0_9api_bones5cacheNtB2_12CacheControl9min_fresh
FN:321,_RNvXs0_NtCs1ufPfM0GhR0_9api_bones5cacheNtB5_22ParseCacheControlErrorNtNtCsbUtogaBoXXO_4core3fmt7Display3fmt
FN:349,_RNvXs2_NtCs1ufPfM0GhR0_9api_bones5cacheNtB5_12CacheControlNtNtNtCsbUtogaBoXXO_4core3str6traits7FromStr8from_str
FN:245,_RNvXs_NtCs1ufPfM0GhR0_9api_bones5cacheNtB4_12CacheControlNtNtCsbUtogaBoXXO_4core3fmt7Display3fmt
FN:364,_RNCNCNvXs2_NtCs6zS5XWhHsrg_9api_bones5cacheNtB9_12CacheControlNtNtNtCsbUtogaBoXXO_4core3str6traits7FromStr8from_str00Bb_
FN:366,_RNCNCNvXs2_NtCs6zS5XWhHsrg_9api_bones5cacheNtB9_12CacheControlNtNtNtCsbUtogaBoXXO_4core3str6traits7FromStr8from_str0s_0Bb_
FN:363,_RNCNvXs2_NtCs6zS5XWhHsrg_9api_bones5cacheNtB7_12CacheControlNtNtNtCsbUtogaBoXXO_4core3str6traits7FromStr8from_str0B9_
FN:385,_RNCNvXs2_NtCs6zS5XWhHsrg_9api_bones5cacheNtB7_12CacheControlNtNtNtCsbUtogaBoXXO_4core3str6traits7FromStr8from_strs_0B9_
FN:290,_RNCNvXs_NtCs6zS5XWhHsrg_9api_bones5cacheNtB6_12CacheControlNtNtCsbUtogaBoXXO_4core3fmt7Display3fmt0B8_
FN:293,_RNCNvXs_NtCs6zS5XWhHsrg_9api_bones5cacheNtB6_12CacheControlNtNtCsbUtogaBoXXO_4core3fmt7Display3fmts0_0B8_
FN:294,_RNCNvXs_NtCs6zS5XWhHsrg_9api_bones5cacheNtB6_12CacheControlNtNtCsbUtogaBoXXO_4core3fmt7Display3fmts1_0B8_
FN:295,_RNCNvXs_NtCs6zS5XWhHsrg_9api_bones5cacheNtB6_12CacheControlNtNtCsbUtogaBoXXO_4core3fmt7Display3fmts2_0B8_
FN:296,_RNCNvXs_NtCs6zS5XWhHsrg_9api_bones5cacheNtB6_12CacheControlNtNtCsbUtogaBoXXO_4core3fmt7Display3fmts3_0B8_
FN:291,_RNCNvXs_NtCs6zS5XWhHsrg_9api_bones5cacheNtB6_12CacheControlNtNtCsbUtogaBoXXO_4core3fmt7Display3fmts_0B8_
FN:222,_RNvMNtCs6zS5XWhHsrg_9api_bones5cacheNtB2_12CacheControl10no_caching
FN:129,_RNvMNtCs6zS5XWhHsrg_9api_bones5cacheNtB2_12CacheControl12no_transform
FN:189,_RNvMNtCs6zS5XWhHsrg_9api_bones5cacheNtB2_12CacheControl14only_if_cached
FN:178,_RNvMNtCs6zS5XWhHsrg_9api_bones5cacheNtB2_12CacheControl14stale_if_error
FN:136,_RNvMNtCs6zS5XWhHsrg_9api_bones5cacheNtB2_12CacheControl15must_revalidate
FN:235,_RNvMNtCs6zS5XWhHsrg_9api_bones5cacheNtB2_12CacheControl16private_no_cache
FN:143,_RNvMNtCs6zS5XWhHsrg_9api_bones5cacheNtB2_12CacheControl16proxy_revalidate
FN:171,_RNvMNtCs6zS5XWhHsrg_9api_bones5cacheNtB2_12CacheControl22stale_while_revalidate
FN:91,_RNvMNtCs6zS5XWhHsrg_9api_bones5cacheNtB2_12CacheControl3new
FN:101,_RNvMNtCs6zS5XWhHsrg_9api_bones5cacheNtB2_12CacheControl6public
FN:157,_RNvMNtCs6zS5XWhHsrg_9api_bones5cacheNtB2_12CacheControl7max_age
FN:108,_RNvMNtCs6zS5XWhHsrg_9api_bones5cacheNtB2_12CacheControl7private
FN:115,_RNvMNtCs6zS5XWhHsrg_9api_bones5cacheNtB2_12CacheControl8no_cache
FN:122,_RNvMNtCs6zS5XWhHsrg_9api_bones5cacheNtB2_12CacheControl8no_store
FN:164,_RNvMNtCs6zS5XWhHsrg_9api_bones5cacheNtB2_12CacheControl8s_maxage
FN:150,_RNvMNtCs6zS5XWhHsrg_9api_bones5cacheNtB2_12CacheControl9immutable
FN:196,_RNvMNtCs6zS5XWhHsrg_9api_bones5cacheNtB2_12CacheControl9max_stale
FN:203,_RNvMNtCs6zS5XWhHsrg_9api_bones5cacheNtB2_12CacheControl9min_fresh
FN:321,_RNvXs0_NtCs6zS5XWhHsrg_9api_bones5cacheNtB5_22ParseCacheControlErrorNtNtCsbUtogaBoXXO_4core3fmt7Display3fmt
FN:349,_RNvXs2_NtCs6zS5XWhHsrg_9api_bones5cacheNtB5_12CacheControlNtNtNtCsbUtogaBoXXO_4core3str6traits7FromStr8from_str
FN:245,_RNvXs_NtCs6zS5XWhHsrg_9api_bones5cacheNtB4_12CacheControlNtNtCsbUtogaBoXXO_4core3fmt7Display3fmt
FNDA:1,_RNCNCNvXs2_NtCs1ufPfM0GhR0_9api_bones5cacheNtB9_12CacheControlNtNtNtCsbUtogaBoXXO_4core3str6traits7FromStr8from_str00Bb_
FNDA:1,_RNCNCNvXs2_NtCs1ufPfM0GhR0_9api_bones5cacheNtB9_12CacheControlNtNtNtCsbUtogaBoXXO_4core3str6traits7FromStr8from_str0s_0Bb_
FNDA:12,_RNCNvXs2_NtCs1ufPfM0GhR0_9api_bones5cacheNtB7_12CacheControlNtNtNtCsbUtogaBoXXO_4core3str6traits7FromStr8from_str0B9_
FNDA:2,_RNCNvXs2_NtCs1ufPfM0GhR0_9api_bones5cacheNtB7_12CacheControlNtNtNtCsbUtogaBoXXO_4core3str6traits7FromStr8from_strs_0B9_
FNDA:2,_RNCNvXs_NtCs1ufPfM0GhR0_9api_bones5cacheNtB6_12CacheControlNtNtCsbUtogaBoXXO_4core3fmt7Display3fmt0B8_
FNDA:1,_RNCNvXs_NtCs1ufPfM0GhR0_9api_bones5cacheNtB6_12CacheControlNtNtCsbUtogaBoXXO_4core3fmt7Display3fmts0_0B8_
FNDA:2,_RNCNvXs_NtCs1ufPfM0GhR0_9api_bones5cacheNtB6_12CacheControlNtNtCsbUtogaBoXXO_4core3fmt7Display3fmts1_0B8_
FNDA:2,_RNCNvXs_NtCs1ufPfM0GhR0_9api_bones5cacheNtB6_12CacheControlNtNtCsbUtogaBoXXO_4core3fmt7Display3fmts2_0B8_
FNDA:2,_RNCNvXs_NtCs1ufPfM0GhR0_9api_bones5cacheNtB6_12CacheControlNtNtCsbUtogaBoXXO_4core3fmt7Display3fmts3_0B8_
FNDA:1,_RNCNvXs_NtCs1ufPfM0GhR0_9api_bones5cacheNtB6_12CacheControlNtNtCsbUtogaBoXXO_4core3fmt7Display3fmts_0B8_
FNDA:1,_RNvNtNtCs1ufPfM0GhR0_9api_bones5cache5testss_15builder_private
FNDA:1,_RNvNtNtCs1ufPfM0GhR0_9api_bones5cache5testss_16builder_no_cache
FNDA:1,_RNvNtNtCs1ufPfM0GhR0_9api_bones5cache5testss_16builder_no_store
FNDA:1,_RNvNtNtCs1ufPfM0GhR0_9api_bones5cache5testss_16builder_s_maxage
FNDA:1,_RNvNtNtCs1ufPfM0GhR0_9api_bones5cache5testss_16default_is_empty
FNDA:1,_RNvNtNtCs1ufPfM0GhR0_9api_bones5cache5testss_17builder_max_stale
FNDA:1,_RNvNtNtCs1ufPfM0GhR0_9api_bones5cache5testss_17builder_min_fresh
FNDA:1,_RNvNtNtCs1ufPfM0GhR0_9api_bones5cache5testss_17roundtrip_complex
FNDA:1,_RNvNtNtCs1ufPfM0GhR0_9api_bones5cache5testss_18parse_simple_flags
FNDA:1,_RNvNtNtCs1ufPfM0GhR0_9api_bones5cache5testss_20builder_no_transform
FNDA:1,_RNvNtNtCs1ufPfM0GhR0_9api_bones5cache5testss_22builder_only_if_cached
FNDA:1,_RNvNtNtCs1ufPfM0GhR0_9api_bones5cache5testss_22builder_stale_if_error
FNDA:1,_RNvNtNtCs1ufPfM0GhR0_9api_bones5cache5testss_22parse_case_insensitive
FNDA:1,_RNvNtNtCs1ufPfM0GhR0_9api_bones5cache5testss_23builder_must_revalidate
FNDA:1,_RNvNtNtCs1ufPfM0GhR0_9api_bones5cache5testss_24builder_private_no_cache
FNDA:1,_RNvNtNtCs1ufPfM0GhR0_9api_bones5cache5testss_24builder_proxy_revalidate
FNDA:1,_RNvNtNtCs1ufPfM0GhR0_9api_bones5cache5testss_24parse_max_stale_no_value
FNDA:1,_RNvNtNtCs1ufPfM0GhR0_9api_bones5cache5testss_24parse_numeric_directives
FNDA:1,_RNvNtNtCs1ufPfM0GhR0_9api_bones5cache5testss_26parse_max_stale_with_value
FNDA:1,_RNvNtNtCs1ufPfM0GhR0_9api_bones5cache5testss_28parse_all_boolean_directives
FNDA:1,_RNvNtNtCs1ufPfM0GhR0_9api_bones5cache5testss_28parse_all_numeric_directives
FNDA:1,_RNvNtNtCs1ufPfM0GhR0_9api_bones5cache5testss_30builder_stale_while_revalidate
FNDA:1,_RNvNtNtCs1ufPfM0GhR0_9api_bones5cache5testss_31parse_unknown_directive_ignored
FNDA:1,_RNvNtNtCs1ufPfM0GhR0_9api_bones5cache5testss_32builder_public_max_age_immutable
FNDA:1,_RNvNtNtCs1ufPfM0GhR0_9api_bones5cache5testss_33parse_cache_control_error_display
FNDA:1,_RNvNtNtCs1ufPfM0GhR0_9api_bones5cache5testss_34parse_numeric_bad_integer_is_error
FNDA:1,_RNvNtNtCs1ufPfM0GhR0_9api_bones5cache5testss_36parse_numeric_missing_value_is_error
FNDA:1,_RNvNtNtCs1ufPfM0GhR0_9api_bones5cache5testss_53display_mixed_boolean_and_numeric_with_only_if_cached
FNDA:1,_RNvMNtCs1ufPfM0GhR0_9api_bones5cacheNtB2_12CacheControl10no_caching
FNDA:1,_RNvMNtCs1ufPfM0GhR0_9api_bones5cacheNtB2_12CacheControl12no_transform
FNDA:2,_RNvMNtCs1ufPfM0GhR0_9api_bones5cacheNtB2_12CacheControl14only_if_cached
FNDA:2,_RNvMNtCs1ufPfM0GhR0_9api_bones5cacheNtB2_12CacheControl14stale_if_error
FNDA:2,_RNvMNtCs1ufPfM0GhR0_9api_bones5cacheNtB2_12CacheControl15must_revalidate
FNDA:1,_RNvMNtCs1ufPfM0GhR0_9api_bones5cacheNtB2_12CacheControl16private_no_cache
FNDA:1,_RNvMNtCs1ufPfM0GhR0_9api_bones5cacheNtB2_12CacheControl16proxy_revalidate
FNDA:1,_RNvMNtCs1ufPfM0GhR0_9api_bones5cacheNtB2_12CacheControl22stale_while_revalidate
FNDA:28,_RNvMNtCs1ufPfM0GhR0_9api_bones5cacheNtB2_12CacheControl3new
FNDA:2,_RNvMNtCs1ufPfM0GhR0_9api_bones5cacheNtB2_12CacheControl6public
FNDA:2,_RNvMNtCs1ufPfM0GhR0_9api_bones5cacheNtB2_12CacheControl7max_age
FNDA:2,_RNvMNtCs1ufPfM0GhR0_9api_bones5cacheNtB2_12CacheControl7private
FNDA:2,_RNvMNtCs1ufPfM0GhR0_9api_bones5cacheNtB2_12CacheControl8no_cache
FNDA:2,_RNvMNtCs1ufPfM0GhR0_9api_bones5cacheNtB2_12CacheControl8no_store
FNDA:1,_RNvMNtCs1ufPfM0GhR0_9api_bones5cacheNtB2_12CacheControl8s_maxage
FNDA:1,_RNvMNtCs1ufPfM0GhR0_9api_bones5cacheNtB2_12CacheControl9immutable
FNDA:2,_RNvMNtCs1ufPfM0GhR0_9api_bones5cacheNtB2_12CacheControl9max_stale
FNDA:2,_RNvMNtCs1ufPfM0GhR0_9api_bones5cacheNtB2_12CacheControl9min_fresh
FNDA:1,_RNvXs0_NtCs1ufPfM0GhR0_9api_bones5cacheNtB5_22ParseCacheControlErrorNtNtCsbUtogaBoXXO_4core3fmt7Display3fmt
FNDA:11,_RNvXs2_NtCs1ufPfM0GhR0_9api_bones5cacheNtB5_12CacheControlNtNtNtCsbUtogaBoXXO_4core3str6traits7FromStr8from_str
FNDA:16,_RNvXs_NtCs1ufPfM0GhR0_9api_bones5cacheNtB4_12CacheControlNtNtCsbUtogaBoXXO_4core3fmt7Display3fmt
FNDA:0,_RNCNCNvXs2_NtCs6zS5XWhHsrg_9api_bones5cacheNtB9_12CacheControlNtNtNtCsbUtogaBoXXO_4core3str6traits7FromStr8from_str00Bb_
FNDA:0,_RNCNCNvXs2_NtCs6zS5XWhHsrg_9api_bones5cacheNtB9_12CacheControlNtNtNtCsbUtogaBoXXO_4core3str6traits7FromStr8from_str0s_0Bb_
FNDA:0,_RNCNvXs2_NtCs6zS5XWhHsrg_9api_bones5cacheNtB7_12CacheControlNtNtNtCsbUtogaBoXXO_4core3str6traits7FromStr8from_str0B9_
FNDA:0,_RNCNvXs2_NtCs6zS5XWhHsrg_9api_bones5cacheNtB7_12CacheControlNtNtNtCsbUtogaBoXXO_4core3str6traits7FromStr8from_strs_0B9_
FNDA:0,_RNCNvXs_NtCs6zS5XWhHsrg_9api_bones5cacheNtB6_12CacheControlNtNtCsbUtogaBoXXO_4core3fmt7Display3fmt0B8_
FNDA:0,_RNCNvXs_NtCs6zS5XWhHsrg_9api_bones5cacheNtB6_12CacheControlNtNtCsbUtogaBoXXO_4core3fmt7Display3fmts0_0B8_
FNDA:0,_RNCNvXs_NtCs6zS5XWhHsrg_9api_bones5cacheNtB6_12CacheControlNtNtCsbUtogaBoXXO_4core3fmt7Display3fmts1_0B8_
FNDA:0,_RNCNvXs_NtCs6zS5XWhHsrg_9api_bones5cacheNtB6_12CacheControlNtNtCsbUtogaBoXXO_4core3fmt7Display3fmts2_0B8_
FNDA:0,_RNCNvXs_NtCs6zS5XWhHsrg_9api_bones5cacheNtB6_12CacheControlNtNtCsbUtogaBoXXO_4core3fmt7Display3fmts3_0B8_
FNDA:0,_RNCNvXs_NtCs6zS5XWhHsrg_9api_bones5cacheNtB6_12CacheControlNtNtCsbUtogaBoXXO_4core3fmt7Display3fmts_0B8_
FNDA:0,_RNvMNtCs6zS5XWhHsrg_9api_bones5cacheNtB2_12CacheControl10no_caching
FNDA:0,_RNvMNtCs6zS5XWhHsrg_9api_bones5cacheNtB2_12CacheControl12no_transform
FNDA:0,_RNvMNtCs6zS5XWhHsrg_9api_bones5cacheNtB2_12CacheControl14only_if_cached
FNDA:0,_RNvMNtCs6zS5XWhHsrg_9api_bones5cacheNtB2_12CacheControl14stale_if_error
FNDA:0,_RNvMNtCs6zS5XWhHsrg_9api_bones5cacheNtB2_12CacheControl15must_revalidate
FNDA:0,_RNvMNtCs6zS5XWhHsrg_9api_bones5cacheNtB2_12CacheControl16private_no_cache
FNDA:0,_RNvMNtCs6zS5XWhHsrg_9api_bones5cacheNtB2_12CacheControl16proxy_revalidate
FNDA:0,_RNvMNtCs6zS5XWhHsrg_9api_bones5cacheNtB2_12CacheControl22stale_while_revalidate
FNDA:0,_RNvMNtCs6zS5XWhHsrg_9api_bones5cacheNtB2_12CacheControl3new
FNDA:0,_RNvMNtCs6zS5XWhHsrg_9api_bones5cacheNtB2_12CacheControl6public
FNDA:0,_RNvMNtCs6zS5XWhHsrg_9api_bones5cacheNtB2_12CacheControl7max_age
FNDA:0,_RNvMNtCs6zS5XWhHsrg_9api_bones5cacheNtB2_12CacheControl7private
FNDA:0,_RNvMNtCs6zS5XWhHsrg_9api_bones5cacheNtB2_12CacheControl8no_cache
FNDA:0,_RNvMNtCs6zS5XWhHsrg_9api_bones5cacheNtB2_12CacheControl8no_store
FNDA:0,_RNvMNtCs6zS5XWhHsrg_9api_bones5cacheNtB2_12CacheControl8s_maxage
FNDA:0,_RNvMNtCs6zS5XWhHsrg_9api_bones5cacheNtB2_12CacheControl9immutable
FNDA:0,_RNvMNtCs6zS5XWhHsrg_9api_bones5cacheNtB2_12CacheControl9max_stale
FNDA:0,_RNvMNtCs6zS5XWhHsrg_9api_bones5cacheNtB2_12CacheControl9min_fresh
FNDA:0,_RNvXs0_NtCs6zS5XWhHsrg_9api_bones5cacheNtB5_22ParseCacheControlErrorNtNtCsbUtogaBoXXO_4core3fmt7Display3fmt
FNDA:0,_RNvXs2_NtCs6zS5XWhHsrg_9api_bones5cacheNtB5_12CacheControlNtNtNtCsbUtogaBoXXO_4core3str6traits7FromStr8from_str
FNDA:0,_RNvXs_NtCs6zS5XWhHsrg_9api_bones5cacheNtB4_12CacheControlNtNtCsbUtogaBoXXO_4core3fmt7Display3fmt
FNF:59
FNH:59
DA:91,28
DA:92,28
DA:93,28
DA:101,2
DA:102,2
DA:103,2
DA:104,2
DA:108,2
DA:109,2
DA:110,2
DA:111,2
DA:115,2
DA:116,2
DA:117,2
DA:118,2
DA:122,2
DA:123,2
DA:124,2
DA:125,2
DA:129,1
DA:130,1
DA:131,1
DA:132,1
DA:136,2
DA:137,2
DA:138,2
DA:139,2
DA:143,1
DA:144,1
DA:145,1
DA:146,1
DA:150,1
DA:151,1
DA:152,1
DA:153,1
DA:157,2
DA:158,2
DA:159,2
DA:160,2
DA:164,1
DA:165,1
DA:166,1
DA:167,1
DA:171,1
DA:172,1
DA:173,1
DA:174,1
DA:178,2
DA:179,2
DA:180,2
DA:181,2
DA:189,2
DA:190,2
DA:191,2
DA:192,2
DA:196,2
DA:197,2
DA:198,2
DA:199,2
DA:203,2
DA:204,2
DA:205,2
DA:206,2
DA:222,1
DA:223,1
DA:224,1
DA:235,1
DA:236,1
DA:237,1
DA:245,16
DA:246,16
DA:251,16
DA:252,2
DA:253,14
DA:254,16
DA:255,1
DA:256,15
DA:257,16
DA:258,1
DA:259,15
DA:260,16
DA:261,1
DA:262,15
DA:263,16
DA:264,1
DA:265,15
DA:266,16
DA:267,2
DA:268,14
DA:269,16
DA:270,1
DA:271,15
DA:272,16
DA:273,1
DA:274,15
DA:276,16
DA:277,2
DA:278,14
DA:281,16
DA:282,12
DA:283,2
DA:284,10
DA:285,12
DA:289,16
DA:290,16
DA:291,16
DA:292,16
DA:293,16
DA:294,16
DA:295,16
DA:296,16
DA:299,16
DA:300,16
DA:301,10
DA:302,5
DA:303,5
DA:304,10
DA:305,10
DA:308,16
DA:309,16
DA:321,1
DA:322,1
DA:323,1
DA:349,11
DA:350,11
DA:351,32
DA:352,32
DA:353,32
DA:354,0
DA:355,32
DA:356,32
DA:357,14
DA:359,18
DA:361,32
DA:363,32
DA:364,12
DA:365,11
DA:366,11
DA:367,1
DA:368,1
DA:369,12
DA:371,32
DA:372,32
DA:373,29
DA:374,28
DA:375,26
DA:376,22
DA:377,21
DA:378,19
DA:379,18
DA:380,17
DA:381,16
DA:382,10
DA:383,8
DA:384,7
DA:385,5
DA:386,2
DA:387,1
DA:390,9
DA:391,11
DA:403,1
DA:404,1
DA:405,1
DA:406,1
DA:409,1
DA:410,1
DA:412,1
DA:413,1
DA:416,1
DA:417,1
DA:418,1
DA:419,1
DA:422,1
DA:423,1
DA:424,1
DA:425,1
DA:426,1
DA:427,1
DA:430,1
DA:431,1
DA:432,1
DA:433,1
DA:434,1
DA:437,1
DA:438,1
DA:439,1
DA:440,1
DA:441,1
DA:442,1
DA:445,1
DA:446,1
DA:447,1
DA:448,1
DA:451,1
DA:452,1
DA:453,1
DA:454,1
DA:455,1
DA:456,1
DA:457,1
DA:458,1
DA:459,1
DA:460,1
DA:461,1
DA:462,1
DA:463,1
DA:466,1
DA:467,1
DA:468,1
DA:469,1
DA:470,1
DA:473,1
DA:474,1
DA:475,1
DA:476,1
DA:479,1
DA:480,1
DA:481,1
DA:482,1
DA:485,1
DA:486,1
DA:487,1
DA:488,1
DA:489,1
DA:492,1
DA:493,1
DA:494,1
DA:495,1
DA:496,1
DA:499,1
DA:500,1
DA:501,1
DA:502,1
DA:503,1
DA:506,1
DA:507,1
DA:508,1
DA:509,1
DA:510,1
DA:513,1
DA:514,1
DA:515,1
DA:516,1
DA:517,1
DA:520,1
DA:521,1
DA:522,1
DA:523,1
DA:524,1
DA:527,1
DA:528,1
DA:529,1
DA:530,1
DA:531,1
DA:534,1
DA:535,1
DA:536,1
DA:537,1
DA:538,1
DA:541,1
DA:542,1
DA:543,1
DA:544,1
DA:545,1
DA:548,1
DA:549,1
DA:550,1
DA:551,1
DA:552,1
DA:555,1
DA:556,1
DA:557,1
DA:558,1
DA:559,1
DA:562,1
DA:563,1
DA:564,1
DA:565,1
DA:566,1
DA:567,1
DA:570,1
DA:572,1
DA:573,1
DA:574,1
DA:577,1
DA:578,1
DA:579,1
DA:580,1
DA:583,1
DA:584,1
DA:585,1
DA:586,1
DA:587,1
DA:588,1
DA:589,1
DA:590,1
DA:591,1
DA:592,1
DA:593,1
DA:594,1
DA:595,1
DA:596,1
DA:599,1
DA:600,1
DA:601,1
DA:602,1
DA:603,1
DA:604,1
DA:605,1
DA:606,1
DA:607,1
DA:608,1
DA:609,1
DA:610,1
DA:613,1
DA:614,1
DA:615,1
DA:616,1
DA:617,1
DA:618,1
DA:619,1
DA:620,1
DA:621,1
DA:622,1
BRF:0
BRH:0
LF:334
LH:333
end_of_record
SF:/Users/gsalingu/git/api-bones/.claude/worktrees/feat+211-nested-org-adr/src/common.rs
FN:88,_RNvNtNtCs1ufPfM0GhR0_9api_bones6common5testss_17resource_id_is_v4
FN:95,_RNvNtNtCs1ufPfM0GhR0_9api_bones6common5testss_24timestamp_parses_rfc3339
FN:78,_RNvNtCs1ufPfM0GhR0_9api_bones6common15new_resource_id
FN:61,_RNvNtCs1ufPfM0GhR0_9api_bones6common15parse_timestamp
FN:78,_RNvNtCs6zS5XWhHsrg_9api_bones6common15new_resource_id
FN:61,_RNvNtCs6zS5XWhHsrg_9api_bones6common15parse_timestamp
FNDA:1,_RNvNtNtCs1ufPfM0GhR0_9api_bones6common5testss_17resource_id_is_v4
FNDA:1,_RNvNtNtCs1ufPfM0GhR0_9api_bones6common5testss_24timestamp_parses_rfc3339
FNDA:1,_RNvNtCs1ufPfM0GhR0_9api_bones6common15new_resource_id
FNDA:1,_RNvNtCs1ufPfM0GhR0_9api_bones6common15parse_timestamp
FNDA:0,_RNvNtCs6zS5XWhHsrg_9api_bones6common15new_resource_id
FNDA:0,_RNvNtCs6zS5XWhHsrg_9api_bones6common15parse_timestamp
FNF:4
FNH:4
DA:61,1
DA:62,1
DA:63,1
DA:78,1
DA:79,1
DA:80,1
DA:88,1
DA:89,1
DA:90,1
DA:91,1
DA:95,1
DA:97,1
DA:98,1
DA:99,1
BRF:0
BRH:0
LF:14
LH:14
end_of_record
SF:/Users/gsalingu/git/api-bones/.claude/worktrees/feat+211-nested-org-adr/src/content_type.rs
FN:336,_RNvNtNtCs1ufPfM0GhR0_9api_bones12content_type5testss_10round_trip
FN:293,_RNvNtNtCs1ufPfM0GhR0_9api_bones12content_type5testss_12param_lookup
FN:300,_RNvNtNtCs1ufPfM0GhR0_9api_bones12content_type5testss_12parse_simple
FN:344,_RNvNtNtCs1ufPfM0GhR0_9api_bones12content_type5testss_15new_constructor
FN:391,_RNvNtNtCs1ufPfM0GhR0_9api_bones12content_type5testss_16serde_round_trip
FN:281,_RNvNtNtCs1ufPfM0GhR0_9api_bones12content_type5testss_17display_multipart
FN:259,_RNvNtNtCs1ufPfM0GhR0_9api_bones12content_type5testss_17display_no_params
FN:308,_RNvNtNtCs1ufPfM0GhR0_9api_bones12content_type5testss_18parse_with_charset
FN:275,_RNvNtNtCs1ufPfM0GhR0_9api_bones12content_type5testss_19display_with_params
FN:375,_RNvNtNtCs1ufPfM0GhR0_9api_bones12content_type5testss_19parse_error_display
FN:331,_RNvNtNtCs1ufPfM0GhR0_9api_bones12content_type5testss_19parse_invalid_empty
FN:287,_RNvNtNtCs1ufPfM0GhR0_9api_bones12content_type5testss_21essence_strips_params
FN:363,_RNvNtNtCs1ufPfM0GhR0_9api_bones12content_type5testss_21text_html_constructor
FN:381,_RNvNtNtCs1ufPfM0GhR0_9api_bones12content_type5testss_22param_case_insensitive
FN:323,_RNvNtNtCs1ufPfM0GhR0_9api_bones12content_type5testss_22parse_invalid_no_slash
FN:369,_RNvNtNtCs1ufPfM0GhR0_9api_bones12content_type5testss_22text_plain_constructor
FN:352,_RNvNtNtCs1ufPfM0GhR0_9api_bones12content_type5testss_23with_params_constructor
FN:316,_RNvNtNtCs1ufPfM0GhR0_9api_bones12content_type5testss_27parse_case_insensitive_type
FN:155,_RNvMs0_NtCs1ufPfM0GhR0_9api_bones12content_typeNtB5_11ContentType10text_plain
FN:84,_RNvMs0_NtCs1ufPfM0GhR0_9api_bones12content_typeNtB5_11ContentType11with_params
FN:161,_RNvMs0_NtCs1ufPfM0GhR0_9api_bones12content_typeNtB5_11ContentType15text_plain_utf8
FN:127,_RNvMs0_NtCs1ufPfM0GhR0_9api_bones12content_typeNtB5_11ContentType16application_json
FN:139,_RNvMs0_NtCs1ufPfM0GhR0_9api_bones12content_typeNtB5_11ContentType24application_octet_stream
FN:133,_RNvMs0_NtCs1ufPfM0GhR0_9api_bones12content_typeNtB5_11ContentType24application_problem_json
FN:73,_RNvMs0_NtCs1ufPfM0GhR0_9api_bones12content_typeNtB5_11ContentType3new
FN:114,_RNvMs0_NtCs1ufPfM0GhR0_9api_bones12content_typeNtB5_11ContentType5param
FN:101,_RNvMs0_NtCs1ufPfM0GhR0_9api_bones12content_typeNtB5_11ContentType7essence
FN:171,_RNvMs0_NtCs1ufPfM0GhR0_9api_bones12content_typeNtB5_11ContentType9text_html
FN:181,_RNvXs1_NtCs1ufPfM0GhR0_9api_bones12content_typeNtB5_11ContentTypeNtNtCsbUtogaBoXXO_4core3fmt7Display3fmt
FN:199,_RNvXs2_NtCs1ufPfM0GhR0_9api_bones12content_typeNtB5_21ParseContentTypeErrorNtNtCsbUtogaBoXXO_4core3fmt7Display3fmt
FN:214,_RNvXs4_NtCs1ufPfM0GhR0_9api_bones12content_typeNtB5_11ContentTypeNtNtNtCsbUtogaBoXXO_4core3str6traits7FromStr8from_str
FN:145,_RINvMs0_NtCs1ufPfM0GhR0_9api_bones12content_typeNtB6_11ContentType19multipart_form_dataReEB8_
FN:53,_RINvXNtCs1ufPfM0GhR0_9api_bones12content_typeNtB3_11ContentTypeNtNtCseAJKguVKcII_10serde_core3ser9Serialize9serializeQINtNtCsdC8qrlXHNsA_10serde_json3ser10SerializerQINtNtCsipk7xt2ATo7_5alloc3vec3VechEEEB5_
FN:63,_RINvXs_NtCs1ufPfM0GhR0_9api_bones12content_typeNtB5_11ContentTypeNtNtCseAJKguVKcII_10serde_core2de11Deserialize11deserializeQINtNtCsdC8qrlXHNsA_10serde_json2de12DeserializerNtNtB24_4read7StrReadEEB7_
FN:117,_RNCNvMs0_NtCs1ufPfM0GhR0_9api_bones12content_typeNtB7_11ContentType5param0B9_
FN:118,_RNCNvMs0_NtCs1ufPfM0GhR0_9api_bones12content_typeNtB7_11ContentType5params_0B9_
FN:145,_RINvMs0_NtCs6zS5XWhHsrg_9api_bones12content_typeNtB6_11ContentType19multipart_form_datapEB8_
FN:53,_RINvXNtCs6zS5XWhHsrg_9api_bones12content_typeNtB3_11ContentTypeNtNtCseAJKguVKcII_10serde_core3ser9Serialize9serializepEB5_
FN:63,_RINvXs_NtCs6zS5XWhHsrg_9api_bones12content_typeNtB5_11ContentTypeNtNtCseAJKguVKcII_10serde_core2de11Deserialize11deserializepEB7_
FN:117,_RNCNvMs0_NtCs6zS5XWhHsrg_9api_bones12content_typeNtB7_11ContentType5param0B9_
FN:118,_RNCNvMs0_NtCs6zS5XWhHsrg_9api_bones12content_typeNtB7_11ContentType5params_0B9_
FNDA:1,_RNvNtNtCs1ufPfM0GhR0_9api_bones12content_type5testss_10round_trip
FNDA:1,_RNvNtNtCs1ufPfM0GhR0_9api_bones12content_type5testss_12param_lookup
FNDA:1,_RNvNtNtCs1ufPfM0GhR0_9api_bones12content_type5testss_12parse_simple
FNDA:1,_RNvNtNtCs1ufPfM0GhR0_9api_bones12content_type5testss_15new_constructor
FNDA:1,_RNvNtNtCs1ufPfM0GhR0_9api_bones12content_type5testss_16serde_round_trip
FNDA:1,_RNvNtNtCs1ufPfM0GhR0_9api_bones12content_type5testss_17display_multipart
FNDA:1,_RNvNtNtCs1ufPfM0GhR0_9api_bones12content_type5testss_17display_no_params
FNDA:1,_RNvNtNtCs1ufPfM0GhR0_9api_bones12content_type5testss_18parse_with_charset
FNDA:1,_RNvNtNtCs1ufPfM0GhR0_9api_bones12content_type5testss_19display_with_params
FNDA:1,_RNvNtNtCs1ufPfM0GhR0_9api_bones12content_type5testss_19parse_error_display
FNDA:1,_RNvNtNtCs1ufPfM0GhR0_9api_bones12content_type5testss_19parse_invalid_empty
FNDA:1,_RNvNtNtCs1ufPfM0GhR0_9api_bones12content_type5testss_21essence_strips_params
FNDA:1,_RNvNtNtCs1ufPfM0GhR0_9api_bones12content_type5testss_21text_html_constructor
FNDA:1,_RNvNtNtCs1ufPfM0GhR0_9api_bones12content_type5testss_22param_case_insensitive
FNDA:1,_RNvNtNtCs1ufPfM0GhR0_9api_bones12content_type5testss_22parse_invalid_no_slash
FNDA:1,_RNvNtNtCs1ufPfM0GhR0_9api_bones12content_type5testss_22text_plain_constructor
FNDA:1,_RNvNtNtCs1ufPfM0GhR0_9api_bones12content_type5testss_23with_params_constructor
FNDA:1,_RNvNtNtCs1ufPfM0GhR0_9api_bones12content_type5testss_27parse_case_insensitive_type
FNDA:1,_RNvMs0_NtCs1ufPfM0GhR0_9api_bones12content_typeNtB5_11ContentType10text_plain
FNDA:6,_RNvMs0_NtCs1ufPfM0GhR0_9api_bones12content_typeNtB5_11ContentType11with_params
FNDA:4,_RNvMs0_NtCs1ufPfM0GhR0_9api_bones12content_typeNtB5_11ContentType15text_plain_utf8
FNDA:1,_RNvMs0_NtCs1ufPfM0GhR0_9api_bones12content_typeNtB5_11ContentType16application_json
FNDA:1,_RNvMs0_NtCs1ufPfM0GhR0_9api_bones12content_typeNtB5_11ContentType24application_octet_stream
FNDA:2,_RNvMs0_NtCs1ufPfM0GhR0_9api_bones12content_typeNtB5_11ContentType24application_problem_json
FNDA:7,_RNvMs0_NtCs1ufPfM0GhR0_9api_bones12content_typeNtB5_11ContentType3new
FNDA:7,_RNvMs0_NtCs1ufPfM0GhR0_9api_bones12content_typeNtB5_11ContentType5param
FNDA:2,_RNvMs0_NtCs1ufPfM0GhR0_9api_bones12content_typeNtB5_11ContentType7essence
FNDA:1,_RNvMs0_NtCs1ufPfM0GhR0_9api_bones12content_typeNtB5_11ContentType9text_html
FNDA:9,_RNvXs1_NtCs1ufPfM0GhR0_9api_bones12content_typeNtB5_11ContentTypeNtNtCsbUtogaBoXXO_4core3fmt7Display3fmt
FNDA:1,_RNvXs2_NtCs1ufPfM0GhR0_9api_bones12content_typeNtB5_21ParseContentTypeErrorNtNtCsbUtogaBoXXO_4core3fmt7Display3fmt
FNDA:8,_RNvXs4_NtCs1ufPfM0GhR0_9api_bones12content_typeNtB5_11ContentTypeNtNtNtCsbUtogaBoXXO_4core3str6traits7FromStr8from_str
FNDA:1,_RINvMs0_NtCs1ufPfM0GhR0_9api_bones12content_typeNtB6_11ContentType19multipart_form_dataReEB8_
FNDA:1,_RINvXNtCs1ufPfM0GhR0_9api_bones12content_typeNtB3_11ContentTypeNtNtCseAJKguVKcII_10serde_core3ser9Serialize9serializeQINtNtCsdC8qrlXHNsA_10serde_json3ser10SerializerQINtNtCsipk7xt2ATo7_5alloc3vec3VechEEEB5_
FNDA:1,_RINvXs_NtCs1ufPfM0GhR0_9api_bones12content_typeNtB5_11ContentTypeNtNtCseAJKguVKcII_10serde_core2de11Deserialize11deserializeQINtNtCsdC8qrlXHNsA_10serde_json2de12DeserializerNtNtB24_4read7StrReadEEB7_
FNDA:7,_RNCNvMs0_NtCs1ufPfM0GhR0_9api_bones12content_typeNtB7_11ContentType5param0B9_
FNDA:5,_RNCNvMs0_NtCs1ufPfM0GhR0_9api_bones12content_typeNtB7_11ContentType5params_0B9_
FNDA:0,_RINvMs0_NtCs6zS5XWhHsrg_9api_bones12content_typeNtB6_11ContentType19multipart_form_datapEB8_
FNDA:0,_RINvXNtCs6zS5XWhHsrg_9api_bones12content_typeNtB3_11ContentTypeNtNtCseAJKguVKcII_10serde_core3ser9Serialize9serializepEB5_
FNDA:0,_RINvXs_NtCs6zS5XWhHsrg_9api_bones12content_typeNtB5_11ContentTypeNtNtCseAJKguVKcII_10serde_core2de11Deserialize11deserializepEB7_
FNDA:0,_RNCNvMs0_NtCs6zS5XWhHsrg_9api_bones12content_typeNtB7_11ContentType5param0B9_
FNDA:0,_RNCNvMs0_NtCs6zS5XWhHsrg_9api_bones12content_typeNtB7_11ContentType5params_0B9_
FNF:36
FNH:36
DA:53,1
DA:55,1
DA:56,1
DA:57,1
DA:58,1
DA:63,1
DA:64,1
DA:65,1
DA:66,1
DA:73,7
DA:74,7
DA:75,7
DA:76,7
DA:77,7
DA:78,7
DA:79,7
DA:84,6
DA:85,6
DA:86,6
DA:87,6
DA:88,6
DA:89,6
DA:90,6
DA:101,2
DA:102,2
DA:103,2
DA:114,7
DA:115,7
DA:116,7
DA:117,7
DA:118,7
DA:119,7
DA:127,1
DA:128,1
DA:129,1
DA:133,2
DA:134,2
DA:135,2
DA:139,1
DA:140,1
DA:141,1
DA:145,1
DA:146,1
DA:147,1
DA:148,1
DA:149,1
DA:151,1
DA:155,1
DA:156,1
DA:157,1
DA:161,4
DA:162,4
DA:163,4
DA:164,4
DA:165,4
DA:167,4
DA:171,1
DA:172,1
DA:173,1
DA:181,9
DA:182,9
DA:183,9
DA:184,3
DA:186,9
DA:187,9
DA:199,1
DA:200,1
DA:201,1
DA:214,8
DA:215,8
DA:216,8
DA:217,8
DA:218,8
DA:219,8
DA:220,8
DA:221,8
DA:222,2
DA:223,6
DA:225,6
DA:226,6
DA:227,3
DA:228,3
DA:229,3
DA:230,0
DA:231,3
DA:232,3
DA:233,3
DA:234,3
DA:235,3
DA:236,0
DA:237,3
DA:238,3
DA:240,3
DA:242,6
DA:243,6
DA:244,6
DA:245,6
DA:246,6
DA:247,8
DA:259,1
DA:260,1
DA:261,1
DA:264,1
DA:265,1
DA:268,1
DA:269,1
DA:272,1
DA:275,1
DA:276,1
DA:277,1
DA:278,1
DA:281,1
DA:282,1
DA:283,1
DA:284,1
DA:287,1
DA:288,1
DA:289,1
DA:290,1
DA:293,1
DA:294,1
DA:295,1
DA:296,1
DA:297,1
DA:300,1
DA:301,1
DA:302,1
DA:303,1
DA:304,1
DA:305,1
DA:308,1
DA:309,1
DA:310,1
DA:311,1
DA:312,1
DA:313,1
DA:316,1
DA:317,1
DA:318,1
DA:319,1
DA:320,1
DA:323,1
DA:324,1
DA:325,1
DA:328,1
DA:331,1
DA:332,1
DA:333,1
DA:336,1
DA:337,1
DA:338,1
DA:339,1
DA:340,1
DA:341,1
DA:344,1
DA:345,1
DA:346,1
DA:347,1
DA:348,1
DA:349,1
DA:352,1
DA:353,1
DA:354,1
DA:355,1
DA:356,1
DA:358,1
DA:359,1
DA:360,1
DA:363,1
DA:364,1
DA:365,1
DA:366,1
DA:369,1
DA:370,1
DA:371,1
DA:372,1
DA:375,1
DA:376,1
DA:377,1
DA:378,1
DA:381,1
DA:383,1
DA:384,1
DA:385,1
DA:386,1
DA:387,1
DA:391,1
DA:392,1
DA:393,1
DA:394,1
DA:395,1
DA:396,1
DA:397,1
BRF:0
BRH:0
LF:195
LH:193
end_of_record
SF:/Users/gsalingu/git/api-bones/.claude/worktrees/feat+211-nested-org-adr/src/correlation_id.rs
FN:350,_RNvNtNtCs1ufPfM0GhR0_9api_bones14correlation_id5testss_10as_ref_str
FN:291,_RNvNtNtCs1ufPfM0GhR0_9api_bones14correlation_id5testss_11header_name
FN:327,_RNvNtNtCs1ufPfM0GhR0_9api_bones14correlation_id5testss_11into_string
FN:303,_RNvNtNtCs1ufPfM0GhR0_9api_bones14correlation_id5testss_12deref_to_str
FN:316,_RNvNtNtCs1ufPfM0GhR0_9api_bones14correlation_id5testss_12try_from_str
FN:334,_RNvNtNtCs1ufPfM0GhR0_9api_bones14correlation_id5testss_15serde_roundtrip
FN:322,_RNvNtNtCs1ufPfM0GhR0_9api_bones14correlation_id5testss_15try_from_string
FN:251,_RNvNtNtCs1ufPfM0GhR0_9api_bones14correlation_id5testss_17empty_is_rejected
FN:256,_RNvNtNtCs1ufPfM0GhR0_9api_bones14correlation_id5testss_20too_long_is_rejected
FN:244,_RNvNtNtCs1ufPfM0GhR0_9api_bones14correlation_id5testss_20valid_id_is_accepted
FN:276,_RNvNtNtCs1ufPfM0GhR0_9api_bones14correlation_id5testss_21non_ascii_is_rejected
FN:268,_RNvNtNtCs1ufPfM0GhR0_9api_bones14correlation_id5testss_24control_char_is_rejected
FN:358,_RNvNtNtCs1ufPfM0GhR0_9api_bones14correlation_id5testss_26error_display_all_variants
FN:284,_RNvNtNtCs1ufPfM0GhR0_9api_bones14correlation_id5testss_26new_uuid_produces_valid_id
FN:262,_RNvNtNtCs1ufPfM0GhR0_9api_bones14correlation_id5testss_29exactly_255_chars_is_accepted
FN:344,_RNvNtNtCs1ufPfM0GhR0_9api_bones14correlation_id5testss_33serde_deserialize_invalid_rejects
FN:297,_RNvNtNtCs1ufPfM0GhR0_9api_bones14correlation_id5testss_7display
FN:310,_RNvNtNtCs1ufPfM0GhR0_9api_bones14correlation_id5testss_8from_str
FN:148,_RNvMNtCs1ufPfM0GhR0_9api_bones14correlation_idNtB2_13CorrelationId11header_name
FN:135,_RNvMNtCs1ufPfM0GhR0_9api_bones14correlation_idNtB2_13CorrelationId11into_string
FN:122,_RNvMNtCs1ufPfM0GhR0_9api_bones14correlation_idNtB2_13CorrelationId6as_str
FN:108,_RNvMNtCs1ufPfM0GhR0_9api_bones14correlation_idNtB2_13CorrelationId8new_uuid
FN:182,_RNvXs0_NtCs1ufPfM0GhR0_9api_bones14correlation_idNtB5_13CorrelationIdNtNtNtCsbUtogaBoXXO_4core3ops5deref5Deref5deref
FN:188,_RNvXs1_NtCs1ufPfM0GhR0_9api_bones14correlation_idNtB5_13CorrelationIdINtNtCsbUtogaBoXXO_4core7convert5AsRefeE6as_ref
FN:194,_RNvXs2_NtCs1ufPfM0GhR0_9api_bones14correlation_idNtB5_13CorrelationIdNtNtCsbUtogaBoXXO_4core3fmt7Display3fmt
FN:202,_RNvXs3_NtCs1ufPfM0GhR0_9api_bones14correlation_idNtB5_13CorrelationIdNtNtNtCsbUtogaBoXXO_4core3str6traits7FromStr8from_str
FN:210,_RNvXs4_NtCs1ufPfM0GhR0_9api_bones14correlation_idNtB5_13CorrelationIdINtNtCsbUtogaBoXXO_4core7convert7TryFromNtNtCsipk7xt2ATo7_5alloc6string6StringE8try_from
FN:218,_RNvXs5_NtCs1ufPfM0GhR0_9api_bones14correlation_idNtB5_13CorrelationIdINtNtCsbUtogaBoXXO_4core7convert7TryFromReE8try_from
FN:161,_RNvXs_NtCs1ufPfM0GhR0_9api_bones14correlation_idNtB4_13CorrelationIdNtNtB6_9header_id8HeaderId6as_str
FN:85,_RINvMNtCs1ufPfM0GhR0_9api_bones14correlation_idNtB3_13CorrelationId3newNtNtCsipk7xt2ATo7_5alloc6string6StringEB5_
FN:85,_RINvMNtCs1ufPfM0GhR0_9api_bones14correlation_idNtB3_13CorrelationId3newRNtNtCsipk7xt2ATo7_5alloc6string6StringEB5_
FN:85,_RINvMNtCs1ufPfM0GhR0_9api_bones14correlation_idNtB3_13CorrelationId3newReEB5_
FN:229,_RINvXs6_NtCs1ufPfM0GhR0_9api_bones14correlation_idNtB6_13CorrelationIdNtNtCseAJKguVKcII_10serde_core2de11Deserialize11deserializeQINtNtCsdC8qrlXHNsA_10serde_json2de12DeserializerNtNtB29_4read7StrReadEEB8_
FN:93,_RNCINvMNtCs1ufPfM0GhR0_9api_bones14correlation_idNtB5_13CorrelationId3newNtNtCsipk7xt2ATo7_5alloc6string6StringE0B7_
FN:93,_RNCINvMNtCs1ufPfM0GhR0_9api_bones14correlation_idNtB5_13CorrelationId3newRNtNtCsipk7xt2ATo7_5alloc6string6StringE0B7_
FN:93,_RNCINvMNtCs1ufPfM0GhR0_9api_bones14correlation_idNtB5_13CorrelationId3newReE0B7_
FN:229,_RINvXs6_NtCs6zS5XWhHsrg_9api_bones14correlation_idNtB6_13CorrelationIdNtNtCseAJKguVKcII_10serde_core2de11Deserialize11deserializepEB8_
FN:85,_RINvMNtCs6zS5XWhHsrg_9api_bones14correlation_idNtB3_13CorrelationId3newNtNtCsipk7xt2ATo7_5alloc6string6StringEB5_
FN:85,_RINvMNtCs6zS5XWhHsrg_9api_bones14correlation_idNtB3_13CorrelationId3newReEB5_
FN:93,_RNCINvMNtCs6zS5XWhHsrg_9api_bones14correlation_idNtB5_13CorrelationId3newNtNtCsipk7xt2ATo7_5alloc6string6StringE0B7_
FN:93,_RNCINvMNtCs6zS5XWhHsrg_9api_bones14correlation_idNtB5_13CorrelationId3newReE0B7_
FN:148,_RNvMNtCs6zS5XWhHsrg_9api_bones14correlation_idNtB2_13CorrelationId11header_name
FN:135,_RNvMNtCs6zS5XWhHsrg_9api_bones14correlation_idNtB2_13CorrelationId11into_string
FN:122,_RNvMNtCs6zS5XWhHsrg_9api_bones14correlation_idNtB2_13CorrelationId6as_str
FN:108,_RNvMNtCs6zS5XWhHsrg_9api_bones14correlation_idNtB2_13CorrelationId8new_uuid
FN:182,_RNvXs0_NtCs6zS5XWhHsrg_9api_bones14correlation_idNtB5_13CorrelationIdNtNtNtCsbUtogaBoXXO_4core3ops5deref5Deref5deref
FN:188,_RNvXs1_NtCs6zS5XWhHsrg_9api_bones14correlation_idNtB5_13CorrelationIdINtNtCsbUtogaBoXXO_4core7convert5AsRefeE6as_ref
FN:194,_RNvXs2_NtCs6zS5XWhHsrg_9api_bones14correlation_idNtB5_13CorrelationIdNtNtCsbUtogaBoXXO_4core3fmt7Display3fmt
FN:202,_RNvXs3_NtCs6zS5XWhHsrg_9api_bones14correlation_idNtB5_13CorrelationIdNtNtNtCsbUtogaBoXXO_4core3str6traits7FromStr8from_str
FN:210,_RNvXs4_NtCs6zS5XWhHsrg_9api_bones14correlation_idNtB5_13CorrelationIdINtNtCsbUtogaBoXXO_4core7convert7TryFromNtNtCsipk7xt2ATo7_5alloc6string6StringE8try_from
FN:218,_RNvXs5_NtCs6zS5XWhHsrg_9api_bones14correlation_idNtB5_13CorrelationIdINtNtCsbUtogaBoXXO_4core7convert7TryFromReE8try_from
FN:161,_RNvXs_NtCs6zS5XWhHsrg_9api_bones14correlation_idNtB4_13CorrelationIdNtNtB6_9header_id8HeaderId6as_str
FNDA:1,_RNvNtNtCs1ufPfM0GhR0_9api_bones14correlation_id5testss_10as_ref_str
FNDA:1,_RNvNtNtCs1ufPfM0GhR0_9api_bones14correlation_id5testss_11header_name
FNDA:1,_RNvNtNtCs1ufPfM0GhR0_9api_bones14correlation_id5testss_11into_string
FNDA:1,_RNvNtNtCs1ufPfM0GhR0_9api_bones14correlation_id5testss_12deref_to_str
FNDA:1,_RNvNtNtCs1ufPfM0GhR0_9api_bones14correlation_id5testss_12try_from_str
FNDA:1,_RNvNtNtCs1ufPfM0GhR0_9api_bones14correlation_id5testss_15serde_roundtrip
FNDA:1,_RNvNtNtCs1ufPfM0GhR0_9api_bones14correlation_id5testss_15try_from_string
FNDA:1,_RNvNtNtCs1ufPfM0GhR0_9api_bones14correlation_id5testss_17empty_is_rejected
FNDA:1,_RNvNtNtCs1ufPfM0GhR0_9api_bones14correlation_id5testss_20too_long_is_rejected
FNDA:1,_RNvNtNtCs1ufPfM0GhR0_9api_bones14correlation_id5testss_20valid_id_is_accepted
FNDA:1,_RNvNtNtCs1ufPfM0GhR0_9api_bones14correlation_id5testss_21non_ascii_is_rejected
FNDA:1,_RNvNtNtCs1ufPfM0GhR0_9api_bones14correlation_id5testss_24control_char_is_rejected
FNDA:1,_RNvNtNtCs1ufPfM0GhR0_9api_bones14correlation_id5testss_26error_display_all_variants
FNDA:1,_RNvNtNtCs1ufPfM0GhR0_9api_bones14correlation_id5testss_26new_uuid_produces_valid_id
FNDA:1,_RNvNtNtCs1ufPfM0GhR0_9api_bones14correlation_id5testss_29exactly_255_chars_is_accepted
FNDA:1,_RNvNtNtCs1ufPfM0GhR0_9api_bones14correlation_id5testss_33serde_deserialize_invalid_rejects
FNDA:1,_RNvNtNtCs1ufPfM0GhR0_9api_bones14correlation_id5testss_7display
FNDA:1,_RNvNtNtCs1ufPfM0GhR0_9api_bones14correlation_id5testss_8from_str
FNDA:1,_RNvMNtCs1ufPfM0GhR0_9api_bones14correlation_idNtB2_13CorrelationId11header_name
FNDA:1,_RNvMNtCs1ufPfM0GhR0_9api_bones14correlation_idNtB2_13CorrelationId11into_string
FNDA:3,_RNvMNtCs1ufPfM0GhR0_9api_bones14correlation_idNtB2_13CorrelationId6as_str
FNDA:1,_RNvMNtCs1ufPfM0GhR0_9api_bones14correlation_idNtB2_13CorrelationId8new_uuid
FNDA:1,_RNvXs0_NtCs1ufPfM0GhR0_9api_bones14correlation_idNtB5_13CorrelationIdNtNtNtCsbUtogaBoXXO_4core3ops5deref5Deref5deref
FNDA:1,_RNvXs1_NtCs1ufPfM0GhR0_9api_bones14correlation_idNtB5_13CorrelationIdINtNtCsbUtogaBoXXO_4core7convert5AsRefeE6as_ref
FNDA:1,_RNvXs2_NtCs1ufPfM0GhR0_9api_bones14correlation_idNtB5_13CorrelationIdNtNtCsbUtogaBoXXO_4core3fmt7Display3fmt
FNDA:1,_RNvXs3_NtCs1ufPfM0GhR0_9api_bones14correlation_idNtB5_13CorrelationIdNtNtNtCsbUtogaBoXXO_4core3str6traits7FromStr8from_str
FNDA:1,_RNvXs4_NtCs1ufPfM0GhR0_9api_bones14correlation_idNtB5_13CorrelationIdINtNtCsbUtogaBoXXO_4core7convert7TryFromNtNtCsipk7xt2ATo7_5alloc6string6StringE8try_from
FNDA:2,_RNvXs5_NtCs1ufPfM0GhR0_9api_bones14correlation_idNtB5_13CorrelationIdINtNtCsbUtogaBoXXO_4core7convert7TryFromReE8try_from
FNDA:1,_RNvXs_NtCs1ufPfM0GhR0_9api_bones14correlation_idNtB4_13CorrelationIdNtNtB6_9header_id8HeaderId6as_str
FNDA:1,_RINvMNtCs1ufPfM0GhR0_9api_bones14correlation_idNtB3_13CorrelationId3newNtNtCsipk7xt2ATo7_5alloc6string6StringEB5_
FNDA:4,_RINvMNtCs1ufPfM0GhR0_9api_bones14correlation_idNtB3_13CorrelationId3newRNtNtCsipk7xt2ATo7_5alloc6string6StringEB5_
FNDA:17,_RINvMNtCs1ufPfM0GhR0_9api_bones14correlation_idNtB3_13CorrelationId3newReEB5_
FNDA:2,_RINvXs6_NtCs1ufPfM0GhR0_9api_bones14correlation_idNtB6_13CorrelationIdNtNtCseAJKguVKcII_10serde_core2de11Deserialize11deserializeQINtNtCsdC8qrlXHNsA_10serde_json2de12DeserializerNtNtB29_4read7StrReadEEB8_
FNDA:5,_RNCINvMNtCs1ufPfM0GhR0_9api_bones14correlation_idNtB5_13CorrelationId3newNtNtCsipk7xt2ATo7_5alloc6string6StringE0B7_
FNDA:267,_RNCINvMNtCs1ufPfM0GhR0_9api_bones14correlation_idNtB5_13CorrelationId3newRNtNtCsipk7xt2ATo7_5alloc6string6StringE0B7_
FNDA:112,_RNCINvMNtCs1ufPfM0GhR0_9api_bones14correlation_idNtB5_13CorrelationId3newReE0B7_
FNDA:0,_RINvXs6_NtCs6zS5XWhHsrg_9api_bones14correlation_idNtB6_13CorrelationIdNtNtCseAJKguVKcII_10serde_core2de11Deserialize11deserializepEB8_
FNDA:0,_RINvMNtCs6zS5XWhHsrg_9api_bones14correlation_idNtB3_13CorrelationId3newNtNtCsipk7xt2ATo7_5alloc6string6StringEB5_
FNDA:0,_RINvMNtCs6zS5XWhHsrg_9api_bones14correlation_idNtB3_13CorrelationId3newReEB5_
FNDA:0,_RNCINvMNtCs6zS5XWhHsrg_9api_bones14correlation_idNtB5_13CorrelationId3newNtNtCsipk7xt2ATo7_5alloc6string6StringE0B7_
FNDA:0,_RNCINvMNtCs6zS5XWhHsrg_9api_bones14correlation_idNtB5_13CorrelationId3newReE0B7_
FNDA:0,_RNvMNtCs6zS5XWhHsrg_9api_bones14correlation_idNtB2_13CorrelationId11header_name
FNDA:0,_RNvMNtCs6zS5XWhHsrg_9api_bones14correlation_idNtB2_13CorrelationId11into_string
FNDA:0,_RNvMNtCs6zS5XWhHsrg_9api_bones14correlation_idNtB2_13CorrelationId6as_str
FNDA:0,_RNvMNtCs6zS5XWhHsrg_9api_bones14correlation_idNtB2_13CorrelationId8new_uuid
FNDA:0,_RNvXs0_NtCs6zS5XWhHsrg_9api_bones14correlation_idNtB5_13CorrelationIdNtNtNtCsbUtogaBoXXO_4core3ops5deref5Deref5deref
FNDA:0,_RNvXs1_NtCs6zS5XWhHsrg_9api_bones14correlation_idNtB5_13CorrelationIdINtNtCsbUtogaBoXXO_4core7convert5AsRefeE6as_ref
FNDA:0,_RNvXs2_NtCs6zS5XWhHsrg_9api_bones14correlation_idNtB5_13CorrelationIdNtNtCsbUtogaBoXXO_4core3fmt7Display3fmt
FNDA:0,_RNvXs3_NtCs6zS5XWhHsrg_9api_bones14correlation_idNtB5_13CorrelationIdNtNtNtCsbUtogaBoXXO_4core3str6traits7FromStr8from_str
FNDA:0,_RNvXs4_NtCs6zS5XWhHsrg_9api_bones14correlation_idNtB5_13CorrelationIdINtNtCsbUtogaBoXXO_4core7convert7TryFromNtNtCsipk7xt2ATo7_5alloc6string6StringE8try_from
FNDA:0,_RNvXs5_NtCs6zS5XWhHsrg_9api_bones14correlation_idNtB5_13CorrelationIdINtNtCsbUtogaBoXXO_4core7convert7TryFromReE8try_from
FNDA:0,_RNvXs_NtCs6zS5XWhHsrg_9api_bones14correlation_idNtB4_13CorrelationIdNtNtB6_9header_id8HeaderId6as_str
FNF:32
FNH:32
DA:85,22
DA:86,22
DA:87,22
DA:88,3
DA:89,19
DA:90,19
DA:91,1
DA:92,18
DA:93,384
DA:94,2
DA:95,16
DA:96,16
DA:97,22
DA:108,1
DA:110,1
DA:111,1
DA:122,3
DA:123,3
DA:124,3
DA:135,1
DA:136,1
DA:137,1
DA:148,1
DA:149,1
DA:150,1
DA:161,1
DA:162,1
DA:163,1
DA:182,1
DA:183,1
DA:184,1
DA:188,1
DA:189,1
DA:190,1
DA:194,1
DA:195,1
DA:196,1
DA:202,1
DA:203,1
DA:204,1
DA:210,1
DA:211,1
DA:212,1
DA:218,2
DA:219,2
DA:220,2
DA:229,2
DA:230,2
DA:231,2
DA:232,2
DA:244,1
DA:245,1
DA:246,1
DA:247,1
DA:248,1
DA:251,1
DA:252,1
DA:253,1
DA:256,1
DA:257,1
DA:258,1
DA:259,1
DA:262,1
DA:263,1
DA:264,1
DA:265,1
DA:268,1
DA:269,1
DA:270,1
DA:273,1
DA:276,1
DA:277,1
DA:278,1
DA:281,1
DA:284,1
DA:285,1
DA:286,1
DA:287,1
DA:288,1
DA:291,1
DA:292,1
DA:293,1
DA:294,1
DA:297,1
DA:298,1
DA:299,1
DA:300,1
DA:303,1
DA:304,1
DA:305,1
DA:306,1
DA:307,1
DA:310,1
DA:311,1
DA:312,1
DA:313,1
DA:316,1
DA:317,1
DA:318,1
DA:319,1
DA:322,1
DA:323,1
DA:324,1
DA:327,1
DA:328,1
DA:329,1
DA:330,1
DA:334,1
DA:335,1
DA:336,1
DA:337,1
DA:338,1
DA:339,1
DA:340,1
DA:344,1
DA:345,1
DA:346,1
DA:347,1
DA:350,1
DA:351,1
DA:352,1
DA:353,1
DA:354,1
DA:358,1
DA:359,1
DA:360,1
DA:361,1
DA:362,1
BRF:0
BRH:0
LF:129
LH:128
end_of_record
SF:/Users/gsalingu/git/api-bones/.claude/worktrees/feat+211-nested-org-adr/src/cors.rs
FN:350,_RNvNtNtCs1ufPfM0GhR0_9api_bones4cors5testss_15builder_max_age
FN:301,_RNvNtNtCs1ufPfM0GhR0_9api_bones4cors5testss_16default_all_none
FN:385,_RNvNtNtCs1ufPfM0GhR0_9api_bones4cors5testss_19cors_origin_display
FN:337,_RNvNtNtCs1ufPfM0GhR0_9api_bones4cors5testss_21builder_allow_headers
FN:328,_RNvNtNtCs1ufPfM0GhR0_9api_bones4cors5testss_21builder_allow_methods
FN:372,_RNvNtNtCs1ufPfM0GhR0_9api_bones4cors5testss_21preflight_constructor
FN:344,_RNvNtNtCs1ufPfM0GhR0_9api_bones4cors5testss_22builder_expose_headers
FN:362,_RNvNtNtCs1ufPfM0GhR0_9api_bones4cors5testss_22header_value_accessors
FN:312,_RNvNtNtCs1ufPfM0GhR0_9api_bones4cors5testss_24builder_allow_origin_any
FN:356,_RNvNtNtCs1ufPfM0GhR0_9api_bones4cors5testss_25builder_allow_credentials
FN:318,_RNvNtNtCs1ufPfM0GhR0_9api_bones4cors5testss_29builder_allow_origin_specific
FN:395,_RNvNtNtCs1ufPfM0GhR0_9api_bones4cors5testss_32into_response_parts_sets_headers
FN:139,_RINvMs_NtCs1ufPfM0GhR0_9api_bones4corsNtB5_11CorsHeaders13allow_headersARej1_EB7_
FN:139,_RINvMs_NtCs1ufPfM0GhR0_9api_bones4corsNtB5_11CorsHeaders13allow_headersARej2_EB7_
FN:128,_RINvMs_NtCs1ufPfM0GhR0_9api_bones4corsNtB5_11CorsHeaders13allow_methodsARej1_EB7_
FN:128,_RINvMs_NtCs1ufPfM0GhR0_9api_bones4corsNtB5_11CorsHeaders13allow_methodsARej2_EB7_
FN:128,_RINvMs_NtCs1ufPfM0GhR0_9api_bones4corsNtB5_11CorsHeaders13allow_methodsARej3_EB7_
FN:150,_RINvMs_NtCs1ufPfM0GhR0_9api_bones4corsNtB5_11CorsHeaders14expose_headersARej1_EB7_
FN:198,_RINvMs_NtCs1ufPfM0GhR0_9api_bones4corsNtB5_11CorsHeaders9preflightARej2_B12_EB7_
FN:228,_RNCNvMs_NtCs1ufPfM0GhR0_9api_bones4corsNtB6_11CorsHeaders20allow_headers_header0B8_
FN:220,_RNCNvMs_NtCs1ufPfM0GhR0_9api_bones4corsNtB6_11CorsHeaders20allow_methods_header0B8_
FN:236,_RNCNvMs_NtCs1ufPfM0GhR0_9api_bones4corsNtB6_11CorsHeaders21expose_headers_header0B8_
FN:113,_RNvMs_NtCs1ufPfM0GhR0_9api_bones4corsNtB4_11CorsHeaders12allow_origin
FN:172,_RNvMs_NtCs1ufPfM0GhR0_9api_bones4corsNtB4_11CorsHeaders17allow_credentials
FN:227,_RNvMs_NtCs1ufPfM0GhR0_9api_bones4corsNtB4_11CorsHeaders20allow_headers_header
FN:219,_RNvMs_NtCs1ufPfM0GhR0_9api_bones4corsNtB4_11CorsHeaders20allow_methods_header
FN:235,_RNvMs_NtCs1ufPfM0GhR0_9api_bones4corsNtB4_11CorsHeaders21expose_headers_header
FN:96,_RNvMs_NtCs1ufPfM0GhR0_9api_bones4corsNtB4_11CorsHeaders3new
FN:161,_RNvMs_NtCs1ufPfM0GhR0_9api_bones4corsNtB4_11CorsHeaders7max_age
FN:57,_RNvXNtCs1ufPfM0GhR0_9api_bones4corsNtB2_10CorsOriginNtNtCsbUtogaBoXXO_4core3fmt7Display3fmt
FN:253,_RNvXNtNtCs1ufPfM0GhR0_9api_bones4cors12axum_supportNtB4_11CorsHeadersNtNtNtCsgRxEIuGfDXj_9axum_core8response19into_response_parts17IntoResponseParts19into_response_parts
FN:139,_RINvMs_NtCs6zS5XWhHsrg_9api_bones4corsNtB5_11CorsHeaders13allow_headerspEB7_
FN:128,_RINvMs_NtCs6zS5XWhHsrg_9api_bones4corsNtB5_11CorsHeaders13allow_methodspEB7_
FN:150,_RINvMs_NtCs6zS5XWhHsrg_9api_bones4corsNtB5_11CorsHeaders14expose_headerspEB7_
FN:198,_RINvMs_NtCs6zS5XWhHsrg_9api_bones4corsNtB5_11CorsHeaders9preflightppEB7_
FN:228,_RNCNvMs_NtCs6zS5XWhHsrg_9api_bones4corsNtB6_11CorsHeaders20allow_headers_header0B8_
FN:220,_RNCNvMs_NtCs6zS5XWhHsrg_9api_bones4corsNtB6_11CorsHeaders20allow_methods_header0B8_
FN:236,_RNCNvMs_NtCs6zS5XWhHsrg_9api_bones4corsNtB6_11CorsHeaders21expose_headers_header0B8_
FN:113,_RNvMs_NtCs6zS5XWhHsrg_9api_bones4corsNtB4_11CorsHeaders12allow_origin
FN:172,_RNvMs_NtCs6zS5XWhHsrg_9api_bones4corsNtB4_11CorsHeaders17allow_credentials
FN:227,_RNvMs_NtCs6zS5XWhHsrg_9api_bones4corsNtB4_11CorsHeaders20allow_headers_header
FN:219,_RNvMs_NtCs6zS5XWhHsrg_9api_bones4corsNtB4_11CorsHeaders20allow_methods_header
FN:235,_RNvMs_NtCs6zS5XWhHsrg_9api_bones4corsNtB4_11CorsHeaders21expose_headers_header
FN:96,_RNvMs_NtCs6zS5XWhHsrg_9api_bones4corsNtB4_11CorsHeaders3new
FN:161,_RNvMs_NtCs6zS5XWhHsrg_9api_bones4corsNtB4_11CorsHeaders7max_age
FN:57,_RNvXNtCs6zS5XWhHsrg_9api_bones4corsNtB2_10CorsOriginNtNtCsbUtogaBoXXO_4core3fmt7Display3fmt
FN:253,_RNvXNtNtCs6zS5XWhHsrg_9api_bones4cors12axum_supportNtB4_11CorsHeadersNtNtNtCsgRxEIuGfDXj_9axum_core8response19into_response_parts17IntoResponseParts19into_response_parts
FNDA:1,_RNvNtNtCs1ufPfM0GhR0_9api_bones4cors5testss_15builder_max_age
FNDA:1,_RNvNtNtCs1ufPfM0GhR0_9api_bones4cors5testss_16default_all_none
FNDA:1,_RNvNtNtCs1ufPfM0GhR0_9api_bones4cors5testss_19cors_origin_display
FNDA:1,_RNvNtNtCs1ufPfM0GhR0_9api_bones4cors5testss_21builder_allow_headers
FNDA:1,_RNvNtNtCs1ufPfM0GhR0_9api_bones4cors5testss_21builder_allow_methods
FNDA:1,_RNvNtNtCs1ufPfM0GhR0_9api_bones4cors5testss_21preflight_constructor
FNDA:1,_RNvNtNtCs1ufPfM0GhR0_9api_bones4cors5testss_22builder_expose_headers
FNDA:1,_RNvNtNtCs1ufPfM0GhR0_9api_bones4cors5testss_22header_value_accessors
FNDA:1,_RNvNtNtCs1ufPfM0GhR0_9api_bones4cors5testss_24builder_allow_origin_any
FNDA:1,_RNvNtNtCs1ufPfM0GhR0_9api_bones4cors5testss_25builder_allow_credentials
FNDA:1,_RNvNtNtCs1ufPfM0GhR0_9api_bones4cors5testss_29builder_allow_origin_specific
FNDA:1,_RNvNtNtCs1ufPfM0GhR0_9api_bones4cors5testss_32into_response_parts_sets_headers
FNDA:1,_RINvMs_NtCs1ufPfM0GhR0_9api_bones4corsNtB5_11CorsHeaders13allow_headersARej1_EB7_
FNDA:2,_RINvMs_NtCs1ufPfM0GhR0_9api_bones4corsNtB5_11CorsHeaders13allow_headersARej2_EB7_
FNDA:1,_RINvMs_NtCs1ufPfM0GhR0_9api_bones4corsNtB5_11CorsHeaders13allow_methodsARej1_EB7_
FNDA:2,_RINvMs_NtCs1ufPfM0GhR0_9api_bones4corsNtB5_11CorsHeaders13allow_methodsARej2_EB7_
FNDA:1,_RINvMs_NtCs1ufPfM0GhR0_9api_bones4corsNtB5_11CorsHeaders13allow_methodsARej3_EB7_
FNDA:1,_RINvMs_NtCs1ufPfM0GhR0_9api_bones4corsNtB5_11CorsHeaders14expose_headersARej1_EB7_
FNDA:1,_RINvMs_NtCs1ufPfM0GhR0_9api_bones4corsNtB5_11CorsHeaders9preflightARej2_B12_EB7_
FNDA:1,_RNCNvMs_NtCs1ufPfM0GhR0_9api_bones4corsNtB6_11CorsHeaders20allow_headers_header0B8_
FNDA:1,_RNCNvMs_NtCs1ufPfM0GhR0_9api_bones4corsNtB6_11CorsHeaders20allow_methods_header0B8_
FNDA:1,_RNCNvMs_NtCs1ufPfM0GhR0_9api_bones4corsNtB6_11CorsHeaders21expose_headers_header0B8_
FNDA:4,_RNvMs_NtCs1ufPfM0GhR0_9api_bones4corsNtB4_11CorsHeaders12allow_origin
FNDA:1,_RNvMs_NtCs1ufPfM0GhR0_9api_bones4corsNtB4_11CorsHeaders17allow_credentials
FNDA:1,_RNvMs_NtCs1ufPfM0GhR0_9api_bones4corsNtB4_11CorsHeaders20allow_headers_header
FNDA:1,_RNvMs_NtCs1ufPfM0GhR0_9api_bones4corsNtB4_11CorsHeaders20allow_methods_header
FNDA:2,_RNvMs_NtCs1ufPfM0GhR0_9api_bones4corsNtB4_11CorsHeaders21expose_headers_header
FNDA:11,_RNvMs_NtCs1ufPfM0GhR0_9api_bones4corsNtB4_11CorsHeaders3new
FNDA:2,_RNvMs_NtCs1ufPfM0GhR0_9api_bones4corsNtB4_11CorsHeaders7max_age
FNDA:5,_RNvXNtCs1ufPfM0GhR0_9api_bones4corsNtB2_10CorsOriginNtNtCsbUtogaBoXXO_4core3fmt7Display3fmt
FNDA:1,_RNvXNtNtCs1ufPfM0GhR0_9api_bones4cors12axum_supportNtB4_11CorsHeadersNtNtNtCsgRxEIuGfDXj_9axum_core8response19into_response_parts17IntoResponseParts19into_response_parts
FNDA:0,_RINvMs_NtCs6zS5XWhHsrg_9api_bones4corsNtB5_11CorsHeaders13allow_headerspEB7_
FNDA:0,_RINvMs_NtCs6zS5XWhHsrg_9api_bones4corsNtB5_11CorsHeaders13allow_methodspEB7_
FNDA:0,_RINvMs_NtCs6zS5XWhHsrg_9api_bones4corsNtB5_11CorsHeaders14expose_headerspEB7_
FNDA:0,_RINvMs_NtCs6zS5XWhHsrg_9api_bones4corsNtB5_11CorsHeaders9preflightppEB7_
FNDA:0,_RNCNvMs_NtCs6zS5XWhHsrg_9api_bones4corsNtB6_11CorsHeaders20allow_headers_header0B8_
FNDA:0,_RNCNvMs_NtCs6zS5XWhHsrg_9api_bones4corsNtB6_11CorsHeaders20allow_methods_header0B8_
FNDA:0,_RNCNvMs_NtCs6zS5XWhHsrg_9api_bones4corsNtB6_11CorsHeaders21expose_headers_header0B8_
FNDA:0,_RNvMs_NtCs6zS5XWhHsrg_9api_bones4corsNtB4_11CorsHeaders12allow_origin
FNDA:0,_RNvMs_NtCs6zS5XWhHsrg_9api_bones4corsNtB4_11CorsHeaders17allow_credentials
FNDA:0,_RNvMs_NtCs6zS5XWhHsrg_9api_bones4corsNtB4_11CorsHeaders20allow_headers_header
FNDA:0,_RNvMs_NtCs6zS5XWhHsrg_9api_bones4corsNtB4_11CorsHeaders20allow_methods_header
FNDA:0,_RNvMs_NtCs6zS5XWhHsrg_9api_bones4corsNtB4_11CorsHeaders21expose_headers_header
FNDA:0,_RNvMs_NtCs6zS5XWhHsrg_9api_bones4corsNtB4_11CorsHeaders3new
FNDA:0,_RNvMs_NtCs6zS5XWhHsrg_9api_bones4corsNtB4_11CorsHeaders7max_age
FNDA:0,_RNvXNtCs6zS5XWhHsrg_9api_bones4corsNtB2_10CorsOriginNtNtCsbUtogaBoXXO_4core3fmt7Display3fmt
FNDA:0,_RNvXNtNtCs6zS5XWhHsrg_9api_bones4cors12axum_supportNtB4_11CorsHeadersNtNtNtCsgRxEIuGfDXj_9axum_core8response19into_response_parts17IntoResponseParts19into_response_parts
FNF:28
FNH:28
DA:57,5
DA:58,5
DA:59,3
DA:60,2
DA:62,5
DA:96,11
DA:97,11
DA:98,11
DA:113,4
DA:114,4
DA:115,4
DA:116,4
DA:128,4
DA:129,4
DA:130,4
DA:131,4
DA:133,4
DA:134,4
DA:135,4
DA:139,3
DA:140,3
DA:141,3
DA:142,3
DA:144,3
DA:145,3
DA:146,3
DA:150,1
DA:151,1
DA:152,1
DA:153,1
DA:155,1
DA:156,1
DA:157,1
DA:161,2
DA:162,2
DA:163,2
DA:164,2
DA:172,1
DA:173,1
DA:174,1
DA:175,1
DA:198,1
DA:199,1
DA:200,1
DA:201,1
DA:202,1
DA:203,1
DA:205,1
DA:206,1
DA:207,1
DA:208,1
DA:209,1
DA:219,1
DA:220,1
DA:221,1
DA:227,1
DA:228,1
DA:229,1
DA:235,2
DA:236,2
DA:237,2
DA:253,1
DA:254,1
DA:256,1
DA:257,1
DA:258,1
DA:259,1
DA:260,1
DA:261,1
DA:262,1
DA:263,1
DA:264,1
DA:265,1
DA:266,1
DA:267,0
DA:268,0
DA:269,0
DA:270,1
DA:271,1
DA:272,0
DA:273,0
DA:274,0
DA:275,1
DA:276,1
DA:277,1
DA:278,1
DA:279,1
DA:280,1
DA:281,1
DA:282,0
DA:283,0
DA:284,0
DA:285,1
DA:287,1
DA:288,1
DA:301,1
DA:302,1
DA:303,1
DA:304,1
DA:305,1
DA:306,1
DA:307,1
DA:308,1
DA:309,1
DA:312,1
DA:313,1
DA:314,1
DA:315,1
DA:318,1
DA:319,1
DA:320,1
DA:321,1
DA:322,1
DA:325,1
DA:328,1
DA:329,1
DA:330,1
DA:331,1
DA:332,1
DA:333,1
DA:334,1
DA:337,1
DA:338,1
DA:339,1
DA:340,1
DA:341,1
DA:344,1
DA:345,1
DA:346,1
DA:347,1
DA:350,1
DA:351,1
DA:352,1
DA:353,1
DA:356,1
DA:357,1
DA:358,1
DA:359,1
DA:362,1
DA:363,1
DA:364,1
DA:365,1
DA:366,1
DA:367,1
DA:368,1
DA:369,1
DA:372,1
DA:373,1
DA:374,1
DA:375,1
DA:376,1
DA:378,1
DA:379,1
DA:380,1
DA:381,1
DA:382,1
DA:385,1
DA:386,1
DA:387,1
DA:388,1
DA:391,1
DA:395,1
DA:398,1
DA:399,1
DA:400,1
DA:401,1
DA:403,1
DA:404,1
DA:406,1
DA:407,1
DA:408,1
DA:409,1
DA:410,1
DA:411,1
DA:414,1
DA:415,1
DA:416,1
DA:417,1
DA:418,1
DA:419,1
DA:422,1
BRF:0
BRH:0
LF:184
LH:175
end_of_record
SF:/Users/gsalingu/git/api-bones/.claude/worktrees/feat+211-nested-org-adr/src/cursor.rs
FN:221,_RNCNvNtNtCs1ufPfM0GhR0_9api_bones6cursor5testss_29encode_uses_url_safe_alphabet0B7_
FN:178,_RNvMs0_NtCs1ufPfM0GhR0_9api_bones6cursorNtB5_6Cursor13decode_signed
FN:137,_RNvMs0_NtCs1ufPfM0GhR0_9api_bones6cursorNtB5_6Cursor13encode_signed
FN:112,_RNvMs0_NtCs1ufPfM0GhR0_9api_bones6cursorNtB5_6Cursor6decode
FN:93,_RNvMs0_NtCs1ufPfM0GhR0_9api_bones6cursorNtB5_6Cursor6encode
FN:56,_RNvXNtCs1ufPfM0GhR0_9api_bones6cursorNtB2_11CursorErrorNtNtCsbUtogaBoXXO_4core3fmt7Display3fmt
FN:243,_RNvNtNtCs1ufPfM0GhR0_9api_bones6cursor5testss_17signed_round_trip
FN:234,_RNvNtNtCs1ufPfM0GhR0_9api_bones6cursor5testss_20encode_empty_payload
FN:275,_RNvNtNtCs1ufPfM0GhR0_9api_bones6cursor5testss_22signed_too_short_error
FN:253,_RNvNtNtCs1ufPfM0GhR0_9api_bones6cursor5testss_22signed_wrong_key_fails
FN:206,_RNvNtNtCs1ufPfM0GhR0_9api_bones6cursor5testss_24encode_decode_round_trip
FN:228,_RNvNtNtCs1ufPfM0GhR0_9api_bones6cursor5testss_27decode_invalid_base64_error
FN:214,_RNvNtNtCs1ufPfM0GhR0_9api_bones6cursor5testss_29encode_uses_url_safe_alphabet
FN:261,_RNvNtNtCs1ufPfM0GhR0_9api_bones6cursor5testss_29signed_tampered_payload_fails
FN:287,_RNvNtNtCs1ufPfM0GhR0_9api_bones6cursor5testss_33cursor_error_display_all_variants
FN:178,_RNvMs0_NtCs6zS5XWhHsrg_9api_bones6cursorNtB5_6Cursor13decode_signed
FN:137,_RNvMs0_NtCs6zS5XWhHsrg_9api_bones6cursorNtB5_6Cursor13encode_signed
FN:112,_RNvMs0_NtCs6zS5XWhHsrg_9api_bones6cursorNtB5_6Cursor6decode
FN:93,_RNvMs0_NtCs6zS5XWhHsrg_9api_bones6cursorNtB5_6Cursor6encode
FN:56,_RNvXNtCs6zS5XWhHsrg_9api_bones6cursorNtB2_11CursorErrorNtNtCsbUtogaBoXXO_4core3fmt7Display3fmt
FNDA:512,_RNCNvNtNtCs1ufPfM0GhR0_9api_bones6cursor5testss_29encode_uses_url_safe_alphabet0B7_
FNDA:4,_RNvMs0_NtCs1ufPfM0GhR0_9api_bones6cursorNtB5_6Cursor13decode_signed
FNDA:3,_RNvMs0_NtCs1ufPfM0GhR0_9api_bones6cursorNtB5_6Cursor13encode_signed
FNDA:3,_RNvMs0_NtCs1ufPfM0GhR0_9api_bones6cursorNtB5_6Cursor6decode
FNDA:259,_RNvMs0_NtCs1ufPfM0GhR0_9api_bones6cursorNtB5_6Cursor6encode
FNDA:3,_RNvXNtCs1ufPfM0GhR0_9api_bones6cursorNtB2_11CursorErrorNtNtCsbUtogaBoXXO_4core3fmt7Display3fmt
FNDA:1,_RNvNtNtCs1ufPfM0GhR0_9api_bones6cursor5testss_17signed_round_trip
FNDA:1,_RNvNtNtCs1ufPfM0GhR0_9api_bones6cursor5testss_20encode_empty_payload
FNDA:1,_RNvNtNtCs1ufPfM0GhR0_9api_bones6cursor5testss_22signed_too_short_error
FNDA:1,_RNvNtNtCs1ufPfM0GhR0_9api_bones6cursor5testss_22signed_wrong_key_fails
FNDA:1,_RNvNtNtCs1ufPfM0GhR0_9api_bones6cursor5testss_24encode_decode_round_trip
FNDA:1,_RNvNtNtCs1ufPfM0GhR0_9api_bones6cursor5testss_27decode_invalid_base64_error
FNDA:1,_RNvNtNtCs1ufPfM0GhR0_9api_bones6cursor5testss_29encode_uses_url_safe_alphabet
FNDA:1,_RNvNtNtCs1ufPfM0GhR0_9api_bones6cursor5testss_29signed_tampered_payload_fails
FNDA:1,_RNvNtNtCs1ufPfM0GhR0_9api_bones6cursor5testss_33cursor_error_display_all_variants
FNDA:0,_RNvMs0_NtCs6zS5XWhHsrg_9api_bones6cursorNtB5_6Cursor13decode_signed
FNDA:0,_RNvMs0_NtCs6zS5XWhHsrg_9api_bones6cursorNtB5_6Cursor13encode_signed
FNDA:0,_RNvMs0_NtCs6zS5XWhHsrg_9api_bones6cursorNtB5_6Cursor6decode
FNDA:0,_RNvMs0_NtCs6zS5XWhHsrg_9api_bones6cursorNtB5_6Cursor6encode
FNDA:0,_RNvXNtCs6zS5XWhHsrg_9api_bones6cursorNtB2_11CursorErrorNtNtCsbUtogaBoXXO_4core3fmt7Display3fmt
FNF:15
FNH:15
DA:56,3
DA:57,3
DA:58,1
DA:59,1
DA:60,1
DA:62,3
DA:93,259
DA:94,259
DA:95,259
DA:112,3
DA:113,3
DA:114,3
DA:115,3
DA:116,3
DA:137,3
DA:141,3
DA:142,3
DA:143,3
DA:145,3
DA:146,3
DA:147,3
DA:148,3
DA:149,3
DA:178,4
DA:182,4
DA:183,4
DA:184,4
DA:185,4
DA:186,1
DA:187,3
DA:188,3
DA:189,3
DA:190,3
DA:191,3
DA:192,3
DA:193,1
DA:194,4
DA:206,1
DA:207,1
DA:208,1
DA:209,1
DA:210,1
DA:211,1
DA:214,1
DA:216,256
DA:217,256
DA:218,256
DA:219,256
DA:220,256
DA:221,512
DA:225,1
DA:228,1
DA:229,1
DA:230,1
DA:231,1
DA:234,1
DA:235,1
DA:236,1
DA:237,1
DA:238,1
DA:239,1
DA:243,1
DA:244,1
DA:245,1
DA:246,1
DA:247,1
DA:248,1
DA:249,1
DA:253,1
DA:254,1
DA:255,1
DA:256,1
DA:257,1
DA:261,1
DA:262,1
DA:264,1
DA:265,1
DA:266,1
DA:267,1
DA:268,1
DA:269,1
DA:270,1
DA:271,1
DA:275,1
DA:277,1
DA:278,1
DA:279,1
DA:280,1
DA:287,1
DA:288,1
DA:289,1
DA:290,1
DA:291,1
BRF:0
BRH:0
LF:94
LH:94
end_of_record
SF:/Users/gsalingu/git/api-bones/.claude/worktrees/feat+211-nested-org-adr/src/deprecated.rs
FN:197,_RNvNtNtCs1ufPfM0GhR0_9api_bones10deprecated5testss_13header_values
FN:240,_RNvNtNtCs1ufPfM0GhR0_9api_bones10deprecated5testss_14display_format
FN:184,_RNvNtNtCs1ufPfM0GhR0_9api_bones10deprecated5testss_15new_sets_sunset
FN:222,_RNvNtNtCs1ufPfM0GhR0_9api_bones10deprecated5testss_16serde_round_trip
FN:233,_RNvNtNtCs1ufPfM0GhR0_9api_bones10deprecated5testss_21serde_omits_null_link
FN:215,_RNvNtNtCs1ufPfM0GhR0_9api_bones10deprecated5testss_22link_header_value_none
FN:258,_RNvNtNtCs1ufPfM0GhR0_9api_bones10deprecated5testss_24inject_headers_with_link
FN:205,_RNvNtNtCs1ufPfM0GhR0_9api_bones10deprecated5testss_24link_header_value_format
FN:247,_RNvNtNtCs1ufPfM0GhR0_9api_bones10deprecated5testss_42inject_headers_sets_deprecation_and_sunset
FN:191,_RNvNtNtCs1ufPfM0GhR0_9api_bones10deprecated5testss_9with_link
FN:144,_RNvMNtCs1ufPfM0GhR0_9api_bones10deprecatedNtB2_10Deprecated14inject_headers
FN:129,_RNvMNtCs1ufPfM0GhR0_9api_bones10deprecatedNtB2_10Deprecated17link_header_value
FN:107,_RNvMNtCs1ufPfM0GhR0_9api_bones10deprecatedNtB2_10Deprecated19sunset_header_value
FN:92,_RNvMNtCs1ufPfM0GhR0_9api_bones10deprecatedNtB2_10Deprecated24deprecation_header_value
FN:170,_RNvXs_NtCs1ufPfM0GhR0_9api_bones10deprecatedNtB4_10DeprecatedNtNtCsbUtogaBoXXO_4core3fmt7Display3fmt
FN:64,_RINvMNtCs1ufPfM0GhR0_9api_bones10deprecatedNtB3_10Deprecated3newReEB5_
FN:83,_RINvMNtCs1ufPfM0GhR0_9api_bones10deprecatedNtB3_10Deprecated9with_linkReEB5_
FN:134,_RNCNvMNtCs1ufPfM0GhR0_9api_bones10deprecatedNtB4_10Deprecated17link_header_value0B6_
FN:64,_RINvMNtCs6zS5XWhHsrg_9api_bones10deprecatedNtB3_10Deprecated3newpEB5_
FN:83,_RINvMNtCs6zS5XWhHsrg_9api_bones10deprecatedNtB3_10Deprecated9with_linkpEB5_
FN:134,_RNCNvMNtCs6zS5XWhHsrg_9api_bones10deprecatedNtB4_10Deprecated17link_header_value0B6_
FNDA:1,_RNvNtNtCs1ufPfM0GhR0_9api_bones10deprecated5testss_13header_values
FNDA:1,_RNvNtNtCs1ufPfM0GhR0_9api_bones10deprecated5testss_14display_format
FNDA:1,_RNvNtNtCs1ufPfM0GhR0_9api_bones10deprecated5testss_15new_sets_sunset
FNDA:1,_RNvNtNtCs1ufPfM0GhR0_9api_bones10deprecated5testss_16serde_round_trip
FNDA:1,_RNvNtNtCs1ufPfM0GhR0_9api_bones10deprecated5testss_21serde_omits_null_link
FNDA:1,_RNvNtNtCs1ufPfM0GhR0_9api_bones10deprecated5testss_22link_header_value_none
FNDA:1,_RNvNtNtCs1ufPfM0GhR0_9api_bones10deprecated5testss_24inject_headers_with_link
FNDA:1,_RNvNtNtCs1ufPfM0GhR0_9api_bones10deprecated5testss_24link_header_value_format
FNDA:1,_RNvNtNtCs1ufPfM0GhR0_9api_bones10deprecated5testss_42inject_headers_sets_deprecation_and_sunset
FNDA:1,_RNvNtNtCs1ufPfM0GhR0_9api_bones10deprecated5testss_9with_link
FNDA:2,_RNvMNtCs1ufPfM0GhR0_9api_bones10deprecatedNtB2_10Deprecated14inject_headers
FNDA:4,_RNvMNtCs1ufPfM0GhR0_9api_bones10deprecatedNtB2_10Deprecated17link_header_value
FNDA:1,_RNvMNtCs1ufPfM0GhR0_9api_bones10deprecatedNtB2_10Deprecated19sunset_header_value
FNDA:1,_RNvMNtCs1ufPfM0GhR0_9api_bones10deprecatedNtB2_10Deprecated24deprecation_header_value
FNDA:1,_RNvXs_NtCs1ufPfM0GhR0_9api_bones10deprecatedNtB4_10DeprecatedNtNtCsbUtogaBoXXO_4core3fmt7Display3fmt
FNDA:10,_RINvMNtCs1ufPfM0GhR0_9api_bones10deprecatedNtB3_10Deprecated3newReEB5_
FNDA:4,_RINvMNtCs1ufPfM0GhR0_9api_bones10deprecatedNtB3_10Deprecated9with_linkReEB5_
FNDA:2,_RNCNvMNtCs1ufPfM0GhR0_9api_bones10deprecatedNtB4_10Deprecated17link_header_value0B6_
FNDA:0,_RINvMNtCs6zS5XWhHsrg_9api_bones10deprecatedNtB3_10Deprecated3newpEB5_
FNDA:0,_RINvMNtCs6zS5XWhHsrg_9api_bones10deprecatedNtB3_10Deprecated9with_linkpEB5_
FNDA:0,_RNCNvMNtCs6zS5XWhHsrg_9api_bones10deprecatedNtB4_10Deprecated17link_header_value0B6_
FNF:18
FNH:18
DA:64,10
DA:65,10
DA:66,10
DA:67,10
DA:68,10
DA:69,10
DA:83,4
DA:84,4
DA:85,4
DA:86,4
DA:92,1
DA:93,1
DA:94,1
DA:107,1
DA:108,1
DA:109,1
DA:129,4
DA:132,4
DA:133,4
DA:134,4
DA:135,4
DA:144,2
DA:145,2
DA:146,2
DA:147,2
DA:150,2
DA:151,2
DA:152,2
DA:154,2
DA:155,2
DA:156,2
DA:158,2
DA:159,1
DA:160,1
DA:161,2
DA:162,2
DA:170,1
DA:171,1
DA:172,1
DA:184,1
DA:185,1
DA:186,1
DA:187,1
DA:188,1
DA:191,1
DA:192,1
DA:193,1
DA:194,1
DA:197,1
DA:198,1
DA:199,1
DA:200,1
DA:201,1
DA:205,1
DA:206,1
DA:207,1
DA:208,1
DA:211,1
DA:215,1
DA:216,1
DA:217,1
DA:218,1
DA:222,1
DA:223,1
DA:224,1
DA:225,1
DA:226,1
DA:227,1
DA:228,1
DA:229,1
DA:233,1
DA:234,1
DA:235,1
DA:236,1
DA:237,1
DA:240,1
DA:241,1
DA:242,1
DA:243,1
DA:247,1
DA:248,1
DA:249,1
DA:250,1
DA:251,1
DA:252,1
DA:253,1
DA:254,1
DA:258,1
DA:259,1
DA:260,1
DA:261,1
DA:262,1
DA:263,1
DA:264,1
DA:265,1
DA:266,1
BRF:0
BRH:0
LF:97
LH:97
end_of_record
SF:/Users/gsalingu/git/api-bones/.claude/worktrees/feat+211-nested-org-adr/src/error.rs
FN:2890,_RNvNtNtCs1ufPfM0GhR0_9api_bones5error18problem_json_testss_20extend_inserts_entry
FN:2978,_RNvNtNtCs1ufPfM0GhR0_9api_bones5error18problem_json_testss_26instance_omitted_when_none
FN:2967,_RNvNtNtCs1ufPfM0GhR0_9api_bones5error18problem_json_testss_26serializes_extensions_flat
FN:2880,_RNvNtNtCs1ufPfM0GhR0_9api_bones5error18problem_json_testss_27with_instance_sets_instance
FN:2897,_RNvNtNtCs1ufPfM0GhR0_9api_bones5error18problem_json_testss_35from_api_error_maps_standard_fields
FN:2864,_RNvNtNtCs1ufPfM0GhR0_9api_bones5error18problem_json_testss_36new_sets_fields_and_empty_extensions
FN:2932,_RNvNtNtCs1ufPfM0GhR0_9api_bones5error18problem_json_testss_38api_error_rate_limit_omitted_when_none
FN:2922,_RNvNtNtCs1ufPfM0GhR0_9api_bones5error18problem_json_testss_38api_error_rate_limit_serializes_inline
FN:2956,_RNvNtNtCs1ufPfM0GhR0_9api_bones5error18problem_json_testss_42from_api_error_maps_request_id_to_instance
FN:2908,_RNvNtNtCs1ufPfM0GhR0_9api_bones5error18problem_json_testss_43from_api_error_maps_rate_limit_to_extension
FN:2939,_RNvNtNtCs1ufPfM0GhR0_9api_bones5error18problem_json_testss_50from_api_error_maps_validation_errors_to_extension
FN:1504,_RNCNvXsi_NtCs1ufPfM0GhR0_9api_bones5errorNtB7_8ApiErrorNtNtNtCsdzzFRNBoJB7_8proptest9arbitrary6traits9Arbitrary14arbitrary_with0B9_
FN:1493,_RNvXsi_NtCs1ufPfM0GhR0_9api_bones5errorNtB5_8ApiErrorNtNtNtCsdzzFRNBoJB7_8proptest9arbitrary6traits9Arbitrary14arbitrary_with
FN:3049,_RNvNtNtCs1ufPfM0GhR0_9api_bones5error10axum_testss_18into_response_body
FN:3081,_RNvNtNtCs1ufPfM0GhR0_9api_bones5error10axum_testss_22error_code_schema_name
FN:3064,_RNvNtNtCs1ufPfM0GhR0_9api_bones5error10axum_testss_32error_code_schema_is_string_type
FN:3139,_RNvNtNtCs1ufPfM0GhR0_9api_bones5error10axum_testss_32rate_limited_with_no_retry_after
FN:3037,_RNvNtNtCs1ufPfM0GhR0_9api_bones5error10axum_testss_37into_response_status_and_content_type
FN:3123,_RNvNtNtCs1ufPfM0GhR0_9api_bones5error10axum_testss_39problem_json_instance_omitted_when_none
FN:3101,_RNvNtNtCs1ufPfM0GhR0_9api_bones5error10axum_testss_46problem_json_into_response_body_with_extension
FN:3088,_RNvNtNtCs1ufPfM0GhR0_9api_bones5error10axum_testss_50problem_json_into_response_status_and_content_type
FN:202,_RNvMNtCs1ufPfM0GhR0_9api_bones5errorNtB2_13ErrorTypeMode6render
FN:380,_RNvMs_NtCs1ufPfM0GhR0_9api_bones5errorNtB4_9ErrorCode11status_code
FN:543,_RNvMs_NtCs1ufPfM0GhR0_9api_bones5errorNtB4_9ErrorCode13from_type_uri
FN:523,_RNvMs_NtCs1ufPfM0GhR0_9api_bones5errorNtB4_9ErrorCode3urn
FN:424,_RNvMs_NtCs1ufPfM0GhR0_9api_bones5errorNtB4_9ErrorCode5title
FN:470,_RNvMs_NtCs1ufPfM0GhR0_9api_bones5errorNtB4_9ErrorCode8urn_slug
FN:1150,_RNvMsb_NtCs1ufPfM0GhR0_9api_bones5errorNtB5_8ApiError11status_code
FN:1117,_RNvMsb_NtCs1ufPfM0GhR0_9api_bones5errorNtB5_8ApiError11with_causes
FN:1085,_RNvMsb_NtCs1ufPfM0GhR0_9api_bones5errorNtB5_8ApiError11with_errors
FN:1267,_RNvMsb_NtCs1ufPfM0GhR0_9api_bones5errorNtB5_8ApiError12rate_limited
FN:1221,_RNvMsb_NtCs1ufPfM0GhR0_9api_bones5errorNtB5_8ApiError13token_expired
FN:1165,_RNvMsb_NtCs1ufPfM0GhR0_9api_bones5errorNtB5_8ApiError15is_client_error
FN:1180,_RNvMsb_NtCs1ufPfM0GhR0_9api_bones5errorNtB5_8ApiError15is_server_error
FN:1289,_RNvMsb_NtCs1ufPfM0GhR0_9api_bones5errorNtB5_8ApiError15with_rate_limit
FN:1066,_RNvMsb_NtCs1ufPfM0GhR0_9api_bones5errorNtB5_8ApiError15with_request_id
FN:1312,_RNvMsb_NtCs1ufPfM0GhR0_9api_bones5errorNtB5_8ApiError17rate_limited_with
FN:1215,_RNvMsb_NtCs1ufPfM0GhR0_9api_bones5errorNtB5_8ApiError19invalid_credentials
FN:1358,_RNvMsb_NtCs1ufPfM0GhR0_9api_bones5errorNtB5_8ApiError19with_request_id_opt
FN:1346,_RNvMsb_NtCs1ufPfM0GhR0_9api_bones5errorNtB5_8ApiError7builder
FN:1453,_RNvMsf_NtCs1ufPfM0GhR0_9api_bones5errorINtB5_15ApiErrorBuilderNtB5_9ErrorCodeNtNtCsipk7xt2ATo7_5alloc6string6StringE5build
FN:360,_RNvNtCs1ufPfM0GhR0_9api_bones5error13urn_namespace
FN:288,_RNvNtCs1ufPfM0GhR0_9api_bones5error15error_type_mode
FN:326,_RNvNtCs1ufPfM0GhR0_9api_bones5error19set_error_type_mode
FN:338,_RNvNtCs1ufPfM0GhR0_9api_bones5error21reset_error_type_mode
FN:226,_RNvNtCs1ufPfM0GhR0_9api_bones5error23resolve_error_type_mode
FN:2997,_RNvXNtNtCs1ufPfM0GhR0_9api_bones5error9axum_implNtB4_8ApiErrorNtNtNtCsgRxEIuGfDXj_9axum_core8response13into_response12IntoResponse13into_response
FN:598,_RNvXs0_NtCs1ufPfM0GhR0_9api_bones5errorNtB5_9ErrorCodeNtNtCsbUtogaBoXXO_4core3fmt7Display3fmt
FN:629,_RNvXs3_NtCs1ufPfM0GhR0_9api_bones5errorNtB5_9ErrorCodeNtCs4VEtZxq5W3B_6utoipa13PartialSchema6schema
FN:642,_RNvXs4_NtCs1ufPfM0GhR0_9api_bones5errorNtB5_9ErrorCodeNtCs4VEtZxq5W3B_6utoipa8ToSchema4name
FN:670,_RNvXs5_NtCs1ufPfM0GhR0_9api_bones5errorNtB5_9ErrorCodeINtNtCsbUtogaBoXXO_4core7convert7TryFromtE8try_from
FN:723,_RNvXs6_NtCs1ufPfM0GhR0_9api_bones5errorNtB5_9ErrorCodeINtNtCsbUtogaBoXXO_4core7convert7TryFromNtNtCsj901y1vRFmJ_4http6status10StatusCodeE8try_from
FN:780,_RNvXs7_NtCs1ufPfM0GhR0_9api_bones5errorNtB5_15ValidationErrorNtNtCsbUtogaBoXXO_4core3fmt7Display3fmt
FN:3015,_RNvXs_NtNtCs1ufPfM0GhR0_9api_bones5error9axum_implNtB6_11ProblemJsonNtNtNtCsgRxEIuGfDXj_9axum_core8response13into_response12IntoResponse13into_response
FN:954,_RNvXsa_NtCs1ufPfM0GhR0_9api_bones5errorNtB5_8ApiErrorNtNtCsbUtogaBoXXO_4core3cmp9PartialEq2eq
FN:1464,_RNvXsg_NtCs1ufPfM0GhR0_9api_bones5errorNtB5_8ApiErrorNtNtCsbUtogaBoXXO_4core3fmt7Display3fmt
FN:1471,_RNvXsh_NtCs1ufPfM0GhR0_9api_bones5errorNtB5_8ApiErrorNtNtCsbUtogaBoXXO_4core5error5Error6source
FN:2816,_RNvXsk_NtCs1ufPfM0GhR0_9api_bones5errorNtB5_11ProblemJsonINtNtCsbUtogaBoXXO_4core7convert4FromNtB5_8ApiErrorE4from
FN:999,_RINvNtNtCs1ufPfM0GhR0_9api_bones5error15uuid_urn_option11deserializeINtNtNtNtCsk3sbdBdDBYJ_5serde7private2de7content19ContentDeserializerNtNtCsdC8qrlXHNsA_10serde_json5error5ErrorEEB6_
FN:999,_RINvNtNtCs1ufPfM0GhR0_9api_bones5error15uuid_urn_option11deserializeNtNtCsdC8qrlXHNsA_10serde_json5value5ValueEB6_
FN:992,_RINvNtNtCs1ufPfM0GhR0_9api_bones5error15uuid_urn_option9serializeNtNtNtCsdC8qrlXHNsA_10serde_json5value3ser10SerializerEB6_
FN:992,_RINvNtNtCs1ufPfM0GhR0_9api_bones5error15uuid_urn_option9serializeQINtNtCsdC8qrlXHNsA_10serde_json3ser10SerializerQINtNtCsipk7xt2ATo7_5alloc3vec3VechEEEB6_
FN:1004,_RNCINvNtNtCs1ufPfM0GhR0_9api_bones5error15uuid_urn_option11deserializeINtNtNtNtCsk3sbdBdDBYJ_5serde7private2de7content19ContentDeserializerNtNtCsdC8qrlXHNsA_10serde_json5error5ErrorEE0B8_
FN:1004,_RNCINvNtNtCs1ufPfM0GhR0_9api_bones5error15uuid_urn_option11deserializeNtNtCsdC8qrlXHNsA_10serde_json5value5ValueE0B8_
FN:1542,_RNvNtNtCs1ufPfM0GhR0_9api_bones5error5tests19lock_and_reset_mode
FN:1755,_RNvNtNtCs1ufPfM0GhR0_9api_bones5error5testss_11wire_format
FN:1743,_RNvNtNtCs1ufPfM0GhR0_9api_bones5error5testss_11with_errors
FN:1641,_RNvNtNtCs1ufPfM0GhR0_9api_bones5error5testss_12status_codes
FN:2256,_RNvNtNtCs1ufPfM0GhR0_9api_bones5error5testss_13builder_basic
FN:1720,_RNvNtNtCs1ufPfM0GhR0_9api_bones5error5testss_14display_format
FN:1679,_RNvNtNtCs1ufPfM0GhR0_9api_bones5error5testss_14error_code_urn
FN:1730,_RNvNtNtCs1ufPfM0GhR0_9api_bones5error5testss_15title_populated
FN:1736,_RNvNtNtCs1ufPfM0GhR0_9api_bones5error5testss_15with_request_id
FN:1860,_RNvNtNtCs1ufPfM0GhR0_9api_bones5error5testss_16client_vs_server
FN:1805,_RNvNtNtCs1ufPfM0GhR0_9api_bones5error5testss_18snapshot_not_found
FN:2581,_RNvNtNtCs1ufPfM0GhR0_9api_bones5error5testss_19builder_with_causes
FN:2537,_RNvNtNtCs1ufPfM0GhR0_9api_bones5error5testss_21with_causes_roundtrip
FN:2509,_RNvNtNtCs1ufPfM0GhR0_9api_bones5error5testss_23http_error_blanket_from
FN:1789,_RNvNtNtCs1ufPfM0GhR0_9api_bones5error5testss_23wire_format_with_errors
FN:2598,_RNvNtNtCs1ufPfM0GhR0_9api_bones5error5testss_24with_extension_roundtrip
FN:2483,_RNvNtNtCs1ufPfM0GhR0_9api_bones5error5testss_25api_error_schema_is_valid
FN:2447,_RNvNtNtCs1ufPfM0GhR0_9api_bones5error5testss_25api_error_source_downcast
FN:2559,_RNvNtNtCs1ufPfM0GhR0_9api_bones5error5testss_25causes_omitted_when_empty
FN:2297,_RNvNtNtCs1ufPfM0GhR0_9api_bones5error5testss_26builder_detail_before_code
FN:2475,_RNvNtNtCs1ufPfM0GhR0_9api_bones5error5testss_26error_code_schema_is_valid
FN:1850,_RNvNtNtCs1ufPfM0GhR0_9api_bones5error5testss_26error_code_serde_roundtrip
FN:1871,_RNvNtNtCs1ufPfM0GhR0_9api_bones5error5testss_26error_type_mode_render_url
FN:2618,_RNvNtNtCs1ufPfM0GhR0_9api_bones5error5testss_26extension_roundtrip_ser_de
FN:1657,_RNvNtNtCs1ufPfM0GhR0_9api_bones5error5testss_26status_in_valid_http_range
FN:2269,_RNvNtNtCs1ufPfM0GhR0_9api_bones5error5testss_28builder_equivalence_with_new
FN:1963,_RNvNtNtCs1ufPfM0GhR0_9api_bones5error5testss_28from_type_uri_url_mode_paths
FN:2433,_RNvNtNtCs1ufPfM0GhR0_9api_bones5error5testss_29validation_error_is_std_error
FN:2279,_RNvNtNtCs1ufPfM0GhR0_9api_bones5error5testss_30builder_chaining_all_optionals
FN:2546,_RNvNtNtCs1ufPfM0GhR0_9api_bones5error5testss_30causes_serialized_as_extension
FN:2312,_RNvNtNtCs1ufPfM0GhR0_9api_bones5error5testss_32api_error_source_none_by_default
FN:1713,_RNvNtNtCs1ufPfM0GhR0_9api_bones5error5testss_32error_code_from_type_uri_unknown
FN:2498,_RNvNtNtCs1ufPfM0GhR0_9api_bones5error5testss_32validation_error_schema_is_valid
FN:1773,_RNvNtNtCs1ufPfM0GhR0_9api_bones5error5testss_32wire_format_instance_is_urn_uuid
FN:2342,_RNvNtNtCs1ufPfM0GhR0_9api_bones5error5testss_33api_error_source_chain_two_levels
FN:1571,_RNvNtNtCs1ufPfM0GhR0_9api_bones5error5testss_33error_code_try_from_u16_roundtrip
FN:2390,_RNvNtNtCs1ufPfM0GhR0_9api_bones5error5testss_34api_error_with_source_is_cloneable
FN:1696,_RNvNtNtCs1ufPfM0GhR0_9api_bones5error5testss_34error_code_from_type_uri_roundtrip
FN:2606,_RNvNtNtCs1ufPfM0GhR0_9api_bones5error5testss_34extension_flattened_in_wire_format
FN:2413,_RNvNtNtCs1ufPfM0GhR0_9api_bones5error5testss_34validation_error_display_with_rule
FN:2371,_RNvNtNtCs1ufPfM0GhR0_9api_bones5error5testss_35api_error_partial_eq_ignores_source
FN:1925,_RNvNtNtCs1ufPfM0GhR0_9api_bones5error5testss_36error_type_mode_url_from_runtime_env
FN:1945,_RNvNtNtCs1ufPfM0GhR0_9api_bones5error5testss_36error_type_mode_urn_from_runtime_env
FN:2141,_RNvNtNtCs1ufPfM0GhR0_9api_bones5error5testss_36insufficient_permissions_constructor
FN:2423,_RNvNtNtCs1ufPfM0GhR0_9api_bones5error5testss_37validation_error_display_without_rule
FN:2568,_RNvNtNtCs1ufPfM0GhR0_9api_bones5error5testss_38causes_propagated_through_problem_json
FN:1820,_RNvNtNtCs1ufPfM0GhR0_9api_bones5error5testss_38snapshot_validation_failed_with_errors
FN:2319,_RNvNtNtCs1ufPfM0GhR0_9api_bones5error5testss_39api_error_with_source_chain_is_walkable
FN:1913,_RNvNtNtCs1ufPfM0GhR0_9api_bones5error5testss_40urn_namespace_urn_mode_returns_namespace
FN:1991,_RNvNtNtCs1ufPfM0GhR0_9api_bones5error5testss_41all_error_code_variants_title_slug_status
FN:1620,_RNvNtNtCs1ufPfM0GhR0_9api_bones5error5testss_41error_code_try_from_status_code_roundtrip
FN:2628,_RNvNtNtCs1ufPfM0GhR0_9api_bones5error5testss_41extension_propagated_through_problem_json
FN:2155,_RNvNtNtCs1ufPfM0GhR0_9api_bones5error5testss_42error_code_deserialize_non_string_is_error
FN:2220,_RNvNtNtCs1ufPfM0GhR0_9api_bones5error5testss_42uuid_urn_option_deserialize_valid_urn_uuid
FN:2164,_RNvNtNtCs1ufPfM0GhR0_9api_bones5error5testss_43error_code_deserialize_unknown_uri_is_error
FN:2204,_RNvNtNtCs1ufPfM0GhR0_9api_bones5error5testss_43uuid_urn_option_deserialize_null_gives_none
FN:2174,_RNvNtNtCs1ufPfM0GhR0_9api_bones5error5testss_44uuid_urn_option_serialize_none_produces_null
FN:1555,_RNvNtNtCs1ufPfM0GhR0_9api_bones5error5testss_45error_code_try_from_u16_non_error_returns_err
FN:2237,_RNvNtNtCs1ufPfM0GhR0_9api_bones5error5testss_47uuid_urn_option_deserialize_bad_prefix_is_error
FN:2187,_RNvNtNtCs1ufPfM0GhR0_9api_bones5error5testss_47uuid_urn_option_deserialize_non_string_is_error
FN:1565,_RNvNtNtCs1ufPfM0GhR0_9api_bones5error5testss_48error_code_try_from_u16_unmapped_4xx_returns_err
FN:1897,_RNvNtNtCs1ufPfM0GhR0_9api_bones5error5testss_50set_error_type_mode_url_and_urn_namespace_fallback
FN:1612,_RNvNtNtCs1ufPfM0GhR0_9api_bones5error5testss_53error_code_try_from_status_code_non_error_returns_err
FN:2517,_RNvXNvNtNtCs1ufPfM0GhR0_9api_bones5error5testss_23http_error_blanket_fromNtB2_8NotFoundNtB6_9HttpError10error_code
FN:2514,_RNvXNvNtNtCs1ufPfM0GhR0_9api_bones5error5testss_23http_error_blanket_fromNtB2_8NotFoundNtB6_9HttpError11status_code
FN:2520,_RNvXNvNtNtCs1ufPfM0GhR0_9api_bones5error5testss_23http_error_blanket_fromNtB2_8NotFoundNtB6_9HttpError6detail
FN:2454,_RNvXNvNtNtCs1ufPfM0GhR0_9api_bones5error5testss_25api_error_source_downcastNtB2_5TypedNtNtCsbUtogaBoXXO_4core3fmt7Display3fmt
FN:2348,_RNvXNvNtNtCs1ufPfM0GhR0_9api_bones5error5testss_33api_error_source_chain_two_levelsNtB2_3MidNtNtCsbUtogaBoXXO_4core3fmt7Display3fmt
FN:2396,_RNvXNvNtNtCs1ufPfM0GhR0_9api_bones5error5testss_34api_error_with_source_is_cloneableNtB2_5CauseNtNtCsbUtogaBoXXO_4core3fmt7Display3fmt
FN:2375,_RNvXNvNtNtCs1ufPfM0GhR0_9api_bones5error5testss_35api_error_partial_eq_ignores_sourceNtB2_5CauseNtNtCsbUtogaBoXXO_4core3fmt7Display3fmt
FN:2325,_RNvXNvNtNtCs1ufPfM0GhR0_9api_bones5error5testss_39api_error_with_source_chain_is_walkableNtB2_9RootCauseNtNtCsbUtogaBoXXO_4core3fmt7Display3fmt
FN:2353,_RNvXs_NvNtNtCs1ufPfM0GhR0_9api_bones5error5testss_33api_error_source_chain_two_levelsNtB4_3MidNtNtCsbUtogaBoXXO_4core5error5Error6source
FN:3049,_RNCNvNtNtCs1ufPfM0GhR0_9api_bones5error10axum_testss_18into_response_body0B7_
FN:3037,_RNCNvNtNtCs1ufPfM0GhR0_9api_bones5error10axum_testss_37into_response_status_and_content_type0B7_
FN:3123,_RNCNvNtNtCs1ufPfM0GhR0_9api_bones5error10axum_testss_39problem_json_instance_omitted_when_none0B7_
FN:3101,_RNCNvNtNtCs1ufPfM0GhR0_9api_bones5error10axum_testss_46problem_json_into_response_body_with_extension0B7_
FN:3088,_RNCNvNtNtCs1ufPfM0GhR0_9api_bones5error10axum_testss_50problem_json_into_response_status_and_content_type0B7_
FN:1535,_RNvXNtNtCs1ufPfM0GhR0_9api_bones5error5testsNtB2_9ModeGuardNtNtNtCsbUtogaBoXXO_4core3ops4drop4Drop4drop
FN:1199,_RINvMsb_NtCs1ufPfM0GhR0_9api_bones5errorNtB6_8ApiError11bad_requestNtNtCsipk7xt2ATo7_5alloc6string6StringEB8_
FN:1199,_RINvMsb_NtCs1ufPfM0GhR0_9api_bones5errorNtB6_8ApiError11bad_requestReEB8_
FN:1326,_RINvMsb_NtCs1ufPfM0GhR0_9api_bones5errorNtB6_8ApiError11unavailableReEB8_
FN:1098,_RINvMsb_NtCs1ufPfM0GhR0_9api_bones5errorNtB6_8ApiError11with_sourceNtNvNtB6_5testss_25api_error_source_downcast5TypedEB8_
FN:1098,_RINvMsb_NtCs1ufPfM0GhR0_9api_bones5errorNtB6_8ApiError11with_sourceNtNvNtB6_5testss_33api_error_source_chain_two_levels3MidEB8_
FN:1098,_RINvMsb_NtCs1ufPfM0GhR0_9api_bones5errorNtB6_8ApiError11with_sourceNtNvNtB6_5testss_34api_error_with_source_is_cloneable5CauseEB8_
FN:1098,_RINvMsb_NtCs1ufPfM0GhR0_9api_bones5errorNtB6_8ApiError11with_sourceNtNvNtB6_5testss_35api_error_partial_eq_ignores_source5CauseEB8_
FN:1098,_RINvMsb_NtCs1ufPfM0GhR0_9api_bones5errorNtB6_8ApiError11with_sourceNtNvNtB6_5testss_39api_error_with_source_chain_is_walkable9RootCauseEB8_
FN:1209,_RINvMsb_NtCs1ufPfM0GhR0_9api_bones5errorNtB6_8ApiError12unauthorizedNtNtCsipk7xt2ATo7_5alloc6string6StringEB8_
FN:1209,_RINvMsb_NtCs1ufPfM0GhR0_9api_bones5errorNtB6_8ApiError12unauthorizedReEB8_
FN:1261,_RINvMsb_NtCs1ufPfM0GhR0_9api_bones5errorNtB6_8ApiError13unprocessableReEB8_
FN:1256,_RINvMsb_NtCs1ufPfM0GhR0_9api_bones5errorNtB6_8ApiError14already_existsReEB8_
FN:1139,_RINvMsb_NtCs1ufPfM0GhR0_9api_bones5errorNtB6_8ApiError14with_extensionReB16_EB8_
FN:1139,_RINvMsb_NtCs1ufPfM0GhR0_9api_bones5errorNtB6_8ApiError14with_extensionReyEB8_
FN:1204,_RINvMsb_NtCs1ufPfM0GhR0_9api_bones5errorNtB6_8ApiError17validation_failedReEB8_
FN:1231,_RINvMsb_NtCs1ufPfM0GhR0_9api_bones5errorNtB6_8ApiError24insufficient_permissionsReEB8_
FN:1029,_RINvMsb_NtCs1ufPfM0GhR0_9api_bones5errorNtB6_8ApiError3newNtNtCsipk7xt2ATo7_5alloc6string6StringEB8_
FN:1029,_RINvMsb_NtCs1ufPfM0GhR0_9api_bones5errorNtB6_8ApiError3newReEB8_
FN:1251,_RINvMsb_NtCs1ufPfM0GhR0_9api_bones5errorNtB6_8ApiError8conflictReEB8_
FN:1321,_RINvMsb_NtCs1ufPfM0GhR0_9api_bones5errorNtB6_8ApiError8internalReEB8_
FN:1226,_RINvMsb_NtCs1ufPfM0GhR0_9api_bones5errorNtB6_8ApiError9forbiddenReEB8_
FN:1246,_RINvMsb_NtCs1ufPfM0GhR0_9api_bones5errorNtB6_8ApiError9not_foundReEB8_
FN:1410,_RINvMsd_NtCs1ufPfM0GhR0_9api_bones5errorINtB6_15ApiErrorBuilderNtB6_9ErrorCodeuE6detailReEB8_
FN:1410,_RINvMsd_NtCs1ufPfM0GhR0_9api_bones5errorINtB6_15ApiErrorBuilderuuE6detailReEB8_
FN:2776,_RINvMsj_NtCs1ufPfM0GhR0_9api_bones5errorNtB6_11ProblemJson13with_instanceReEB8_
FN:2748,_RINvMsj_NtCs1ufPfM0GhR0_9api_bones5errorNtB6_11ProblemJson3newNtNtCsipk7xt2ATo7_5alloc6string6StringBY_BY_EB8_
FN:2748,_RINvMsj_NtCs1ufPfM0GhR0_9api_bones5errorNtB6_11ProblemJson3newReBY_BY_EB8_
FN:2792,_RINvMsj_NtCs1ufPfM0GhR0_9api_bones5errorNtB6_11ProblemJson6extendReB11_EB8_
FN:613,_RINvXs1_NtCs1ufPfM0GhR0_9api_bones5errorNtB6_9ErrorCodeNtNtCseAJKguVKcII_10serde_core3ser9Serialize9serializeNtNtNtCsdC8qrlXHNsA_10serde_json5value3ser10SerializerEB8_
FN:613,_RINvXs1_NtCs1ufPfM0GhR0_9api_bones5errorNtB6_9ErrorCodeNtNtCseAJKguVKcII_10serde_core3ser9Serialize9serializeQINtNtCsdC8qrlXHNsA_10serde_json3ser10SerializerQINtNtCsipk7xt2ATo7_5alloc3vec3VechEEEB8_
FN:620,_RINvXs2_NtCs1ufPfM0GhR0_9api_bones5errorNtB6_9ErrorCodeNtNtCseAJKguVKcII_10serde_core2de11Deserialize11deserializeINtNtNtNtCsk3sbdBdDBYJ_5serde7private2de7content19ContentDeserializerNtNtCsdC8qrlXHNsA_10serde_json5error5ErrorEEB8_
FN:620,_RINvXs2_NtCs1ufPfM0GhR0_9api_bones5errorNtB6_9ErrorCodeNtNtCseAJKguVKcII_10serde_core2de11Deserialize11deserializeINtNvNtNtCsk3sbdBdDBYJ_5serde7private2de13missing_field24MissingFieldDeserializerNtNtCsdC8qrlXHNsA_10serde_json5error5ErrorEEB8_
FN:620,_RINvXs2_NtCs1ufPfM0GhR0_9api_bones5errorNtB6_9ErrorCodeNtNtCseAJKguVKcII_10serde_core2de11Deserialize11deserializeNtNtCsdC8qrlXHNsA_10serde_json5value5ValueEB8_
FN:623,_RNCINvXs2_NtCs1ufPfM0GhR0_9api_bones5errorNtB8_9ErrorCodeNtNtCseAJKguVKcII_10serde_core2de11Deserialize11deserializeINtNtNtNtCsk3sbdBdDBYJ_5serde7private2de7content19ContentDeserializerNtNtCsdC8qrlXHNsA_10serde_json5error5ErrorEE0Ba_
FN:623,_RNCINvXs2_NtCs1ufPfM0GhR0_9api_bones5errorNtB8_9ErrorCodeNtNtCseAJKguVKcII_10serde_core2de11Deserialize11deserializeINtNvNtNtCsk3sbdBdDBYJ_5serde7private2de13missing_field24MissingFieldDeserializerNtNtCsdC8qrlXHNsA_10serde_json5error5ErrorEE0Ba_
FN:623,_RNCINvXs2_NtCs1ufPfM0GhR0_9api_bones5errorNtB8_9ErrorCodeNtNtCseAJKguVKcII_10serde_core2de11Deserialize11deserializeNtNtCsdC8qrlXHNsA_10serde_json5value5ValueE0Ba_
FN:548,_RNCNvMs_NtCs1ufPfM0GhR0_9api_bones5errorNtB6_9ErrorCode13from_type_uri0B8_
FN:1474,_RNCNvXsh_NtCs1ufPfM0GhR0_9api_bones5errorNtB7_8ApiErrorNtNtCsbUtogaBoXXO_4core5error5Error6source0B9_
FN:2840,_RNCNvXsk_NtCs1ufPfM0GhR0_9api_bones5errorNtB7_11ProblemJsonINtNtCsbUtogaBoXXO_4core7convert4FromNtB7_8ApiErrorE4from0B9_
FN:1395,_RNvMsc_NtCs1ufPfM0GhR0_9api_bones5errorINtB5_15ApiErrorBuilderuNtNtCsipk7xt2ATo7_5alloc6string6StringE4codeB7_
FN:1395,_RNvMsc_NtCs1ufPfM0GhR0_9api_bones5errorINtB5_15ApiErrorBuilderuuE4codeB7_
FN:1427,_RNvMse_NtCs1ufPfM0GhR0_9api_bones5errorINtB5_15ApiErrorBuilderNtB5_9ErrorCodeNtNtCsipk7xt2ATo7_5alloc6string6StringE10request_idB7_
FN:1441,_RNvMse_NtCs1ufPfM0GhR0_9api_bones5errorINtB5_15ApiErrorBuilderNtB5_9ErrorCodeNtNtCsipk7xt2ATo7_5alloc6string6StringE6causesB7_
FN:1434,_RNvMse_NtCs1ufPfM0GhR0_9api_bones5errorINtB5_15ApiErrorBuilderNtB5_9ErrorCodeNtNtCsipk7xt2ATo7_5alloc6string6StringE6errorsB7_
FN:832,_RNvXs9_NtCs1ufPfM0GhR0_9api_bones5errorNtB5_8ApiErrorINtNtCsbUtogaBoXXO_4core7convert4FromNtNvNtB5_5testss_23http_error_blanket_from8NotFoundE4fromB7_
FN:1326,_RINvMsb_NtCs6zS5XWhHsrg_9api_bones5errorNtB6_8ApiError11unavailablepEB8_
FN:1098,_RINvMsb_NtCs6zS5XWhHsrg_9api_bones5errorNtB6_8ApiError11with_sourcepEB8_
FN:1261,_RINvMsb_NtCs6zS5XWhHsrg_9api_bones5errorNtB6_8ApiError13unprocessablepEB8_
FN:1256,_RINvMsb_NtCs6zS5XWhHsrg_9api_bones5errorNtB6_8ApiError14already_existspEB8_
FN:1139,_RINvMsb_NtCs6zS5XWhHsrg_9api_bones5errorNtB6_8ApiError14with_extensionppEB8_
FN:1204,_RINvMsb_NtCs6zS5XWhHsrg_9api_bones5errorNtB6_8ApiError17validation_failedpEB8_
FN:1231,_RINvMsb_NtCs6zS5XWhHsrg_9api_bones5errorNtB6_8ApiError24insufficient_permissionspEB8_
FN:1251,_RINvMsb_NtCs6zS5XWhHsrg_9api_bones5errorNtB6_8ApiError8conflictpEB8_
FN:1321,_RINvMsb_NtCs6zS5XWhHsrg_9api_bones5errorNtB6_8ApiError8internalpEB8_
FN:1226,_RINvMsb_NtCs6zS5XWhHsrg_9api_bones5errorNtB6_8ApiError9forbiddenpEB8_
FN:1246,_RINvMsb_NtCs6zS5XWhHsrg_9api_bones5errorNtB6_8ApiError9not_foundpEB8_
FN:1410,_RINvMsd_NtCs6zS5XWhHsrg_9api_bones5errorINtB6_15ApiErrorBuilderpuE6detailpEB8_
FN:2776,_RINvMsj_NtCs6zS5XWhHsrg_9api_bones5errorNtB6_11ProblemJson13with_instancepEB8_
FN:2792,_RINvMsj_NtCs6zS5XWhHsrg_9api_bones5errorNtB6_11ProblemJson6extendppEB8_
FN:999,_RINvNtNtCs6zS5XWhHsrg_9api_bones5error15uuid_urn_option11deserializepEB6_
FN:620,_RINvXs2_NtCs6zS5XWhHsrg_9api_bones5errorNtB6_9ErrorCodeNtNtCseAJKguVKcII_10serde_core2de11Deserialize11deserializepEB8_
FN:1004,_RNCINvNtNtCs6zS5XWhHsrg_9api_bones5error15uuid_urn_option11deserializepE0B8_
FN:623,_RNCINvXs2_NtCs6zS5XWhHsrg_9api_bones5errorNtB8_9ErrorCodeNtNtCseAJKguVKcII_10serde_core2de11Deserialize11deserializepE0Ba_
FN:1395,_RNvMsc_NtCs6zS5XWhHsrg_9api_bones5errorINtB5_15ApiErrorBuilderupE4codeB7_
FN:1427,_RNvMse_NtCs6zS5XWhHsrg_9api_bones5errorINtB5_15ApiErrorBuilderppE10request_idB7_
FN:1441,_RNvMse_NtCs6zS5XWhHsrg_9api_bones5errorINtB5_15ApiErrorBuilderppE6causesB7_
FN:1434,_RNvMse_NtCs6zS5XWhHsrg_9api_bones5errorINtB5_15ApiErrorBuilderppE6errorsB7_
FN:832,_RNvXININtCs6zS5XWhHsrg_9api_bones5errors9_0pENtB5_8ApiErrorINtNtCsbUtogaBoXXO_4core7convert4FrompE4fromB7_
FN:202,_RNvMNtCs6zS5XWhHsrg_9api_bones5errorNtB2_13ErrorTypeMode6render
FN:380,_RNvMs_NtCs6zS5XWhHsrg_9api_bones5errorNtB4_9ErrorCode11status_code
FN:543,_RNvMs_NtCs6zS5XWhHsrg_9api_bones5errorNtB4_9ErrorCode13from_type_uri
FN:523,_RNvMs_NtCs6zS5XWhHsrg_9api_bones5errorNtB4_9ErrorCode3urn
FN:424,_RNvMs_NtCs6zS5XWhHsrg_9api_bones5errorNtB4_9ErrorCode5title
FN:470,_RNvMs_NtCs6zS5XWhHsrg_9api_bones5errorNtB4_9ErrorCode8urn_slug
FN:1150,_RNvMsb_NtCs6zS5XWhHsrg_9api_bones5errorNtB5_8ApiError11status_code
FN:1117,_RNvMsb_NtCs6zS5XWhHsrg_9api_bones5errorNtB5_8ApiError11with_causes
FN:1085,_RNvMsb_NtCs6zS5XWhHsrg_9api_bones5errorNtB5_8ApiError11with_errors
FN:1267,_RNvMsb_NtCs6zS5XWhHsrg_9api_bones5errorNtB5_8ApiError12rate_limited
FN:1221,_RNvMsb_NtCs6zS5XWhHsrg_9api_bones5errorNtB5_8ApiError13token_expired
FN:1165,_RNvMsb_NtCs6zS5XWhHsrg_9api_bones5errorNtB5_8ApiError15is_client_error
FN:1180,_RNvMsb_NtCs6zS5XWhHsrg_9api_bones5errorNtB5_8ApiError15is_server_error
FN:1289,_RNvMsb_NtCs6zS5XWhHsrg_9api_bones5errorNtB5_8ApiError15with_rate_limit
FN:1066,_RNvMsb_NtCs6zS5XWhHsrg_9api_bones5errorNtB5_8ApiError15with_request_id
FN:1312,_RNvMsb_NtCs6zS5XWhHsrg_9api_bones5errorNtB5_8ApiError17rate_limited_with
FN:1215,_RNvMsb_NtCs6zS5XWhHsrg_9api_bones5errorNtB5_8ApiError19invalid_credentials
FN:1358,_RNvMsb_NtCs6zS5XWhHsrg_9api_bones5errorNtB5_8ApiError19with_request_id_opt
FN:1346,_RNvMsb_NtCs6zS5XWhHsrg_9api_bones5errorNtB5_8ApiError7builder
FN:1453,_RNvMsf_NtCs6zS5XWhHsrg_9api_bones5errorINtB5_15ApiErrorBuilderNtB5_9ErrorCodeNtNtCsipk7xt2ATo7_5alloc6string6StringE5build
FN:360,_RNvNtCs6zS5XWhHsrg_9api_bones5error13urn_namespace
FN:288,_RNvNtCs6zS5XWhHsrg_9api_bones5error15error_type_mode
FN:326,_RNvNtCs6zS5XWhHsrg_9api_bones5error19set_error_type_mode
FN:226,_RNvNtCs6zS5XWhHsrg_9api_bones5error23resolve_error_type_mode
FN:2997,_RNvXNtNtCs6zS5XWhHsrg_9api_bones5error9axum_implNtB4_8ApiErrorNtNtNtCsgRxEIuGfDXj_9axum_core8response13into_response12IntoResponse13into_response
FN:598,_RNvXs0_NtCs6zS5XWhHsrg_9api_bones5errorNtB5_9ErrorCodeNtNtCsbUtogaBoXXO_4core3fmt7Display3fmt
FN:629,_RNvXs3_NtCs6zS5XWhHsrg_9api_bones5errorNtB5_9ErrorCodeNtCs4VEtZxq5W3B_6utoipa13PartialSchema6schema
FN:642,_RNvXs4_NtCs6zS5XWhHsrg_9api_bones5errorNtB5_9ErrorCodeNtCs4VEtZxq5W3B_6utoipa8ToSchema4name
FN:670,_RNvXs5_NtCs6zS5XWhHsrg_9api_bones5errorNtB5_9ErrorCodeINtNtCsbUtogaBoXXO_4core7convert7TryFromtE8try_from
FN:723,_RNvXs6_NtCs6zS5XWhHsrg_9api_bones5errorNtB5_9ErrorCodeINtNtCsbUtogaBoXXO_4core7convert7TryFromNtNtCsj901y1vRFmJ_4http6status10StatusCodeE8try_from
FN:780,_RNvXs7_NtCs6zS5XWhHsrg_9api_bones5errorNtB5_15ValidationErrorNtNtCsbUtogaBoXXO_4core3fmt7Display3fmt
FN:3015,_RNvXs_NtNtCs6zS5XWhHsrg_9api_bones5error9axum_implNtB6_11ProblemJsonNtNtNtCsgRxEIuGfDXj_9axum_core8response13into_response12IntoResponse13into_response
FN:954,_RNvXsa_NtCs6zS5XWhHsrg_9api_bones5errorNtB5_8ApiErrorNtNtCsbUtogaBoXXO_4core3cmp9PartialEq2eq
FN:1464,_RNvXsg_NtCs6zS5XWhHsrg_9api_bones5errorNtB5_8ApiErrorNtNtCsbUtogaBoXXO_4core3fmt7Display3fmt
FN:1471,_RNvXsh_NtCs6zS5XWhHsrg_9api_bones5errorNtB5_8ApiErrorNtNtCsbUtogaBoXXO_4core5error5Error6source
FN:1493,_RNvXsi_NtCs6zS5XWhHsrg_9api_bones5errorNtB5_8ApiErrorNtNtNtCsdzzFRNBoJB7_8proptest9arbitrary6traits9Arbitrary14arbitrary_with
FN:2816,_RNvXsk_NtCs6zS5XWhHsrg_9api_bones5errorNtB5_11ProblemJsonINtNtCsbUtogaBoXXO_4core7convert4FromNtB5_8ApiErrorE4from
FN:1199,_RINvMsb_NtCs6zS5XWhHsrg_9api_bones5errorNtB6_8ApiError11bad_requestNtNtCsipk7xt2ATo7_5alloc6string6StringEB8_
FN:1209,_RINvMsb_NtCs6zS5XWhHsrg_9api_bones5errorNtB6_8ApiError12unauthorizedNtNtCsipk7xt2ATo7_5alloc6string6StringEB8_
FN:1029,_RINvMsb_NtCs6zS5XWhHsrg_9api_bones5errorNtB6_8ApiError3newNtNtCsipk7xt2ATo7_5alloc6string6StringEB8_
FN:1029,_RINvMsb_NtCs6zS5XWhHsrg_9api_bones5errorNtB6_8ApiError3newReEB8_
FN:2748,_RINvMsj_NtCs6zS5XWhHsrg_9api_bones5errorNtB6_11ProblemJson3newNtNtCsipk7xt2ATo7_5alloc6string6StringBY_BY_EB8_
FN:613,_RINvXs1_NtCs6zS5XWhHsrg_9api_bones5errorNtB6_9ErrorCodeNtNtCseAJKguVKcII_10serde_core3ser9Serialize9serializeNtNtNtCsdC8qrlXHNsA_10serde_json5value3ser10SerializerEB8_
FN:613,_RINvXs1_NtCs6zS5XWhHsrg_9api_bones5errorNtB6_9ErrorCodeNtNtCseAJKguVKcII_10serde_core3ser9Serialize9serializeQINtNtCsdC8qrlXHNsA_10serde_json3ser10SerializerQINtNtCsipk7xt2ATo7_5alloc3vec3VechEEEB8_
FN:548,_RNCNvMs_NtCs6zS5XWhHsrg_9api_bones5errorNtB6_9ErrorCode13from_type_uri0B8_
FN:1474,_RNCNvXsh_NtCs6zS5XWhHsrg_9api_bones5errorNtB7_8ApiErrorNtNtCsbUtogaBoXXO_4core5error5Error6source0B9_
FN:1504,_RNCNvXsi_NtCs6zS5XWhHsrg_9api_bones5errorNtB7_8ApiErrorNtNtNtCsdzzFRNBoJB7_8proptest9arbitrary6traits9Arbitrary14arbitrary_with0B9_
FN:2840,_RNCNvXsk_NtCs6zS5XWhHsrg_9api_bones5errorNtB7_11ProblemJsonINtNtCsbUtogaBoXXO_4core7convert4FromNtB7_8ApiErrorE4from0B9_
FN:992,_RINvNtNtCs6zS5XWhHsrg_9api_bones5error15uuid_urn_option9serializeNtNtNtCsdC8qrlXHNsA_10serde_json5value3ser10SerializerEB6_
FN:992,_RINvNtNtCs6zS5XWhHsrg_9api_bones5error15uuid_urn_option9serializeQINtNtCsdC8qrlXHNsA_10serde_json3ser10SerializerQINtNtCsipk7xt2ATo7_5alloc3vec3VechEEEB6_
FN:1321,_RINvMsb_NtCs6zS5XWhHsrg_9api_bones5errorNtB6_8ApiError8internalReECs2jOaoKFfTIb_15api_bones_tower
FN:1246,_RINvMsb_NtCs6zS5XWhHsrg_9api_bones5errorNtB6_8ApiError9not_foundReECs2jOaoKFfTIb_15api_bones_tower
FN:620,_RINvXs2_NtCs6zS5XWhHsrg_9api_bones5errorNtB6_9ErrorCodeNtNtCseAJKguVKcII_10serde_core2de11Deserialize11deserializeINtNvNtNtCsk3sbdBdDBYJ_5serde7private2de13missing_field24MissingFieldDeserializerNtNtCsdC8qrlXHNsA_10serde_json5error5ErrorEECs52cul6wXlX0_10fake_smoke
FN:620,_RINvXs2_NtCs6zS5XWhHsrg_9api_bones5errorNtB6_9ErrorCodeNtNtCseAJKguVKcII_10serde_core2de11Deserialize11deserializeNtNtCsdC8qrlXHNsA_10serde_json5value5ValueECs52cul6wXlX0_10fake_smoke
FN:623,_RNCINvXs2_NtCs6zS5XWhHsrg_9api_bones5errorNtB8_9ErrorCodeNtNtCseAJKguVKcII_10serde_core2de11Deserialize11deserializeINtNvNtNtCsk3sbdBdDBYJ_5serde7private2de13missing_field24MissingFieldDeserializerNtNtCsdC8qrlXHNsA_10serde_json5error5ErrorEE0Cs52cul6wXlX0_10fake_smoke
FN:623,_RNCINvXs2_NtCs6zS5XWhHsrg_9api_bones5errorNtB8_9ErrorCodeNtNtCseAJKguVKcII_10serde_core2de11Deserialize11deserializeNtNtCsdC8qrlXHNsA_10serde_json5value5ValueE0Cs52cul6wXlX0_10fake_smoke
FN:999,_RINvNtNtCs6zS5XWhHsrg_9api_bones5error15uuid_urn_option11deserializeNtNtCsdC8qrlXHNsA_10serde_json5value5ValueECs52cul6wXlX0_10fake_smoke
FN:1004,_RNCINvNtNtCs6zS5XWhHsrg_9api_bones5error15uuid_urn_option11deserializeNtNtCsdC8qrlXHNsA_10serde_json5value5ValueE0Cs52cul6wXlX0_10fake_smoke
FN:1199,_RINvMsb_NtCs6zS5XWhHsrg_9api_bones5errorNtB6_8ApiError11bad_requestReECsi3Z6uToK8f7_20axum_core_extractors
FN:1209,_RINvMsb_NtCs6zS5XWhHsrg_9api_bones5errorNtB6_8ApiError12unauthorizedReECsi3Z6uToK8f7_20axum_core_extractors
FN:1246,_RINvMsb_NtCs6zS5XWhHsrg_9api_bones5errorNtB6_8ApiError9not_foundReECsgbD3mtheRZ9_19axum_error_handling
FN:1251,_RINvMsb_NtCs6zS5XWhHsrg_9api_bones5errorNtB6_8ApiError8conflictReECsdc0ucZ8kxm6_13bulk_envelope
FN:613,_RINvXs1_NtCs6zS5XWhHsrg_9api_bones5errorNtB6_9ErrorCodeNtNtCseAJKguVKcII_10serde_core3ser9Serialize9serializeQINtNtCsdC8qrlXHNsA_10serde_json3ser10SerializerQINtNtCsipk7xt2ATo7_5alloc3vec3VechENtB1N_15PrettyFormatterEECsdc0ucZ8kxm6_13bulk_envelope
FN:992,_RINvNtNtCs6zS5XWhHsrg_9api_bones5error15uuid_urn_option9serializeQINtNtCsdC8qrlXHNsA_10serde_json3ser10SerializerQINtNtCsipk7xt2ATo7_5alloc3vec3VechENtB15_15PrettyFormatterEECsdc0ucZ8kxm6_13bulk_envelope
FN:992,_RINvNtNtCs6zS5XWhHsrg_9api_bones5error15uuid_urn_option9serializeQINtNtCsdC8qrlXHNsA_10serde_json3ser10SerializerQINtNtCsipk7xt2ATo7_5alloc3vec3VechENtB15_15PrettyFormatterEECsiBlXQkauzCX_15bulk_operations
FN:1199,_RINvMsb_NtCs6zS5XWhHsrg_9api_bones5errorNtB6_8ApiError11bad_requestReECsiBlXQkauzCX_15bulk_operations
FN:613,_RINvXs1_NtCs6zS5XWhHsrg_9api_bones5errorNtB6_9ErrorCodeNtNtCseAJKguVKcII_10serde_core3ser9Serialize9serializeQINtNtCsdC8qrlXHNsA_10serde_json3ser10SerializerQINtNtCsipk7xt2ATo7_5alloc3vec3VechENtB1N_15PrettyFormatterEECsiBlXQkauzCX_15bulk_operations
FN:1199,_RINvMsb_NtCs6zS5XWhHsrg_9api_bones5errorNtB6_8ApiError11bad_requestReECsdyW5kjFx6S2_18error_construction
FN:1209,_RINvMsb_NtCs6zS5XWhHsrg_9api_bones5errorNtB6_8ApiError12unauthorizedReECsdyW5kjFx6S2_18error_construction
FN:1204,_RINvMsb_NtCs6zS5XWhHsrg_9api_bones5errorNtB6_8ApiError17validation_failedReECsdyW5kjFx6S2_18error_construction
FN:1251,_RINvMsb_NtCs6zS5XWhHsrg_9api_bones5errorNtB6_8ApiError8conflictReECsdyW5kjFx6S2_18error_construction
FN:1321,_RINvMsb_NtCs6zS5XWhHsrg_9api_bones5errorNtB6_8ApiError8internalReECsdyW5kjFx6S2_18error_construction
FN:1226,_RINvMsb_NtCs6zS5XWhHsrg_9api_bones5errorNtB6_8ApiError9forbiddenReECsdyW5kjFx6S2_18error_construction
FN:1246,_RINvMsb_NtCs6zS5XWhHsrg_9api_bones5errorNtB6_8ApiError9not_foundReECsdyW5kjFx6S2_18error_construction
FN:1410,_RINvMsd_NtCs6zS5XWhHsrg_9api_bones5errorINtB6_15ApiErrorBuilderNtB6_9ErrorCodeuE6detailReECsdyW5kjFx6S2_18error_construction
FN:613,_RINvXs1_NtCs6zS5XWhHsrg_9api_bones5errorNtB6_9ErrorCodeNtNtCseAJKguVKcII_10serde_core3ser9Serialize9serializeQINtNtCsdC8qrlXHNsA_10serde_json3ser10SerializerQINtNtCsipk7xt2ATo7_5alloc3vec3VechENtB1N_15PrettyFormatterEECsdyW5kjFx6S2_18error_construction
FN:1395,_RNvMsc_NtCs6zS5XWhHsrg_9api_bones5errorINtB5_15ApiErrorBuilderuuE4codeCsdyW5kjFx6S2_18error_construction
FN:992,_RINvNtNtCs6zS5XWhHsrg_9api_bones5error15uuid_urn_option9serializeQINtNtCsdC8qrlXHNsA_10serde_json3ser10SerializerQINtNtCsipk7xt2ATo7_5alloc3vec3VechENtB15_15PrettyFormatterEECsdyW5kjFx6S2_18error_construction
FN:1199,_RINvMsb_NtCs6zS5XWhHsrg_9api_bones5errorNtB6_8ApiError11bad_requestReECsjzRbuBOdLPm_14error_handling
FN:1204,_RINvMsb_NtCs6zS5XWhHsrg_9api_bones5errorNtB6_8ApiError17validation_failedReECsjzRbuBOdLPm_14error_handling
FN:1321,_RINvMsb_NtCs6zS5XWhHsrg_9api_bones5errorNtB6_8ApiError8internalReECsjzRbuBOdLPm_14error_handling
FN:1246,_RINvMsb_NtCs6zS5XWhHsrg_9api_bones5errorNtB6_8ApiError9not_foundReECsjzRbuBOdLPm_14error_handling
FN:1410,_RINvMsd_NtCs6zS5XWhHsrg_9api_bones5errorINtB6_15ApiErrorBuilderNtB6_9ErrorCodeuE6detailReECsjzRbuBOdLPm_14error_handling
FN:613,_RINvXs1_NtCs6zS5XWhHsrg_9api_bones5errorNtB6_9ErrorCodeNtNtCseAJKguVKcII_10serde_core3ser9Serialize9serializeQINtNtCsdC8qrlXHNsA_10serde_json3ser10SerializerQINtNtCsipk7xt2ATo7_5alloc3vec3VechENtB1N_15PrettyFormatterEECsjzRbuBOdLPm_14error_handling
FN:1395,_RNvMsc_NtCs6zS5XWhHsrg_9api_bones5errorINtB5_15ApiErrorBuilderuuE4codeCsjzRbuBOdLPm_14error_handling
FN:992,_RINvNtNtCs6zS5XWhHsrg_9api_bones5error15uuid_urn_option9serializeQINtNtCsdC8qrlXHNsA_10serde_json3ser10SerializerQINtNtCsipk7xt2ATo7_5alloc3vec3VechENtB15_15PrettyFormatterEECsjzRbuBOdLPm_14error_handling
FN:1246,_RINvMsb_NtCs6zS5XWhHsrg_9api_bones5errorNtB6_8ApiError9not_foundReECsbp65QDE8FgY_12problem_json
FN:2776,_RINvMsj_NtCs6zS5XWhHsrg_9api_bones5errorNtB6_11ProblemJson13with_instanceReECsbp65QDE8FgY_12problem_json
FN:2748,_RINvMsj_NtCs6zS5XWhHsrg_9api_bones5errorNtB6_11ProblemJson3newReBY_BY_ECsbp65QDE8FgY_12problem_json
FN:2792,_RINvMsj_NtCs6zS5XWhHsrg_9api_bones5errorNtB6_11ProblemJson6extendReB11_ECsbp65QDE8FgY_12problem_json
FN:1209,_RINvMsb_NtCs6zS5XWhHsrg_9api_bones5errorNtB6_8ApiError12unauthorizedReECskrVjZgCeeVl_12problem_json
FN:1246,_RINvMsb_NtCs6zS5XWhHsrg_9api_bones5errorNtB6_8ApiError9not_foundReECskrVjZgCeeVl_12problem_json
FNDA:1,_RNvNtNtCs1ufPfM0GhR0_9api_bones5error18problem_json_testss_20extend_inserts_entry
FNDA:1,_RNvNtNtCs1ufPfM0GhR0_9api_bones5error18problem_json_testss_26instance_omitted_when_none
FNDA:1,_RNvNtNtCs1ufPfM0GhR0_9api_bones5error18problem_json_testss_26serializes_extensions_flat
FNDA:1,_RNvNtNtCs1ufPfM0GhR0_9api_bones5error18problem_json_testss_27with_instance_sets_instance
FNDA:1,_RNvNtNtCs1ufPfM0GhR0_9api_bones5error18problem_json_testss_35from_api_error_maps_standard_fields
FNDA:1,_RNvNtNtCs1ufPfM0GhR0_9api_bones5error18problem_json_testss_36new_sets_fields_and_empty_extensions
FNDA:1,_RNvNtNtCs1ufPfM0GhR0_9api_bones5error18problem_json_testss_38api_error_rate_limit_omitted_when_none
FNDA:1,_RNvNtNtCs1ufPfM0GhR0_9api_bones5error18problem_json_testss_38api_error_rate_limit_serializes_inline
FNDA:1,_RNvNtNtCs1ufPfM0GhR0_9api_bones5error18problem_json_testss_42from_api_error_maps_request_id_to_instance
FNDA:1,_RNvNtNtCs1ufPfM0GhR0_9api_bones5error18problem_json_testss_43from_api_error_maps_rate_limit_to_extension
FNDA:1,_RNvNtNtCs1ufPfM0GhR0_9api_bones5error18problem_json_testss_50from_api_error_maps_validation_errors_to_extension
FNDA:0,_RNCNvXsi_NtCs1ufPfM0GhR0_9api_bones5errorNtB7_8ApiErrorNtNtNtCsdzzFRNBoJB7_8proptest9arbitrary6traits9Arbitrary14arbitrary_with0B9_
FNDA:0,_RNvXsi_NtCs1ufPfM0GhR0_9api_bones5errorNtB5_8ApiErrorNtNtNtCsdzzFRNBoJB7_8proptest9arbitrary6traits9Arbitrary14arbitrary_with
FNDA:1,_RNvNtNtCs1ufPfM0GhR0_9api_bones5error10axum_testss_18into_response_body
FNDA:1,_RNvNtNtCs1ufPfM0GhR0_9api_bones5error10axum_testss_22error_code_schema_name
FNDA:1,_RNvNtNtCs1ufPfM0GhR0_9api_bones5error10axum_testss_32error_code_schema_is_string_type
FNDA:1,_RNvNtNtCs1ufPfM0GhR0_9api_bones5error10axum_testss_32rate_limited_with_no_retry_after
FNDA:1,_RNvNtNtCs1ufPfM0GhR0_9api_bones5error10axum_testss_37into_response_status_and_content_type
FNDA:1,_RNvNtNtCs1ufPfM0GhR0_9api_bones5error10axum_testss_39problem_json_instance_omitted_when_none
FNDA:1,_RNvNtNtCs1ufPfM0GhR0_9api_bones5error10axum_testss_46problem_json_into_response_body_with_extension
FNDA:1,_RNvNtNtCs1ufPfM0GhR0_9api_bones5error10axum_testss_50problem_json_into_response_status_and_content_type
FNDA:63,_RNvMNtCs1ufPfM0GhR0_9api_bones5errorNtB2_13ErrorTypeMode6render
FNDA:153,_RNvMs_NtCs1ufPfM0GhR0_9api_bones5errorNtB4_9ErrorCode11status_code
FNDA:46,_RNvMs_NtCs1ufPfM0GhR0_9api_bones5errorNtB4_9ErrorCode13from_type_uri
FNDA:61,_RNvMs_NtCs1ufPfM0GhR0_9api_bones5errorNtB4_9ErrorCode3urn
FNDA:132,_RNvMs_NtCs1ufPfM0GhR0_9api_bones5errorNtB4_9ErrorCode5title
FNDA:88,_RNvMs_NtCs1ufPfM0GhR0_9api_bones5errorNtB4_9ErrorCode8urn_slug
FNDA:13,_RNvMsb_NtCs1ufPfM0GhR0_9api_bones5errorNtB5_8ApiError11status_code
FNDA:8,_RNvMsb_NtCs1ufPfM0GhR0_9api_bones5errorNtB5_8ApiError11with_causes
FNDA:9,_RNvMsb_NtCs1ufPfM0GhR0_9api_bones5errorNtB5_8ApiError11with_errors
FNDA:3,_RNvMsb_NtCs1ufPfM0GhR0_9api_bones5errorNtB5_8ApiError12rate_limited
FNDA:1,_RNvMsb_NtCs1ufPfM0GhR0_9api_bones5errorNtB5_8ApiError13token_expired
FNDA:2,_RNvMsb_NtCs1ufPfM0GhR0_9api_bones5errorNtB5_8ApiError15is_client_error
FNDA:2,_RNvMsb_NtCs1ufPfM0GhR0_9api_bones5errorNtB5_8ApiError15is_server_error
FNDA:3,_RNvMsb_NtCs1ufPfM0GhR0_9api_bones5errorNtB5_8ApiError15with_rate_limit
FNDA:3,_RNvMsb_NtCs1ufPfM0GhR0_9api_bones5errorNtB5_8ApiError15with_request_id
FNDA:2,_RNvMsb_NtCs1ufPfM0GhR0_9api_bones5errorNtB5_8ApiError17rate_limited_with
FNDA:1,_RNvMsb_NtCs1ufPfM0GhR0_9api_bones5errorNtB5_8ApiError19invalid_credentials
FNDA:5,_RNvMsb_NtCs1ufPfM0GhR0_9api_bones5errorNtB5_8ApiError19with_request_id_opt
FNDA:5,_RNvMsb_NtCs1ufPfM0GhR0_9api_bones5errorNtB5_8ApiError7builder
FNDA:5,_RNvMsf_NtCs1ufPfM0GhR0_9api_bones5errorINtB5_15ApiErrorBuilderNtB5_9ErrorCodeNtNtCsipk7xt2ATo7_5alloc6string6StringE5build
FNDA:4,_RNvNtCs1ufPfM0GhR0_9api_bones5error13urn_namespace
FNDA:115,_RNvNtCs1ufPfM0GhR0_9api_bones5error15error_type_mode
FNDA:2,_RNvNtCs1ufPfM0GhR0_9api_bones5error19set_error_type_mode
FNDA:60,_RNvNtCs1ufPfM0GhR0_9api_bones5error21reset_error_type_mode
FNDA:33,_RNvNtCs1ufPfM0GhR0_9api_bones5error23resolve_error_type_mode
FNDA:2,_RNvXNtNtCs1ufPfM0GhR0_9api_bones5error9axum_implNtB4_8ApiErrorNtNtNtCsgRxEIuGfDXj_9axum_core8response13into_response12IntoResponse13into_response
FNDA:1,_RNvXs0_NtCs1ufPfM0GhR0_9api_bones5errorNtB5_9ErrorCodeNtNtCsbUtogaBoXXO_4core3fmt7Display3fmt
FNDA:1,_RNvXs3_NtCs1ufPfM0GhR0_9api_bones5errorNtB5_9ErrorCodeNtCs4VEtZxq5W3B_6utoipa13PartialSchema6schema
FNDA:1,_RNvXs4_NtCs1ufPfM0GhR0_9api_bones5errorNtB5_9ErrorCodeNtCs4VEtZxq5W3B_6utoipa8ToSchema4name
FNDA:34,_RNvXs5_NtCs1ufPfM0GhR0_9api_bones5errorNtB5_9ErrorCodeINtNtCsbUtogaBoXXO_4core7convert7TryFromtE8try_from
FNDA:6,_RNvXs6_NtCs1ufPfM0GhR0_9api_bones5errorNtB5_9ErrorCodeINtNtCsbUtogaBoXXO_4core7convert7TryFromNtNtCsj901y1vRFmJ_4http6status10StatusCodeE8try_from
FNDA:2,_RNvXs7_NtCs1ufPfM0GhR0_9api_bones5errorNtB5_15ValidationErrorNtNtCsbUtogaBoXXO_4core3fmt7Display3fmt
FNDA:3,_RNvXs_NtNtCs1ufPfM0GhR0_9api_bones5error9axum_implNtB6_11ProblemJsonNtNtNtCsgRxEIuGfDXj_9axum_core8response13into_response12IntoResponse13into_response
FNDA:4,_RNvXsa_NtCs1ufPfM0GhR0_9api_bones5errorNtB5_8ApiErrorNtNtCsbUtogaBoXXO_4core3cmp9PartialEq2eq
FNDA:1,_RNvXsg_NtCs1ufPfM0GhR0_9api_bones5errorNtB5_8ApiErrorNtNtCsbUtogaBoXXO_4core3fmt7Display3fmt
FNDA:5,_RNvXsh_NtCs1ufPfM0GhR0_9api_bones5errorNtB5_8ApiErrorNtNtCsbUtogaBoXXO_4core5error5Error6source
FNDA:7,_RNvXsk_NtCs1ufPfM0GhR0_9api_bones5errorNtB5_11ProblemJsonINtNtCsbUtogaBoXXO_4core7convert4FromNtB5_8ApiErrorE4from
FNDA:0,_RINvNtNtCs1ufPfM0GhR0_9api_bones5error15uuid_urn_option11deserializeINtNtNtNtCsk3sbdBdDBYJ_5serde7private2de7content19ContentDeserializerNtNtCsdC8qrlXHNsA_10serde_json5error5ErrorEEB6_
FNDA:4,_RINvNtNtCs1ufPfM0GhR0_9api_bones5error15uuid_urn_option11deserializeNtNtCsdC8qrlXHNsA_10serde_json5value5ValueEB6_
FNDA:1,_RINvNtNtCs1ufPfM0GhR0_9api_bones5error15uuid_urn_option9serializeNtNtNtCsdC8qrlXHNsA_10serde_json5value3ser10SerializerEB6_
FNDA:1,_RINvNtNtCs1ufPfM0GhR0_9api_bones5error15uuid_urn_option9serializeQINtNtCsdC8qrlXHNsA_10serde_json3ser10SerializerQINtNtCsipk7xt2ATo7_5alloc3vec3VechEEEB6_
FNDA:0,_RNCINvNtNtCs1ufPfM0GhR0_9api_bones5error15uuid_urn_option11deserializeINtNtNtNtCsk3sbdBdDBYJ_5serde7private2de7content19ContentDeserializerNtNtCsdC8qrlXHNsA_10serde_json5error5ErrorEE0B8_
FNDA:1,_RNCINvNtNtCs1ufPfM0GhR0_9api_bones5error15uuid_urn_option11deserializeNtNtCsdC8qrlXHNsA_10serde_json5value5ValueE0B8_
FNDA:29,_RNvNtNtCs1ufPfM0GhR0_9api_bones5error5tests19lock_and_reset_mode
FNDA:1,_RNvNtNtCs1ufPfM0GhR0_9api_bones5error5testss_11wire_format
FNDA:1,_RNvNtNtCs1ufPfM0GhR0_9api_bones5error5testss_11with_errors
FNDA:1,_RNvNtNtCs1ufPfM0GhR0_9api_bones5error5testss_12status_codes
FNDA:1,_RNvNtNtCs1ufPfM0GhR0_9api_bones5error5testss_13builder_basic
FNDA:1,_RNvNtNtCs1ufPfM0GhR0_9api_bones5error5testss_14display_format
FNDA:1,_RNvNtNtCs1ufPfM0GhR0_9api_bones5error5testss_14error_code_urn
FNDA:1,_RNvNtNtCs1ufPfM0GhR0_9api_bones5error5testss_15title_populated
FNDA:1,_RNvNtNtCs1ufPfM0GhR0_9api_bones5error5testss_15with_request_id
FNDA:1,_RNvNtNtCs1ufPfM0GhR0_9api_bones5error5testss_16client_vs_server
FNDA:1,_RNvNtNtCs1ufPfM0GhR0_9api_bones5error5testss_18snapshot_not_found
FNDA:1,_RNvNtNtCs1ufPfM0GhR0_9api_bones5error5testss_19builder_with_causes
FNDA:1,_RNvNtNtCs1ufPfM0GhR0_9api_bones5error5testss_21with_causes_roundtrip
FNDA:1,_RNvNtNtCs1ufPfM0GhR0_9api_bones5error5testss_23http_error_blanket_from
FNDA:1,_RNvNtNtCs1ufPfM0GhR0_9api_bones5error5testss_23wire_format_with_errors
FNDA:1,_RNvNtNtCs1ufPfM0GhR0_9api_bones5error5testss_24with_extension_roundtrip
FNDA:1,_RNvNtNtCs1ufPfM0GhR0_9api_bones5error5testss_25api_error_schema_is_valid
FNDA:1,_RNvNtNtCs1ufPfM0GhR0_9api_bones5error5testss_25api_error_source_downcast
FNDA:1,_RNvNtNtCs1ufPfM0GhR0_9api_bones5error5testss_25causes_omitted_when_empty
FNDA:1,_RNvNtNtCs1ufPfM0GhR0_9api_bones5error5testss_26builder_detail_before_code
FNDA:1,_RNvNtNtCs1ufPfM0GhR0_9api_bones5error5testss_26error_code_schema_is_valid
FNDA:1,_RNvNtNtCs1ufPfM0GhR0_9api_bones5error5testss_26error_code_serde_roundtrip
FNDA:1,_RNvNtNtCs1ufPfM0GhR0_9api_bones5error5testss_26error_type_mode_render_url
FNDA:1,_RNvNtNtCs1ufPfM0GhR0_9api_bones5error5testss_26extension_roundtrip_ser_de
FNDA:1,_RNvNtNtCs1ufPfM0GhR0_9api_bones5error5testss_26status_in_valid_http_range
FNDA:1,_RNvNtNtCs1ufPfM0GhR0_9api_bones5error5testss_28builder_equivalence_with_new
FNDA:1,_RNvNtNtCs1ufPfM0GhR0_9api_bones5error5testss_28from_type_uri_url_mode_paths
FNDA:1,_RNvNtNtCs1ufPfM0GhR0_9api_bones5error5testss_29validation_error_is_std_error
FNDA:1,_RNvNtNtCs1ufPfM0GhR0_9api_bones5error5testss_30builder_chaining_all_optionals
FNDA:1,_RNvNtNtCs1ufPfM0GhR0_9api_bones5error5testss_30causes_serialized_as_extension
FNDA:1,_RNvNtNtCs1ufPfM0GhR0_9api_bones5error5testss_32api_error_source_none_by_default
FNDA:1,_RNvNtNtCs1ufPfM0GhR0_9api_bones5error5testss_32error_code_from_type_uri_unknown
FNDA:1,_RNvNtNtCs1ufPfM0GhR0_9api_bones5error5testss_32validation_error_schema_is_valid
FNDA:1,_RNvNtNtCs1ufPfM0GhR0_9api_bones5error5testss_32wire_format_instance_is_urn_uuid
FNDA:1,_RNvNtNtCs1ufPfM0GhR0_9api_bones5error5testss_33api_error_source_chain_two_levels
FNDA:1,_RNvNtNtCs1ufPfM0GhR0_9api_bones5error5testss_33error_code_try_from_u16_roundtrip
FNDA:1,_RNvNtNtCs1ufPfM0GhR0_9api_bones5error5testss_34api_error_with_source_is_cloneable
FNDA:1,_RNvNtNtCs1ufPfM0GhR0_9api_bones5error5testss_34error_code_from_type_uri_roundtrip
FNDA:1,_RNvNtNtCs1ufPfM0GhR0_9api_bones5error5testss_34extension_flattened_in_wire_format
FNDA:1,_RNvNtNtCs1ufPfM0GhR0_9api_bones5error5testss_34validation_error_display_with_rule
FNDA:1,_RNvNtNtCs1ufPfM0GhR0_9api_bones5error5testss_35api_error_partial_eq_ignores_source
FNDA:1,_RNvNtNtCs1ufPfM0GhR0_9api_bones5error5testss_36error_type_mode_url_from_runtime_env
FNDA:1,_RNvNtNtCs1ufPfM0GhR0_9api_bones5error5testss_36error_type_mode_urn_from_runtime_env
FNDA:1,_RNvNtNtCs1ufPfM0GhR0_9api_bones5error5testss_36insufficient_permissions_constructor
FNDA:1,_RNvNtNtCs1ufPfM0GhR0_9api_bones5error5testss_37validation_error_display_without_rule
FNDA:1,_RNvNtNtCs1ufPfM0GhR0_9api_bones5error5testss_38causes_propagated_through_problem_json
FNDA:1,_RNvNtNtCs1ufPfM0GhR0_9api_bones5error5testss_38snapshot_validation_failed_with_errors
FNDA:1,_RNvNtNtCs1ufPfM0GhR0_9api_bones5error5testss_39api_error_with_source_chain_is_walkable
FNDA:1,_RNvNtNtCs1ufPfM0GhR0_9api_bones5error5testss_40urn_namespace_urn_mode_returns_namespace
FNDA:1,_RNvNtNtCs1ufPfM0GhR0_9api_bones5error5testss_41all_error_code_variants_title_slug_status
FNDA:1,_RNvNtNtCs1ufPfM0GhR0_9api_bones5error5testss_41error_code_try_from_status_code_roundtrip
FNDA:1,_RNvNtNtCs1ufPfM0GhR0_9api_bones5error5testss_41extension_propagated_through_problem_json
FNDA:1,_RNvNtNtCs1ufPfM0GhR0_9api_bones5error5testss_42error_code_deserialize_non_string_is_error
FNDA:1,_RNvNtNtCs1ufPfM0GhR0_9api_bones5error5testss_42uuid_urn_option_deserialize_valid_urn_uuid
FNDA:1,_RNvNtNtCs1ufPfM0GhR0_9api_bones5error5testss_43error_code_deserialize_unknown_uri_is_error
FNDA:1,_RNvNtNtCs1ufPfM0GhR0_9api_bones5error5testss_43uuid_urn_option_deserialize_null_gives_none
FNDA:1,_RNvNtNtCs1ufPfM0GhR0_9api_bones5error5testss_44uuid_urn_option_serialize_none_produces_null
FNDA:1,_RNvNtNtCs1ufPfM0GhR0_9api_bones5error5testss_45error_code_try_from_u16_non_error_returns_err
FNDA:1,_RNvNtNtCs1ufPfM0GhR0_9api_bones5error5testss_47uuid_urn_option_deserialize_bad_prefix_is_error
FNDA:1,_RNvNtNtCs1ufPfM0GhR0_9api_bones5error5testss_47uuid_urn_option_deserialize_non_string_is_error
FNDA:1,_RNvNtNtCs1ufPfM0GhR0_9api_bones5error5testss_48error_code_try_from_u16_unmapped_4xx_returns_err
FNDA:1,_RNvNtNtCs1ufPfM0GhR0_9api_bones5error5testss_50set_error_type_mode_url_and_urn_namespace_fallback
FNDA:1,_RNvNtNtCs1ufPfM0GhR0_9api_bones5error5testss_53error_code_try_from_status_code_non_error_returns_err
FNDA:1,_RNvXNvNtNtCs1ufPfM0GhR0_9api_bones5error5testss_23http_error_blanket_fromNtB2_8NotFoundNtB6_9HttpError10error_code
FNDA:1,_RNvXNvNtNtCs1ufPfM0GhR0_9api_bones5error5testss_23http_error_blanket_fromNtB2_8NotFoundNtB6_9HttpError11status_code
FNDA:1,_RNvXNvNtNtCs1ufPfM0GhR0_9api_bones5error5testss_23http_error_blanket_fromNtB2_8NotFoundNtB6_9HttpError6detail
FNDA:1,_RNvXNvNtNtCs1ufPfM0GhR0_9api_bones5error5testss_25api_error_source_downcastNtB2_5TypedNtNtCsbUtogaBoXXO_4core3fmt7Display3fmt
FNDA:1,_RNvXNvNtNtCs1ufPfM0GhR0_9api_bones5error5testss_33api_error_source_chain_two_levelsNtB2_3MidNtNtCsbUtogaBoXXO_4core3fmt7Display3fmt
FNDA:1,_RNvXNvNtNtCs1ufPfM0GhR0_9api_bones5error5testss_34api_error_with_source_is_cloneableNtB2_5CauseNtNtCsbUtogaBoXXO_4core3fmt7Display3fmt
FNDA:1,_RNvXNvNtNtCs1ufPfM0GhR0_9api_bones5error5testss_35api_error_partial_eq_ignores_sourceNtB2_5CauseNtNtCsbUtogaBoXXO_4core3fmt7Display3fmt
FNDA:1,_RNvXNvNtNtCs1ufPfM0GhR0_9api_bones5error5testss_39api_error_with_source_chain_is_walkableNtB2_9RootCauseNtNtCsbUtogaBoXXO_4core3fmt7Display3fmt
FNDA:1,_RNvXs_NvNtNtCs1ufPfM0GhR0_9api_bones5error5testss_33api_error_source_chain_two_levelsNtB4_3MidNtNtCsbUtogaBoXXO_4core5error5Error6source
FNDA:1,_RNCNvNtNtCs1ufPfM0GhR0_9api_bones5error10axum_testss_18into_response_body0B7_
FNDA:1,_RNCNvNtNtCs1ufPfM0GhR0_9api_bones5error10axum_testss_37into_response_status_and_content_type0B7_
FNDA:1,_RNCNvNtNtCs1ufPfM0GhR0_9api_bones5error10axum_testss_39problem_json_instance_omitted_when_none0B7_
FNDA:1,_RNCNvNtNtCs1ufPfM0GhR0_9api_bones5error10axum_testss_46problem_json_into_response_body_with_extension0B7_
FNDA:1,_RNCNvNtNtCs1ufPfM0GhR0_9api_bones5error10axum_testss_50problem_json_into_response_status_and_content_type0B7_
FNDA:29,_RNvXNtNtCs1ufPfM0GhR0_9api_bones5error5testsNtB2_9ModeGuardNtNtNtCsbUtogaBoXXO_4core3ops4drop4Drop4drop
FNDA:16,_RINvMsb_NtCs1ufPfM0GhR0_9api_bones5errorNtB6_8ApiError11bad_requestNtNtCsipk7xt2ATo7_5alloc6string6StringEB8_
FNDA:14,_RINvMsb_NtCs1ufPfM0GhR0_9api_bones5errorNtB6_8ApiError11bad_requestReEB8_
FNDA:3,_RINvMsb_NtCs1ufPfM0GhR0_9api_bones5errorNtB6_8ApiError11unavailableReEB8_
FNDA:1,_RINvMsb_NtCs1ufPfM0GhR0_9api_bones5errorNtB6_8ApiError11with_sourceNtNvNtB6_5testss_25api_error_source_downcast5TypedEB8_
FNDA:1,_RINvMsb_NtCs1ufPfM0GhR0_9api_bones5errorNtB6_8ApiError11with_sourceNtNvNtB6_5testss_33api_error_source_chain_two_levels3MidEB8_
FNDA:1,_RINvMsb_NtCs1ufPfM0GhR0_9api_bones5errorNtB6_8ApiError11with_sourceNtNvNtB6_5testss_34api_error_with_source_is_cloneable5CauseEB8_
FNDA:1,_RINvMsb_NtCs1ufPfM0GhR0_9api_bones5errorNtB6_8ApiError11with_sourceNtNvNtB6_5testss_35api_error_partial_eq_ignores_source5CauseEB8_
FNDA:1,_RINvMsb_NtCs1ufPfM0GhR0_9api_bones5errorNtB6_8ApiError11with_sourceNtNvNtB6_5testss_39api_error_with_source_chain_is_walkable9RootCauseEB8_
FNDA:1,_RINvMsb_NtCs1ufPfM0GhR0_9api_bones5errorNtB6_8ApiError12unauthorizedNtNtCsipk7xt2ATo7_5alloc6string6StringEB8_
FNDA:6,_RINvMsb_NtCs1ufPfM0GhR0_9api_bones5errorNtB6_8ApiError12unauthorizedReEB8_
FNDA:2,_RINvMsb_NtCs1ufPfM0GhR0_9api_bones5errorNtB6_8ApiError13unprocessableReEB8_
FNDA:1,_RINvMsb_NtCs1ufPfM0GhR0_9api_bones5errorNtB6_8ApiError14already_existsReEB8_
FNDA:3,_RINvMsb_NtCs1ufPfM0GhR0_9api_bones5errorNtB6_8ApiError14with_extensionReB16_EB8_
FNDA:1,_RINvMsb_NtCs1ufPfM0GhR0_9api_bones5errorNtB6_8ApiError14with_extensionReyEB8_
FNDA:3,_RINvMsb_NtCs1ufPfM0GhR0_9api_bones5errorNtB6_8ApiError17validation_failedReEB8_
FNDA:1,_RINvMsb_NtCs1ufPfM0GhR0_9api_bones5errorNtB6_8ApiError24insufficient_permissionsReEB8_
FNDA:28,_RINvMsb_NtCs1ufPfM0GhR0_9api_bones5errorNtB6_8ApiError3newNtNtCsipk7xt2ATo7_5alloc6string6StringEB8_
FNDA:77,_RINvMsb_NtCs1ufPfM0GhR0_9api_bones5errorNtB6_8ApiError3newReEB8_
FNDA:2,_RINvMsb_NtCs1ufPfM0GhR0_9api_bones5errorNtB6_8ApiError8conflictReEB8_
FNDA:13,_RINvMsb_NtCs1ufPfM0GhR0_9api_bones5errorNtB6_8ApiError8internalReEB8_
FNDA:3,_RINvMsb_NtCs1ufPfM0GhR0_9api_bones5errorNtB6_8ApiError9forbiddenReEB8_
FNDA:22,_RINvMsb_NtCs1ufPfM0GhR0_9api_bones5errorNtB6_8ApiError9not_foundReEB8_
FNDA:4,_RINvMsd_NtCs1ufPfM0GhR0_9api_bones5errorINtB6_15ApiErrorBuilderNtB6_9ErrorCodeuE6detailReEB8_
FNDA:1,_RINvMsd_NtCs1ufPfM0GhR0_9api_bones5errorINtB6_15ApiErrorBuilderuuE6detailReEB8_
FNDA:1,_RINvMsj_NtCs1ufPfM0GhR0_9api_bones5errorNtB6_11ProblemJson13with_instanceReEB8_
FNDA:7,_RINvMsj_NtCs1ufPfM0GhR0_9api_bones5errorNtB6_11ProblemJson3newNtNtCsipk7xt2ATo7_5alloc6string6StringBY_BY_EB8_
FNDA:8,_RINvMsj_NtCs1ufPfM0GhR0_9api_bones5errorNtB6_11ProblemJson3newReBY_BY_EB8_
FNDA:3,_RINvMsj_NtCs1ufPfM0GhR0_9api_bones5errorNtB6_11ProblemJson6extendReB11_EB8_
FNDA:15,_RINvXs1_NtCs1ufPfM0GhR0_9api_bones5errorNtB6_9ErrorCodeNtNtCseAJKguVKcII_10serde_core3ser9Serialize9serializeNtNtNtCsdC8qrlXHNsA_10serde_json5value3ser10SerializerEB8_
FNDA:2,_RINvXs1_NtCs1ufPfM0GhR0_9api_bones5errorNtB6_9ErrorCodeNtNtCseAJKguVKcII_10serde_core3ser9Serialize9serializeQINtNtCsdC8qrlXHNsA_10serde_json3ser10SerializerQINtNtCsipk7xt2ATo7_5alloc3vec3VechEEEB8_
FNDA:2,_RINvXs2_NtCs1ufPfM0GhR0_9api_bones5errorNtB6_9ErrorCodeNtNtCseAJKguVKcII_10serde_core2de11Deserialize11deserializeINtNtNtNtCsk3sbdBdDBYJ_5serde7private2de7content19ContentDeserializerNtNtCsdC8qrlXHNsA_10serde_json5error5ErrorEEB8_
FNDA:0,_RINvXs2_NtCs1ufPfM0GhR0_9api_bones5errorNtB6_9ErrorCodeNtNtCseAJKguVKcII_10serde_core2de11Deserialize11deserializeINtNvNtNtCsk3sbdBdDBYJ_5serde7private2de13missing_field24MissingFieldDeserializerNtNtCsdC8qrlXHNsA_10serde_json5error5ErrorEEB8_
FNDA:6,_RINvXs2_NtCs1ufPfM0GhR0_9api_bones5errorNtB6_9ErrorCodeNtNtCseAJKguVKcII_10serde_core2de11Deserialize11deserializeNtNtCsdC8qrlXHNsA_10serde_json5value5ValueEB8_
FNDA:0,_RNCINvXs2_NtCs1ufPfM0GhR0_9api_bones5errorNtB8_9ErrorCodeNtNtCseAJKguVKcII_10serde_core2de11Deserialize11deserializeINtNtNtNtCsk3sbdBdDBYJ_5serde7private2de7content19ContentDeserializerNtNtCsdC8qrlXHNsA_10serde_json5error5ErrorEE0Ba_
FNDA:0,_RNCINvXs2_NtCs1ufPfM0GhR0_9api_bones5errorNtB8_9ErrorCodeNtNtCseAJKguVKcII_10serde_core2de11Deserialize11deserializeINtNvNtNtCsk3sbdBdDBYJ_5serde7private2de13missing_field24MissingFieldDeserializerNtNtCsdC8qrlXHNsA_10serde_json5error5ErrorEE0Ba_
FNDA:1,_RNCINvXs2_NtCs1ufPfM0GhR0_9api_bones5errorNtB8_9ErrorCodeNtNtCseAJKguVKcII_10serde_core2de11Deserialize11deserializeNtNtCsdC8qrlXHNsA_10serde_json5value5ValueE0Ba_
FNDA:2,_RNCNvMs_NtCs1ufPfM0GhR0_9api_bones5errorNtB6_9ErrorCode13from_type_uri0B8_
FNDA:4,_RNCNvXsh_NtCs1ufPfM0GhR0_9api_bones5errorNtB7_8ApiErrorNtNtCsbUtogaBoXXO_4core5error5Error6source0B9_
FNDA:1,_RNCNvXsk_NtCs1ufPfM0GhR0_9api_bones5errorNtB7_11ProblemJsonINtNtCsbUtogaBoXXO_4core7convert4FromNtB7_8ApiErrorE4from0B9_
FNDA:1,_RNvMsc_NtCs1ufPfM0GhR0_9api_bones5errorINtB5_15ApiErrorBuilderuNtNtCsipk7xt2ATo7_5alloc6string6StringE4codeB7_
FNDA:4,_RNvMsc_NtCs1ufPfM0GhR0_9api_bones5errorINtB5_15ApiErrorBuilderuuE4codeB7_
FNDA:1,_RNvMse_NtCs1ufPfM0GhR0_9api_bones5errorINtB5_15ApiErrorBuilderNtB5_9ErrorCodeNtNtCsipk7xt2ATo7_5alloc6string6StringE10request_idB7_
FNDA:1,_RNvMse_NtCs1ufPfM0GhR0_9api_bones5errorINtB5_15ApiErrorBuilderNtB5_9ErrorCodeNtNtCsipk7xt2ATo7_5alloc6string6StringE6causesB7_
FNDA:1,_RNvMse_NtCs1ufPfM0GhR0_9api_bones5errorINtB5_15ApiErrorBuilderNtB5_9ErrorCodeNtNtCsipk7xt2ATo7_5alloc6string6StringE6errorsB7_
FNDA:1,_RNvXs9_NtCs1ufPfM0GhR0_9api_bones5errorNtB5_8ApiErrorINtNtCsbUtogaBoXXO_4core7convert4FromNtNvNtB5_5testss_23http_error_blanket_from8NotFoundE4fromB7_
FNDA:0,_RINvMsb_NtCs6zS5XWhHsrg_9api_bones5errorNtB6_8ApiError11unavailablepEB8_
FNDA:0,_RINvMsb_NtCs6zS5XWhHsrg_9api_bones5errorNtB6_8ApiError11with_sourcepEB8_
FNDA:0,_RINvMsb_NtCs6zS5XWhHsrg_9api_bones5errorNtB6_8ApiError13unprocessablepEB8_
FNDA:0,_RINvMsb_NtCs6zS5XWhHsrg_9api_bones5errorNtB6_8ApiError14already_existspEB8_
FNDA:0,_RINvMsb_NtCs6zS5XWhHsrg_9api_bones5errorNtB6_8ApiError14with_extensionppEB8_
FNDA:0,_RINvMsb_NtCs6zS5XWhHsrg_9api_bones5errorNtB6_8ApiError17validation_failedpEB8_
FNDA:0,_RINvMsb_NtCs6zS5XWhHsrg_9api_bones5errorNtB6_8ApiError24insufficient_permissionspEB8_
FNDA:0,_RINvMsb_NtCs6zS5XWhHsrg_9api_bones5errorNtB6_8ApiError8conflictpEB8_
FNDA:0,_RINvMsb_NtCs6zS5XWhHsrg_9api_bones5errorNtB6_8ApiError8internalpEB8_
FNDA:0,_RINvMsb_NtCs6zS5XWhHsrg_9api_bones5errorNtB6_8ApiError9forbiddenpEB8_
FNDA:0,_RINvMsb_NtCs6zS5XWhHsrg_9api_bones5errorNtB6_8ApiError9not_foundpEB8_
FNDA:0,_RINvMsd_NtCs6zS5XWhHsrg_9api_bones5errorINtB6_15ApiErrorBuilderpuE6detailpEB8_
FNDA:0,_RINvMsj_NtCs6zS5XWhHsrg_9api_bones5errorNtB6_11ProblemJson13with_instancepEB8_
FNDA:0,_RINvMsj_NtCs6zS5XWhHsrg_9api_bones5errorNtB6_11ProblemJson6extendppEB8_
FNDA:0,_RINvNtNtCs6zS5XWhHsrg_9api_bones5error15uuid_urn_option11deserializepEB6_
FNDA:0,_RINvXs2_NtCs6zS5XWhHsrg_9api_bones5errorNtB6_9ErrorCodeNtNtCseAJKguVKcII_10serde_core2de11Deserialize11deserializepEB8_
FNDA:0,_RNCINvNtNtCs6zS5XWhHsrg_9api_bones5error15uuid_urn_option11deserializepE0B8_
FNDA:0,_RNCINvXs2_NtCs6zS5XWhHsrg_9api_bones5errorNtB8_9ErrorCodeNtNtCseAJKguVKcII_10serde_core2de11Deserialize11deserializepE0Ba_
FNDA:0,_RNvMsc_NtCs6zS5XWhHsrg_9api_bones5errorINtB5_15ApiErrorBuilderupE4codeB7_
FNDA:0,_RNvMse_NtCs6zS5XWhHsrg_9api_bones5errorINtB5_15ApiErrorBuilderppE10request_idB7_
FNDA:0,_RNvMse_NtCs6zS5XWhHsrg_9api_bones5errorINtB5_15ApiErrorBuilderppE6causesB7_
FNDA:0,_RNvMse_NtCs6zS5XWhHsrg_9api_bones5errorINtB5_15ApiErrorBuilderppE6errorsB7_
FNDA:0,_RNvXININtCs6zS5XWhHsrg_9api_bones5errors9_0pENtB5_8ApiErrorINtNtCsbUtogaBoXXO_4core7convert4FrompE4fromB7_
FNDA:51,_RNvMNtCs6zS5XWhHsrg_9api_bones5errorNtB2_13ErrorTypeMode6render
FNDA:27,_RNvMs_NtCs6zS5XWhHsrg_9api_bones5errorNtB4_9ErrorCode11status_code
FNDA:53,_RNvMs_NtCs6zS5XWhHsrg_9api_bones5errorNtB4_9ErrorCode13from_type_uri
FNDA:51,_RNvMs_NtCs6zS5XWhHsrg_9api_bones5errorNtB4_9ErrorCode3urn
FNDA:792,_RNvMs_NtCs6zS5XWhHsrg_9api_bones5errorNtB4_9ErrorCode5title
FNDA:51,_RNvMs_NtCs6zS5XWhHsrg_9api_bones5errorNtB4_9ErrorCode8urn_slug
FNDA:0,_RNvMsb_NtCs6zS5XWhHsrg_9api_bones5errorNtB5_8ApiError11status_code
FNDA:0,_RNvMsb_NtCs6zS5XWhHsrg_9api_bones5errorNtB5_8ApiError11with_causes
FNDA:0,_RNvMsb_NtCs6zS5XWhHsrg_9api_bones5errorNtB5_8ApiError11with_errors
FNDA:0,_RNvMsb_NtCs6zS5XWhHsrg_9api_bones5errorNtB5_8ApiError12rate_limited
FNDA:0,_RNvMsb_NtCs6zS5XWhHsrg_9api_bones5errorNtB5_8ApiError13token_expired
FNDA:0,_RNvMsb_NtCs6zS5XWhHsrg_9api_bones5errorNtB5_8ApiError15is_client_error
FNDA:0,_RNvMsb_NtCs6zS5XWhHsrg_9api_bones5errorNtB5_8ApiError15is_server_error
FNDA:0,_RNvMsb_NtCs6zS5XWhHsrg_9api_bones5errorNtB5_8ApiError15with_rate_limit
FNDA:0,_RNvMsb_NtCs6zS5XWhHsrg_9api_bones5errorNtB5_8ApiError15with_request_id
FNDA:0,_RNvMsb_NtCs6zS5XWhHsrg_9api_bones5errorNtB5_8ApiError17rate_limited_with
FNDA:0,_RNvMsb_NtCs6zS5XWhHsrg_9api_bones5errorNtB5_8ApiError19invalid_credentials
FNDA:0,_RNvMsb_NtCs6zS5XWhHsrg_9api_bones5errorNtB5_8ApiError19with_request_id_opt
FNDA:0,_RNvMsb_NtCs6zS5XWhHsrg_9api_bones5errorNtB5_8ApiError7builder
FNDA:0,_RNvMsf_NtCs6zS5XWhHsrg_9api_bones5errorINtB5_15ApiErrorBuilderNtB5_9ErrorCodeNtNtCsipk7xt2ATo7_5alloc6string6StringE5build
FNDA:0,_RNvNtCs6zS5XWhHsrg_9api_bones5error13urn_namespace
FNDA:104,_RNvNtCs6zS5XWhHsrg_9api_bones5error15error_type_mode
FNDA:0,_RNvNtCs6zS5XWhHsrg_9api_bones5error19set_error_type_mode
FNDA:5,_RNvNtCs6zS5XWhHsrg_9api_bones5error23resolve_error_type_mode
FNDA:0,_RNvXNtNtCs6zS5XWhHsrg_9api_bones5error9axum_implNtB4_8ApiErrorNtNtNtCsgRxEIuGfDXj_9axum_core8response13into_response12IntoResponse13into_response
FNDA:0,_RNvXs0_NtCs6zS5XWhHsrg_9api_bones5errorNtB5_9ErrorCodeNtNtCsbUtogaBoXXO_4core3fmt7Display3fmt
FNDA:0,_RNvXs3_NtCs6zS5XWhHsrg_9api_bones5errorNtB5_9ErrorCodeNtCs4VEtZxq5W3B_6utoipa13PartialSchema6schema
FNDA:0,_RNvXs4_NtCs6zS5XWhHsrg_9api_bones5errorNtB5_9ErrorCodeNtCs4VEtZxq5W3B_6utoipa8ToSchema4name
FNDA:0,_RNvXs5_NtCs6zS5XWhHsrg_9api_bones5errorNtB5_9ErrorCodeINtNtCsbUtogaBoXXO_4core7convert7TryFromtE8try_from
FNDA:0,_RNvXs6_NtCs6zS5XWhHsrg_9api_bones5errorNtB5_9ErrorCodeINtNtCsbUtogaBoXXO_4core7convert7TryFromNtNtCsj901y1vRFmJ_4http6status10StatusCodeE8try_from
FNDA:0,_RNvXs7_NtCs6zS5XWhHsrg_9api_bones5errorNtB5_15ValidationErrorNtNtCsbUtogaBoXXO_4core3fmt7Display3fmt
FNDA:0,_RNvXs_NtNtCs6zS5XWhHsrg_9api_bones5error9axum_implNtB6_11ProblemJsonNtNtNtCsgRxEIuGfDXj_9axum_core8response13into_response12IntoResponse13into_response
FNDA:0,_RNvXsa_NtCs6zS5XWhHsrg_9api_bones5errorNtB5_8ApiErrorNtNtCsbUtogaBoXXO_4core3cmp9PartialEq2eq
FNDA:0,_RNvXsg_NtCs6zS5XWhHsrg_9api_bones5errorNtB5_8ApiErrorNtNtCsbUtogaBoXXO_4core3fmt7Display3fmt
FNDA:0,_RNvXsh_NtCs6zS5XWhHsrg_9api_bones5errorNtB5_8ApiErrorNtNtCsbUtogaBoXXO_4core5error5Error6source
FNDA:1,_RNvXsi_NtCs6zS5XWhHsrg_9api_bones5errorNtB5_8ApiErrorNtNtNtCsdzzFRNBoJB7_8proptest9arbitrary6traits9Arbitrary14arbitrary_with
FNDA:1,_RNvXsk_NtCs6zS5XWhHsrg_9api_bones5errorNtB5_11ProblemJsonINtNtCsbUtogaBoXXO_4core7convert4FromNtB5_8ApiErrorE4from
FNDA:2,_RINvMsb_NtCs6zS5XWhHsrg_9api_bones5errorNtB6_8ApiError11bad_requestNtNtCsipk7xt2ATo7_5alloc6string6StringEB8_
FNDA:0,_RINvMsb_NtCs6zS5XWhHsrg_9api_bones5errorNtB6_8ApiError12unauthorizedNtNtCsipk7xt2ATo7_5alloc6string6StringEB8_
FNDA:24,_RINvMsb_NtCs6zS5XWhHsrg_9api_bones5errorNtB6_8ApiError3newNtNtCsipk7xt2ATo7_5alloc6string6StringEB8_
FNDA:3,_RINvMsb_NtCs6zS5XWhHsrg_9api_bones5errorNtB6_8ApiError3newReEB8_
FNDA:1,_RINvMsj_NtCs6zS5XWhHsrg_9api_bones5errorNtB6_11ProblemJson3newNtNtCsipk7xt2ATo7_5alloc6string6StringBY_BY_EB8_
FNDA:50,_RINvXs1_NtCs6zS5XWhHsrg_9api_bones5errorNtB6_9ErrorCodeNtNtCseAJKguVKcII_10serde_core3ser9Serialize9serializeNtNtNtCsdC8qrlXHNsA_10serde_json5value3ser10SerializerEB8_
FNDA:0,_RINvXs1_NtCs6zS5XWhHsrg_9api_bones5errorNtB6_9ErrorCodeNtNtCseAJKguVKcII_10serde_core3ser9Serialize9serializeQINtNtCsdC8qrlXHNsA_10serde_json3ser10SerializerQINtNtCsipk7xt2ATo7_5alloc3vec3VechEEEB8_
FNDA:0,_RNCNvMs_NtCs6zS5XWhHsrg_9api_bones5errorNtB6_9ErrorCode13from_type_uri0B8_
FNDA:0,_RNCNvXsh_NtCs6zS5XWhHsrg_9api_bones5errorNtB7_8ApiErrorNtNtCsbUtogaBoXXO_4core5error5Error6source0B9_
FNDA:256,_RNCNvXsi_NtCs6zS5XWhHsrg_9api_bones5errorNtB7_8ApiErrorNtNtNtCsdzzFRNBoJB7_8proptest9arbitrary6traits9Arbitrary14arbitrary_with0B9_
FNDA:0,_RNCNvXsk_NtCs6zS5XWhHsrg_9api_bones5errorNtB7_11ProblemJsonINtNtCsbUtogaBoXXO_4core7convert4FromNtB7_8ApiErrorE4from0B9_
FNDA:33,_RINvNtNtCs6zS5XWhHsrg_9api_bones5error15uuid_urn_option9serializeNtNtNtCsdC8qrlXHNsA_10serde_json5value3ser10SerializerEB6_
FNDA:0,_RINvNtNtCs6zS5XWhHsrg_9api_bones5error15uuid_urn_option9serializeQINtNtCsdC8qrlXHNsA_10serde_json3ser10SerializerQINtNtCsipk7xt2ATo7_5alloc3vec3VechEEEB6_
FNDA:1,_RINvMsb_NtCs6zS5XWhHsrg_9api_bones5errorNtB6_8ApiError8internalReECs2jOaoKFfTIb_15api_bones_tower
FNDA:1,_RINvMsb_NtCs6zS5XWhHsrg_9api_bones5errorNtB6_8ApiError9not_foundReECs2jOaoKFfTIb_15api_bones_tower
FNDA:0,_RINvXs2_NtCs6zS5XWhHsrg_9api_bones5errorNtB6_9ErrorCodeNtNtCseAJKguVKcII_10serde_core2de11Deserialize11deserializeINtNvNtNtCsk3sbdBdDBYJ_5serde7private2de13missing_field24MissingFieldDeserializerNtNtCsdC8qrlXHNsA_10serde_json5error5ErrorEECs52cul6wXlX0_10fake_smoke
FNDA:50,_RINvXs2_NtCs6zS5XWhHsrg_9api_bones5errorNtB6_9ErrorCodeNtNtCseAJKguVKcII_10serde_core2de11Deserialize11deserializeNtNtCsdC8qrlXHNsA_10serde_json5value5ValueECs52cul6wXlX0_10fake_smoke
FNDA:0,_RNCINvXs2_NtCs6zS5XWhHsrg_9api_bones5errorNtB8_9ErrorCodeNtNtCseAJKguVKcII_10serde_core2de11Deserialize11deserializeINtNvNtNtCsk3sbdBdDBYJ_5serde7private2de13missing_field24MissingFieldDeserializerNtNtCsdC8qrlXHNsA_10serde_json5error5ErrorEE0Cs52cul6wXlX0_10fake_smoke
FNDA:0,_RNCINvXs2_NtCs6zS5XWhHsrg_9api_bones5errorNtB8_9ErrorCodeNtNtCseAJKguVKcII_10serde_core2de11Deserialize11deserializeNtNtCsdC8qrlXHNsA_10serde_json5value5ValueE0Cs52cul6wXlX0_10fake_smoke
FNDA:33,_RINvNtNtCs6zS5XWhHsrg_9api_bones5error15uuid_urn_option11deserializeNtNtCsdC8qrlXHNsA_10serde_json5value5ValueECs52cul6wXlX0_10fake_smoke
FNDA:0,_RNCINvNtNtCs6zS5XWhHsrg_9api_bones5error15uuid_urn_option11deserializeNtNtCsdC8qrlXHNsA_10serde_json5value5ValueE0Cs52cul6wXlX0_10fake_smoke
FNDA:0,_RINvMsb_NtCs6zS5XWhHsrg_9api_bones5errorNtB6_8ApiError11bad_requestReECsi3Z6uToK8f7_20axum_core_extractors
FNDA:0,_RINvMsb_NtCs6zS5XWhHsrg_9api_bones5errorNtB6_8ApiError12unauthorizedReECsi3Z6uToK8f7_20axum_core_extractors
FNDA:0,_RINvMsb_NtCs6zS5XWhHsrg_9api_bones5errorNtB6_8ApiError9not_foundReECsgbD3mtheRZ9_19axum_error_handling
FNDA:0,_RINvMsb_NtCs6zS5XWhHsrg_9api_bones5errorNtB6_8ApiError8conflictReECsdc0ucZ8kxm6_13bulk_envelope
FNDA:0,_RINvXs1_NtCs6zS5XWhHsrg_9api_bones5errorNtB6_9ErrorCodeNtNtCseAJKguVKcII_10serde_core3ser9Serialize9serializeQINtNtCsdC8qrlXHNsA_10serde_json3ser10SerializerQINtNtCsipk7xt2ATo7_5alloc3vec3VechENtB1N_15PrettyFormatterEECsdc0ucZ8kxm6_13bulk_envelope
FNDA:0,_RINvNtNtCs6zS5XWhHsrg_9api_bones5error15uuid_urn_option9serializeQINtNtCsdC8qrlXHNsA_10serde_json3ser10SerializerQINtNtCsipk7xt2ATo7_5alloc3vec3VechENtB15_15PrettyFormatterEECsdc0ucZ8kxm6_13bulk_envelope
FNDA:0,_RINvNtNtCs6zS5XWhHsrg_9api_bones5error15uuid_urn_option9serializeQINtNtCsdC8qrlXHNsA_10serde_json3ser10SerializerQINtNtCsipk7xt2ATo7_5alloc3vec3VechENtB15_15PrettyFormatterEECsiBlXQkauzCX_15bulk_operations
FNDA:0,_RINvMsb_NtCs6zS5XWhHsrg_9api_bones5errorNtB6_8ApiError11bad_requestReECsiBlXQkauzCX_15bulk_operations
FNDA:0,_RINvXs1_NtCs6zS5XWhHsrg_9api_bones5errorNtB6_9ErrorCodeNtNtCseAJKguVKcII_10serde_core3ser9Serialize9serializeQINtNtCsdC8qrlXHNsA_10serde_json3ser10SerializerQINtNtCsipk7xt2ATo7_5alloc3vec3VechENtB1N_15PrettyFormatterEECsiBlXQkauzCX_15bulk_operations
FNDA:0,_RINvMsb_NtCs6zS5XWhHsrg_9api_bones5errorNtB6_8ApiError11bad_requestReECsdyW5kjFx6S2_18error_construction
FNDA:0,_RINvMsb_NtCs6zS5XWhHsrg_9api_bones5errorNtB6_8ApiError12unauthorizedReECsdyW5kjFx6S2_18error_construction
FNDA:0,_RINvMsb_NtCs6zS5XWhHsrg_9api_bones5errorNtB6_8ApiError17validation_failedReECsdyW5kjFx6S2_18error_construction
FNDA:0,_RINvMsb_NtCs6zS5XWhHsrg_9api_bones5errorNtB6_8ApiError8conflictReECsdyW5kjFx6S2_18error_construction
FNDA:0,_RINvMsb_NtCs6zS5XWhHsrg_9api_bones5errorNtB6_8ApiError8internalReECsdyW5kjFx6S2_18error_construction
FNDA:0,_RINvMsb_NtCs6zS5XWhHsrg_9api_bones5errorNtB6_8ApiError9forbiddenReECsdyW5kjFx6S2_18error_construction
FNDA:0,_RINvMsb_NtCs6zS5XWhHsrg_9api_bones5errorNtB6_8ApiError9not_foundReECsdyW5kjFx6S2_18error_construction
FNDA:0,_RINvMsd_NtCs6zS5XWhHsrg_9api_bones5errorINtB6_15ApiErrorBuilderNtB6_9ErrorCodeuE6detailReECsdyW5kjFx6S2_18error_construction
FNDA:0,_RINvXs1_NtCs6zS5XWhHsrg_9api_bones5errorNtB6_9ErrorCodeNtNtCseAJKguVKcII_10serde_core3ser9Serialize9serializeQINtNtCsdC8qrlXHNsA_10serde_json3ser10SerializerQINtNtCsipk7xt2ATo7_5alloc3vec3VechENtB1N_15PrettyFormatterEECsdyW5kjFx6S2_18error_construction
FNDA:0,_RNvMsc_NtCs6zS5XWhHsrg_9api_bones5errorINtB5_15ApiErrorBuilderuuE4codeCsdyW5kjFx6S2_18error_construction
FNDA:0,_RINvNtNtCs6zS5XWhHsrg_9api_bones5error15uuid_urn_option9serializeQINtNtCsdC8qrlXHNsA_10serde_json3ser10SerializerQINtNtCsipk7xt2ATo7_5alloc3vec3VechENtB15_15PrettyFormatterEECsdyW5kjFx6S2_18error_construction
FNDA:0,_RINvMsb_NtCs6zS5XWhHsrg_9api_bones5errorNtB6_8ApiError11bad_requestReECsjzRbuBOdLPm_14error_handling
FNDA:0,_RINvMsb_NtCs6zS5XWhHsrg_9api_bones5errorNtB6_8ApiError17validation_failedReECsjzRbuBOdLPm_14error_handling
FNDA:0,_RINvMsb_NtCs6zS5XWhHsrg_9api_bones5errorNtB6_8ApiError8internalReECsjzRbuBOdLPm_14error_handling
FNDA:0,_RINvMsb_NtCs6zS5XWhHsrg_9api_bones5errorNtB6_8ApiError9not_foundReECsjzRbuBOdLPm_14error_handling
FNDA:0,_RINvMsd_NtCs6zS5XWhHsrg_9api_bones5errorINtB6_15ApiErrorBuilderNtB6_9ErrorCodeuE6detailReECsjzRbuBOdLPm_14error_handling
FNDA:0,_RINvXs1_NtCs6zS5XWhHsrg_9api_bones5errorNtB6_9ErrorCodeNtNtCseAJKguVKcII_10serde_core3ser9Serialize9serializeQINtNtCsdC8qrlXHNsA_10serde_json3ser10SerializerQINtNtCsipk7xt2ATo7_5alloc3vec3VechENtB1N_15PrettyFormatterEECsjzRbuBOdLPm_14error_handling
FNDA:0,_RNvMsc_NtCs6zS5XWhHsrg_9api_bones5errorINtB5_15ApiErrorBuilderuuE4codeCsjzRbuBOdLPm_14error_handling
FNDA:0,_RINvNtNtCs6zS5XWhHsrg_9api_bones5error15uuid_urn_option9serializeQINtNtCsdC8qrlXHNsA_10serde_json3ser10SerializerQINtNtCsipk7xt2ATo7_5alloc3vec3VechENtB15_15PrettyFormatterEECsjzRbuBOdLPm_14error_handling
FNDA:0,_RINvMsb_NtCs6zS5XWhHsrg_9api_bones5errorNtB6_8ApiError9not_foundReECsbp65QDE8FgY_12problem_json
FNDA:0,_RINvMsj_NtCs6zS5XWhHsrg_9api_bones5errorNtB6_11ProblemJson13with_instanceReECsbp65QDE8FgY_12problem_json
FNDA:0,_RINvMsj_NtCs6zS5XWhHsrg_9api_bones5errorNtB6_11ProblemJson3newReBY_BY_ECsbp65QDE8FgY_12problem_json
FNDA:0,_RINvMsj_NtCs6zS5XWhHsrg_9api_bones5errorNtB6_11ProblemJson6extendReB11_ECsbp65QDE8FgY_12problem_json
FNDA:0,_RINvMsb_NtCs6zS5XWhHsrg_9api_bones5errorNtB6_8ApiError12unauthorizedReECskrVjZgCeeVl_12problem_json
FNDA:0,_RINvMsb_NtCs6zS5XWhHsrg_9api_bones5errorNtB6_8ApiError9not_foundReECskrVjZgCeeVl_12problem_json
FNF:168
FNH:168
DA:202,114
DA:203,114
DA:204,2
DA:205,112
DA:207,114
DA:226,38
DA:238,38
DA:239,1
DA:241,1
DA:242,37
DA:253,37
DA:254,1
DA:256,1
DA:257,36
DA:259,36
DA:260,36
DA:261,36
DA:262,38
DA:288,219
DA:290,219
DA:291,219
DA:292,219
DA:293,219
DA:294,181
DA:295,38
DA:298,38
DA:299,38
DA:300,38
DA:302,38
DA:303,0
DA:304,38
DA:305,38
DA:306,38
DA:307,38
DA:308,219
DA:326,2
DA:327,2
DA:328,2
DA:329,2
DA:330,2
DA:331,2
DA:338,60
DA:339,60
DA:340,60
DA:341,60
DA:342,60
DA:343,60
DA:360,4
DA:361,4
DA:362,1
DA:363,3
DA:365,4
DA:380,180
DA:381,180
DA:382,49
DA:386,15
DA:391,10
DA:392,30
DA:393,2
DA:394,2
DA:395,2
DA:396,7
DA:397,2
DA:398,2
DA:399,2
DA:400,2
DA:401,8
DA:402,2
DA:403,8
DA:404,2
DA:405,20
DA:406,2
DA:407,3
DA:408,7
DA:409,3
DA:411,180
DA:424,924
DA:425,924
DA:426,97
DA:427,62
DA:428,58
DA:429,51
DA:430,50
DA:431,62
DA:432,54
DA:433,49
DA:434,0
DA:435,0
DA:436,0
DA:437,69
DA:438,1
DA:439,1
DA:440,1
DA:441,67
DA:442,52
DA:443,1
DA:444,1
DA:445,1
DA:446,1
DA:447,50
DA:448,1
DA:449,57
DA:450,1
DA:451,68
DA:452,1
DA:453,2
DA:454,64
DA:455,2
DA:457,924
DA:470,139
DA:471,139
DA:472,8
DA:473,11
DA:474,9
DA:475,6
DA:476,7
DA:477,5
DA:478,8
DA:479,4
DA:480,0
DA:481,0
DA:482,0
DA:483,15
DA:484,2
DA:485,2
DA:486,2
DA:487,8
DA:488,6
DA:489,2
DA:490,2
DA:491,2
DA:492,2
DA:493,6
DA:494,2
DA:495,6
DA:496,2
DA:497,11
DA:498,2
DA:499,2
DA:500,5
DA:501,2
DA:503,139
DA:523,112
DA:524,112
DA:525,112
DA:543,99
DA:545,99
DA:546,4
DA:547,4
DA:548,4
DA:550,2
DA:551,2
DA:552,2
DA:554,95
DA:555,95
DA:556,95
DA:559,96
DA:560,96
DA:561,87
DA:562,81
DA:563,74
DA:564,69
DA:565,63
DA:566,59
DA:567,54
DA:568,51
DA:569,51
DA:570,51
DA:571,51
DA:572,44
DA:573,43
DA:574,42
DA:575,41
DA:576,34
DA:577,29
DA:578,28
DA:579,27
DA:580,26
DA:581,25
DA:582,20
DA:583,19
DA:584,16
DA:585,15
DA:586,10
DA:587,9
DA:588,8
DA:589,4
DA:590,3
DA:592,99
DA:598,1
DA:599,1
DA:600,1
DA:613,67
DA:614,67
DA:615,67
DA:620,58
DA:621,58
DA:622,57
DA:623,57
DA:624,58
DA:629,1
DA:631,1
DA:632,1
DA:633,1
DA:634,1
DA:635,1
DA:636,1
DA:637,1
DA:642,1
DA:643,1
DA:644,1
DA:670,34
DA:671,34
DA:672,1
DA:673,2
DA:674,1
DA:675,2
DA:676,1
DA:677,1
DA:678,1
DA:679,1
DA:680,1
DA:681,1
DA:682,1
DA:683,1
DA:684,1
DA:685,1
DA:686,2
DA:687,1
DA:688,2
DA:689,1
DA:690,1
DA:691,1
DA:692,1
DA:693,9
DA:695,34
DA:723,6
DA:724,6
DA:725,6
DA:780,2
DA:781,2
DA:782,1
DA:783,1
DA:785,2
DA:832,1
DA:833,1
DA:834,1
DA:954,4
DA:957,4
DA:958,4
DA:959,4
DA:960,4
DA:961,4
DA:962,4
DA:963,4
DA:967,4
DA:974,4
DA:978,4
DA:992,35
DA:993,35
DA:994,34
DA:995,1
DA:997,35
DA:999,37
DA:1000,37
DA:1001,36
DA:1002,1
DA:1003,35
DA:1004,35
DA:1005,1
DA:1006,1
DA:1007,34
DA:1008,34
DA:1009,34
DA:1012,37
DA:1029,132
DA:1030,132
DA:1031,132
DA:1032,132
DA:1035,132
DA:1036,132
DA:1037,132
DA:1038,132
DA:1039,132
DA:1040,132
DA:1041,132
DA:1042,132
DA:1043,132
DA:1044,132
DA:1045,132
DA:1046,132
DA:1047,132
DA:1048,132
DA:1049,132
DA:1066,3
DA:1067,3
DA:1068,3
DA:1069,3
DA:1085,9
DA:1086,9
DA:1087,9
DA:1088,9
DA:1098,5
DA:1099,5
DA:1100,5
DA:1101,5
DA:1117,8
DA:1118,8
DA:1119,8
DA:1120,8
DA:1139,4
DA:1140,4
DA:1141,4
DA:1142,4
DA:1143,4
DA:1144,4
DA:1145,4
DA:1146,4
DA:1150,13
DA:1151,13
DA:1152,13
DA:1165,2
DA:1166,2
DA:1167,2
DA:1180,2
DA:1181,2
DA:1182,2
DA:1199,32
DA:1200,32
DA:1201,32
DA:1204,3
DA:1205,3
DA:1206,3
DA:1209,7
DA:1210,7
DA:1211,7
DA:1215,1
DA:1216,1
DA:1217,1
DA:1221,1
DA:1222,1
DA:1223,1
DA:1226,3
DA:1227,3
DA:1228,3
DA:1231,1
DA:1232,1
DA:1233,1
DA:1246,23
DA:1247,23
DA:1248,23
DA:1251,2
DA:1252,2
DA:1253,2
DA:1256,1
DA:1257,1
DA:1258,1
DA:1261,2
DA:1262,2
DA:1263,2
DA:1267,3
DA:1268,3
DA:1269,3
DA:1270,3
DA:1272,3
DA:1289,3
DA:1290,3
DA:1291,3
DA:1292,3
DA:1312,2
DA:1313,2
DA:1314,1
DA:1315,1
DA:1317,2
DA:1318,2
DA:1321,14
DA:1322,14
DA:1323,14
DA:1326,3
DA:1327,3
DA:1328,3
DA:1346,5
DA:1347,5
DA:1348,5
DA:1349,5
DA:1350,5
DA:1351,5
DA:1352,5
DA:1353,5
DA:1354,5
DA:1355,5
DA:1358,5
DA:1359,5
DA:1360,5
DA:1361,5
DA:1395,5
DA:1396,5
DA:1397,5
DA:1398,5
DA:1399,5
DA:1400,5
DA:1401,5
DA:1402,5
DA:1403,5
DA:1404,5
DA:1410,5
DA:1411,5
DA:1412,5
DA:1413,5
DA:1414,5
DA:1415,5
DA:1416,5
DA:1417,5
DA:1418,5
DA:1419,5
DA:1427,1
DA:1428,1
DA:1429,1
DA:1430,1
DA:1434,1
DA:1435,1
DA:1436,1
DA:1437,1
DA:1441,1
DA:1442,1
DA:1443,1
DA:1444,1
DA:1453,5
DA:1455,5
DA:1458,5
DA:1459,5
DA:1464,1
DA:1465,1
DA:1466,1
DA:1471,5
DA:1472,5
DA:1473,5
DA:1474,5
DA:1475,5
DA:1493,1
DA:1495,1
DA:1496,1
DA:1497,1
DA:1498,1
DA:1499,1
DA:1500,1
DA:1501,1
DA:1502,1
DA:1503,1
DA:1504,256
DA:1505,256
DA:1506,256
DA:1507,256
DA:1509,256
DA:1510,256
DA:1511,256
DA:1512,256
DA:1513,256
DA:1515,256
DA:1516,256
DA:1517,1
DA:1518,1
DA:1535,29
DA:1536,29
DA:1537,29
DA:1542,29
DA:1543,29
DA:1544,29
DA:1545,29
DA:1546,29
DA:1547,29
DA:1548,29
DA:1555,1
DA:1556,6
DA:1557,6
DA:1558,6
DA:1562,1
DA:1565,1
DA:1567,1
DA:1568,1
DA:1571,1
DA:1576,1
DA:1577,1
DA:1578,1
DA:1579,1
DA:1580,1
DA:1581,1
DA:1582,1
DA:1583,1
DA:1584,1
DA:1585,1
DA:1586,1
DA:1587,1
DA:1588,1
DA:1589,1
DA:1590,1
DA:1591,1
DA:1592,1
DA:1593,1
DA:1594,1
DA:1595,1
DA:1596,1
DA:1597,1
DA:1598,1
DA:1599,21
DA:1600,21
DA:1601,21
DA:1602,21
DA:1603,21
DA:1608,1
DA:1612,1
DA:1614,1
DA:1615,1
DA:1616,1
DA:1620,1
DA:1622,1
DA:1623,1
DA:1624,1
DA:1625,1
DA:1626,1
DA:1627,1
DA:1628,1
DA:1629,1
DA:1630,1
DA:1631,4
DA:1632,4
DA:1633,4
DA:1634,4
DA:1638,1
DA:1641,1
DA:1642,1
DA:1643,1
DA:1644,1
DA:1645,1
DA:1646,1
DA:1647,1
DA:1648,1
DA:1649,1
DA:1650,1
DA:1651,1
DA:1652,1
DA:1653,1
DA:1654,1
DA:1657,1
DA:1659,9
DA:1660,1
DA:1661,1
DA:1662,1
DA:1663,1
DA:1664,1
DA:1665,1
DA:1666,1
DA:1667,1
DA:1668,1
DA:1669,1
DA:1670,9
DA:1671,9
DA:1676,1
DA:1679,1
DA:1680,1
DA:1681,1
DA:1682,1
DA:1685,1
DA:1686,1
DA:1689,1
DA:1690,1
DA:1693,1
DA:1696,1
DA:1697,1
DA:1698,1
DA:1699,1
DA:1700,1
DA:1701,1
DA:1702,1
DA:1703,1
DA:1704,1
DA:1705,1
DA:1706,6
DA:1707,6
DA:1708,6
DA:1710,1
DA:1713,1
DA:1714,1
DA:1715,1
DA:1716,1
DA:1717,1
DA:1720,1
DA:1721,1
DA:1722,1
DA:1723,1
DA:1724,1
DA:1727,1
DA:1730,1
DA:1731,1
DA:1732,1
DA:1733,1
DA:1736,1
DA:1737,1
DA:1738,1
DA:1739,1
DA:1740,1
DA:1743,1
DA:1744,1
DA:1745,1
DA:1746,1
DA:1747,1
DA:1748,1
DA:1749,1
DA:1750,1
DA:1751,1
DA:1755,1
DA:1756,1
DA:1757,1
DA:1758,1
DA:1760,1
DA:1762,1
DA:1763,1
DA:1764,1
DA:1765,1
DA:1767,1
DA:1768,1
DA:1769,1
DA:1773,1
DA:1774,1
DA:1776,1
DA:1777,1
DA:1778,1
DA:1779,1
DA:1780,1
DA:1784,1
DA:1785,1
DA:1789,1
DA:1790,1
DA:1791,1
DA:1792,1
DA:1793,1
DA:1794,1
DA:1795,1
DA:1796,1
DA:1797,1
DA:1798,1
DA:1799,1
DA:1800,1
DA:1801,1
DA:1805,1
DA:1806,1
DA:1807,1
DA:1808,1
DA:1809,1
DA:1810,1
DA:1811,1
DA:1812,1
DA:1813,1
DA:1815,1
DA:1816,1
DA:1820,1
DA:1821,1
DA:1822,1
DA:1823,1
DA:1824,1
DA:1825,1
DA:1826,1
DA:1827,1
DA:1828,1
DA:1829,1
DA:1830,1
DA:1831,1
DA:1832,1
DA:1834,1
DA:1835,1
DA:1836,1
DA:1837,1
DA:1838,1
DA:1839,1
DA:1840,1
DA:1841,1
DA:1842,1
DA:1845,1
DA:1846,1
DA:1850,1
DA:1851,1
DA:1852,1
DA:1853,1
DA:1854,1
DA:1855,1
DA:1856,1
DA:1857,1
DA:1860,1
DA:1861,1
DA:1862,1
DA:1863,1
DA:1864,1
DA:1871,1
DA:1872,1
DA:1873,1
DA:1874,1
DA:1875,1
DA:1876,1
DA:1880,1
DA:1881,1
DA:1882,1
DA:1883,1
DA:1884,1
DA:1887,1
DA:1897,1
DA:1898,1
DA:1899,1
DA:1900,1
DA:1901,1
DA:1902,1
DA:1903,1
DA:1904,1
DA:1905,1
DA:1906,1
DA:1909,1
DA:1910,1
DA:1913,1
DA:1914,1
DA:1916,1
DA:1917,1
DA:1925,1
DA:1926,1
DA:1928,1
DA:1929,1
DA:1930,1
DA:1931,1
DA:1932,1
DA:1933,1
DA:1934,1
DA:1935,1
DA:1936,1
DA:1938,1
DA:1939,1
DA:1940,1
DA:1941,1
DA:1945,1
DA:1946,1
DA:1948,1
DA:1949,1
DA:1950,1
DA:1951,1
DA:1952,1
DA:1953,1
DA:1954,1
DA:1955,1
DA:1956,1
DA:1963,1
DA:1964,1
DA:1965,1
DA:1966,1
DA:1967,1
DA:1969,1
DA:1970,1
DA:1974,1
DA:1975,1
DA:1979,1
DA:1981,1
DA:1982,1
DA:1991,1
DA:1992,1
DA:1993,1
DA:1994,1
DA:1995,1
DA:1996,1
DA:1997,1
DA:1998,1
DA:1999,1
DA:2000,1
DA:2001,1
DA:2002,1
DA:2003,1
DA:2004,1
DA:2005,1
DA:2006,1
DA:2007,1
DA:2008,1
DA:2009,1
DA:2010,1
DA:2011,1
DA:2012,1
DA:2013,1
DA:2014,1
DA:2015,1
DA:2016,1
DA:2017,1
DA:2018,1
DA:2019,1
DA:2020,1
DA:2021,1
DA:2022,1
DA:2023,1
DA:2024,1
DA:2025,1
DA:2026,1
DA:2027,1
DA:2028,1
DA:2029,1
DA:2030,1
DA:2031,1
DA:2032,1
DA:2033,1
DA:2034,1
DA:2035,1
DA:2036,1
DA:2037,1
DA:2038,1
DA:2039,1
DA:2040,1
DA:2041,1
DA:2042,1
DA:2043,1
DA:2044,1
DA:2045,1
DA:2046,1
DA:2047,1
DA:2048,1
DA:2049,1
DA:2050,1
DA:2051,1
DA:2052,1
DA:2053,1
DA:2054,1
DA:2055,1
DA:2056,1
DA:2057,1
DA:2058,1
DA:2059,1
DA:2060,1
DA:2061,1
DA:2062,1
DA:2063,1
DA:2064,1
DA:2065,1
DA:2066,1
DA:2067,1
DA:2068,1
DA:2069,1
DA:2070,1
DA:2071,1
DA:2072,1
DA:2073,1
DA:2074,1
DA:2075,1
DA:2076,1
DA:2077,1
DA:2078,1
DA:2079,1
DA:2080,1
DA:2081,1
DA:2082,1
DA:2083,1
DA:2084,1
DA:2085,1
DA:2086,1
DA:2087,1
DA:2088,1
DA:2089,1
DA:2090,1
DA:2091,1
DA:2092,1
DA:2093,1
DA:2094,1
DA:2095,1
DA:2096,1
DA:2097,1
DA:2098,1
DA:2099,1
DA:2100,1
DA:2101,1
DA:2102,1
DA:2103,1
DA:2104,1
DA:2105,1
DA:2106,1
DA:2107,1
DA:2108,1
DA:2109,1
DA:2110,1
DA:2111,1
DA:2112,1
DA:2113,1
DA:2114,1
DA:2115,1
DA:2116,1
DA:2117,1
DA:2118,1
DA:2119,1
DA:2120,1
DA:2121,1
DA:2122,27
DA:2123,27
DA:2124,27
DA:2125,27
DA:2127,27
DA:2128,27
DA:2129,27
DA:2130,27
DA:2134,1
DA:2141,1
DA:2142,1
DA:2143,1
DA:2144,1
DA:2145,1
DA:2146,1
DA:2155,1
DA:2156,1
DA:2158,1
DA:2159,1
DA:2160,1
DA:2164,1
DA:2165,1
DA:2167,1
DA:2168,1
DA:2169,1
DA:2170,1
DA:2174,1
DA:2179,1
DA:2180,1
DA:2181,1
DA:2182,1
DA:2183,1
DA:2187,1
DA:2188,1
DA:2191,1
DA:2192,1
DA:2193,1
DA:2194,1
DA:2195,1
DA:2196,1
DA:2198,1
DA:2199,1
DA:2200,1
DA:2204,1
DA:2205,1
DA:2207,1
DA:2208,1
DA:2209,1
DA:2210,1
DA:2211,1
DA:2212,1
DA:2214,1
DA:2215,1
DA:2216,1
DA:2220,1
DA:2221,1
DA:2223,1
DA:2224,1
DA:2225,1
DA:2226,1
DA:2227,1
DA:2228,1
DA:2229,1
DA:2231,1
DA:2232,1
DA:2233,1
DA:2237,1
DA:2238,1
DA:2240,1
DA:2241,1
DA:2242,1
DA:2243,1
DA:2244,1
DA:2245,1
DA:2247,1
DA:2248,1
DA:2249,1
DA:2256,1
DA:2257,1
DA:2258,1
DA:2259,1
DA:2260,1
DA:2261,1
DA:2262,1
DA:2263,1
DA:2264,1
DA:2265,1
DA:2266,1
DA:2269,1
DA:2270,1
DA:2271,1
DA:2272,1
DA:2273,1
DA:2274,1
DA:2275,1
DA:2276,1
DA:2279,1
DA:2280,1
DA:2281,1
DA:2282,1
DA:2283,1
DA:2284,1
DA:2285,1
DA:2286,1
DA:2287,1
DA:2288,1
DA:2289,1
DA:2290,1
DA:2291,1
DA:2292,1
DA:2293,1
DA:2294,1
DA:2297,1
DA:2299,1
DA:2300,1
DA:2301,1
DA:2302,1
DA:2303,1
DA:2304,1
DA:2305,1
DA:2312,1
DA:2314,1
DA:2315,1
DA:2316,1
DA:2319,1
DA:2325,1
DA:2326,1
DA:2327,1
DA:2331,1
DA:2334,1
DA:2335,1
DA:2338,1
DA:2339,1
DA:2342,1
DA:2348,1
DA:2349,1
DA:2350,1
DA:2353,1
DA:2354,1
DA:2355,1
DA:2358,1
DA:2359,1
DA:2361,1
DA:2363,1
DA:2364,1
DA:2366,1
DA:2367,1
DA:2368,1
DA:2371,1
DA:2375,1
DA:2376,1
DA:2377,1
DA:2382,1
DA:2383,1
DA:2384,1
DA:2386,1
DA:2387,1
DA:2390,1
DA:2396,1
DA:2397,1
DA:2398,1
DA:2403,1
DA:2404,1
DA:2406,1
DA:2408,1
DA:2409,1
DA:2410,1
DA:2413,1
DA:2414,1
DA:2415,1
DA:2416,1
DA:2417,1
DA:2418,1
DA:2419,1
DA:2420,1
DA:2423,1
DA:2424,1
DA:2425,1
DA:2426,1
DA:2427,1
DA:2428,1
DA:2429,1
DA:2430,1
DA:2433,1
DA:2435,1
DA:2436,1
DA:2437,1
DA:2438,1
DA:2439,1
DA:2441,1
DA:2443,1
DA:2444,1
DA:2447,1
DA:2454,1
DA:2455,1
DA:2456,1
DA:2461,1
DA:2462,1
DA:2463,1
DA:2464,1
DA:2465,1
DA:2466,1
DA:2467,1
DA:2475,1
DA:2476,1
DA:2477,1
DA:2478,1
DA:2479,1
DA:2483,1
DA:2484,1
DA:2485,1
DA:2486,1
DA:2488,1
DA:2489,1
DA:2490,1
DA:2491,0
DA:2494,1
DA:2498,1
DA:2499,1
DA:2500,1
DA:2501,1
DA:2502,1
DA:2509,1
DA:2514,1
DA:2515,1
DA:2516,1
DA:2517,1
DA:2518,1
DA:2519,1
DA:2520,1
DA:2521,1
DA:2522,1
DA:2525,1
DA:2526,1
DA:2527,1
DA:2528,1
DA:2529,1
DA:2530,1
DA:2537,1
DA:2538,1
DA:2539,1
DA:2540,1
DA:2541,1
DA:2542,1
DA:2546,1
DA:2547,1
DA:2548,1
DA:2549,1
DA:2550,1
DA:2551,1
DA:2552,1
DA:2553,1
DA:2554,1
DA:2555,1
DA:2559,1
DA:2560,1
DA:2561,1
DA:2562,1
DA:2563,1
DA:2564,1
DA:2568,1
DA:2570,1
DA:2571,1
DA:2572,1
DA:2573,1
DA:2574,1
DA:2575,1
DA:2576,1
DA:2577,1
DA:2578,1
DA:2581,1
DA:2582,1
DA:2583,1
DA:2584,1
DA:2585,1
DA:2586,1
DA:2587,1
DA:2588,1
DA:2589,1
DA:2590,1
DA:2598,1
DA:2599,1
DA:2600,1
DA:2601,1
DA:2602,1
DA:2606,1
DA:2607,1
DA:2608,1
DA:2609,1
DA:2611,1
DA:2613,1
DA:2614,1
DA:2618,1
DA:2619,1
DA:2620,1
DA:2621,1
DA:2622,1
DA:2623,1
DA:2624,1
DA:2628,1
DA:2630,1
DA:2631,1
DA:2632,1
DA:2633,1
DA:2634,1
DA:2748,16
DA:2749,16
DA:2750,16
DA:2751,16
DA:2752,16
DA:2753,16
DA:2754,16
DA:2755,16
DA:2756,16
DA:2757,16
DA:2758,16
DA:2759,16
DA:2760,16
DA:2761,16
DA:2762,16
DA:2776,1
DA:2777,1
DA:2778,1
DA:2779,1
DA:2792,3
DA:2793,3
DA:2794,3
DA:2816,8
DA:2817,8
DA:2820,8
DA:2821,1
DA:2822,7
DA:2824,8
DA:2825,1
DA:2826,1
DA:2827,1
DA:2828,7
DA:2830,8
DA:2831,1
DA:2832,1
DA:2833,1
DA:2834,7
DA:2836,8
DA:2837,1
DA:2838,1
DA:2839,1
DA:2840,1
DA:2841,1
DA:2842,1
DA:2843,1
DA:2844,1
DA:2845,1
DA:2846,1
DA:2847,7
DA:2851,8
DA:2852,1
DA:2853,1
DA:2855,8
DA:2856,8
DA:2864,1
DA:2865,1
DA:2871,1
DA:2872,1
DA:2873,1
DA:2874,1
DA:2875,1
DA:2876,1
DA:2877,1
DA:2880,1
DA:2881,1
DA:2882,1
DA:2883,1
DA:2884,1
DA:2887,1
DA:2890,1
DA:2891,1
DA:2892,1
DA:2893,1
DA:2894,1
DA:2897,1
DA:2899,1
DA:2900,1
DA:2901,1
DA:2902,1
DA:2903,1
DA:2904,1
DA:2905,1
DA:2908,1
DA:2910,1
DA:2911,1
DA:2912,1
DA:2913,1
DA:2914,1
DA:2915,1
DA:2916,1
DA:2917,1
DA:2918,1
DA:2919,1
DA:2922,1
DA:2924,1
DA:2925,1
DA:2926,1
DA:2927,1
DA:2928,1
DA:2929,1
DA:2932,1
DA:2933,1
DA:2934,1
DA:2935,1
DA:2936,1
DA:2939,1
DA:2940,1
DA:2941,1
DA:2942,1
DA:2943,1
DA:2944,1
DA:2945,1
DA:2947,1
DA:2948,1
DA:2949,1
DA:2950,1
DA:2951,1
DA:2952,1
DA:2956,1
DA:2957,1
DA:2958,1
DA:2959,1
DA:2960,1
DA:2961,1
DA:2964,1
DA:2967,1
DA:2968,1
DA:2969,1
DA:2970,1
DA:2971,1
DA:2973,1
DA:2974,1
DA:2975,1
DA:2978,1
DA:2979,1
DA:2980,1
DA:2981,1
DA:2982,1
DA:2983,1
DA:2997,2
DA:2998,2
DA:2999,2
DA:3002,2
DA:3004,2
DA:3005,2
DA:3006,2
DA:3007,2
DA:3009,2
DA:3010,2
DA:3015,3
DA:3016,3
DA:3017,3
DA:3018,3
DA:3019,3
DA:3020,3
DA:3021,3
DA:3022,3
DA:3023,3
DA:3025,3
DA:3026,3
DA:3037,1
DA:3038,1
DA:3039,1
DA:3040,1
DA:3041,1
DA:3042,1
DA:3043,1
DA:3044,1
DA:3045,1
DA:3046,1
DA:3049,1
DA:3050,1
DA:3051,1
DA:3052,1
DA:3053,1
DA:3054,1
DA:3055,1
DA:3056,1
DA:3057,1
DA:3058,1
DA:3059,1
DA:3060,1
DA:3064,1
DA:3068,1
DA:3069,1
DA:3070,1
DA:3071,0
DA:3073,1
DA:3074,1
DA:3077,1
DA:3081,1
DA:3083,1
DA:3084,1
DA:3088,1
DA:3090,1
DA:3091,1
DA:3092,1
DA:3093,1
DA:3094,1
DA:3095,1
DA:3096,1
DA:3097,1
DA:3101,1
DA:3103,1
DA:3109,1
DA:3110,1
DA:3111,1
DA:3112,1
DA:3113,1
DA:3114,1
DA:3115,1
DA:3116,1
DA:3117,1
DA:3118,1
DA:3119,1
DA:3123,1
DA:3125,1
DA:3126,1
DA:3127,1
DA:3128,1
DA:3129,1
DA:3130,1
DA:3131,1
DA:3132,1
DA:3139,1
DA:3141,1
DA:3142,1
DA:3143,1
DA:3144,1
DA:3145,1
DA:3146,1
BRF:0
BRH:0
LF:1444
LH:1434
end_of_record
SF:/Users/gsalingu/git/api-bones/.claude/worktrees/feat+211-nested-org-adr/src/etag.rs
FN:775,_RNCNvNtNtNtCs1ufPfM0GhR0_9api_bones4etag5tests20axum_extractor_tests16extract_if_match0B9_
FN:785,_RNCNvNtNtNtCs1ufPfM0GhR0_9api_bones4etag5tests20axum_extractor_tests21extract_if_none_match0B9_
FN:804,_RNCNvNtNtNtCs1ufPfM0GhR0_9api_bones4etag5tests20axum_extractor_testss_17if_match_tag_list0B9_
FN:798,_RNCNvNtNtNtCs1ufPfM0GhR0_9api_bones4etag5tests20axum_extractor_testss_17if_match_wildcard0B9_
FN:828,_RNCNvNtNtNtCs1ufPfM0GhR0_9api_bones4etag5tests20axum_extractor_testss_22if_none_match_tag_list0B9_
FN:822,_RNCNvNtNtNtCs1ufPfM0GhR0_9api_bones4etag5tests20axum_extractor_testss_22if_none_match_wildcard0B9_
FN:816,_RNCNvNtNtNtCs1ufPfM0GhR0_9api_bones4etag5tests20axum_extractor_testss_33if_match_malformed_is_bad_request0B9_
FN:834,_RNCNvNtNtNtCs1ufPfM0GhR0_9api_bones4etag5tests20axum_extractor_testss_34if_match_non_ascii_header_rejected0B9_
FN:848,_RNCNvNtNtNtCs1ufPfM0GhR0_9api_bones4etag5tests20axum_extractor_testss_36if_none_match_missing_is_bad_request0B9_
FN:810,_RNCNvNtNtNtCs1ufPfM0GhR0_9api_bones4etag5tests20axum_extractor_testss_38if_match_missing_header_is_bad_request0B9_
FN:392,_RNCNvNtNtCs1ufPfM0GhR0_9api_bones4etag12axum_support10header_str0B7_
FN:394,_RNCNvNtNtCs1ufPfM0GhR0_9api_bones4etag12axum_support10header_strs_0B7_
FN:402,_RNCNvNtNtCs1ufPfM0GhR0_9api_bones4etag12axum_support15parse_condition0B7_
FN:429,_RNCNvXs0_NtNtCs1ufPfM0GhR0_9api_bones4etag12axum_supportNtB9_11IfNoneMatchINtNtCsgRxEIuGfDXj_9axum_core7extract16FromRequestPartsuE18from_request_parts0Bb_
FN:412,_RNCNvXs_NtNtCs1ufPfM0GhR0_9api_bones4etag12axum_supportNtB8_7IfMatchINtNtCsgRxEIuGfDXj_9axum_core7extract16FromRequestPartsuE18from_request_parts0Ba_
FN:385,_RNvNtNtCs1ufPfM0GhR0_9api_bones4etag12axum_support10header_str
FN:397,_RNvNtNtCs1ufPfM0GhR0_9api_bones4etag12axum_support15parse_condition
FN:477,_RNvNtNtCs1ufPfM0GhR0_9api_bones4etag5testss_17etag_weak_display
FN:688,_RNvNtNtCs1ufPfM0GhR0_9api_bones4etag5testss_18etag_from_str_weak
FN:472,_RNvNtNtCs1ufPfM0GhR0_9api_bones4etag5testss_19etag_strong_display
FN:681,_RNvNtNtCs1ufPfM0GhR0_9api_bones4etag5testss_20etag_from_str_strong
FN:734,_RNvNtNtCs1ufPfM0GhR0_9api_bones4etag5testss_20etag_round_trip_weak
FN:751,_RNvNtNtCs1ufPfM0GhR0_9api_bones4etag5testss_22etag_parse_list_single
FN:727,_RNvNtNtCs1ufPfM0GhR0_9api_bones4etag5testss_22etag_round_trip_strong
FN:461,_RNvNtNtCs1ufPfM0GhR0_9api_bones4etag5testss_22etag_weak_construction
FN:559,_RNvNtNtCs1ufPfM0GhR0_9api_bones4etag5testss_22if_match_tags_no_match
FN:741,_RNvNtNtCs1ufPfM0GhR0_9api_bones4etag5testss_24etag_parse_list_multiple
FN:454,_RNvNtNtCs1ufPfM0GhR0_9api_bones4etag5testss_24etag_strong_construction
FN:618,_RNvNtNtCs1ufPfM0GhR0_9api_bones4etag5testss_26etag_serde_round_trip_weak
FN:552,_RNvNtNtCs1ufPfM0GhR0_9api_bones4etag5testss_26if_match_tags_strong_match
FN:701,_RNvNtNtCs1ufPfM0GhR0_9api_bones4etag5testss_27etag_from_str_rejects_empty
FN:546,_RNvNtNtCs1ufPfM0GhR0_9api_bones4etag5testss_27if_match_any_always_matches
FN:758,_RNvNtNtCs1ufPfM0GhR0_9api_bones4etag5testss_28etag_parse_list_empty_errors
FN:609,_RNvNtNtCs1ufPfM0GhR0_9api_bones4etag5testss_28etag_serde_round_trip_strong
FN:627,_RNvNtNtCs1ufPfM0GhR0_9api_bones4etag5testss_29if_match_any_serde_round_trip
FN:695,_RNvNtNtCs1ufPfM0GhR0_9api_bones4etag5testss_30etag_from_str_rejects_unquoted
FN:720,_RNvNtNtCs1ufPfM0GhR0_9api_bones4etag5testss_30etag_from_str_trims_whitespace
FN:528,_RNvNtNtCs1ufPfM0GhR0_9api_bones4etag5testss_30etag_weak_comparison_both_weak
FN:636,_RNvNtNtCs1ufPfM0GhR0_9api_bones4etag5testss_30if_match_tags_serde_round_trip
FN:500,_RNvNtNtCs1ufPfM0GhR0_9api_bones4etag5testss_31etag_strong_does_not_match_weak
FN:486,_RNvNtNtCs1ufPfM0GhR0_9api_bones4etag5testss_31etag_strong_matches_same_strong
FN:507,_RNvNtNtCs1ufPfM0GhR0_9api_bones4etag5testss_31etag_weak_does_not_match_strong
FN:575,_RNvNtNtCs1ufPfM0GhR0_9api_bones4etag5testss_33if_none_match_any_never_satisfied
FN:645,_RNvNtNtCs1ufPfM0GhR0_9api_bones4etag5testss_34if_none_match_any_serde_round_trip
FN:654,_RNvNtNtCs1ufPfM0GhR0_9api_bones4etag5testss_35if_none_match_tags_serde_round_trip
FN:714,_RNvNtNtCs1ufPfM0GhR0_9api_bones4etag5testss_36etag_from_str_rejects_embedded_quote
FN:765,_RNvNtNtCs1ufPfM0GhR0_9api_bones4etag5testss_36etag_parse_list_propagates_bad_entry
FN:535,_RNvNtNtCs1ufPfM0GhR0_9api_bones4etag5testss_37etag_weak_comparison_different_values
FN:565,_RNvNtNtCs1ufPfM0GhR0_9api_bones4etag5testss_38if_match_tags_weak_etag_does_not_match
FN:667,_RNvNtNtCs1ufPfM0GhR0_9api_bones4etag5testss_41etag_into_response_parts_sets_etag_header
FN:493,_RNvNtNtCs1ufPfM0GhR0_9api_bones4etag5testss_42etag_strong_does_not_match_different_value
FN:598,_RNvNtNtCs1ufPfM0GhR0_9api_bones4etag5testss_42if_none_match_tags_not_satisfied_both_weak
FN:708,_RNvNtNtCs1ufPfM0GhR0_9api_bones4etag5testss_43etag_from_str_rejects_missing_closing_quote
FN:521,_RNvNtNtCs1ufPfM0GhR0_9api_bones4etag5testss_44etag_weak_matches_same_value_weak_comparison
FN:580,_RNvNtNtCs1ufPfM0GhR0_9api_bones4etag5testss_45if_none_match_tags_satisfied_when_not_present
FN:856,_RNvNtNtCs1ufPfM0GhR0_9api_bones4etag5testss_46etag_weak_into_response_parts_sets_etag_header
FN:514,_RNvNtNtCs1ufPfM0GhR0_9api_bones4etag5testss_47etag_weak_does_not_match_weak_strong_comparison
FN:592,_RNvNtNtCs1ufPfM0GhR0_9api_bones4etag5testss_48if_none_match_tags_not_satisfied_weak_comparison
FN:586,_RNvNtNtCs1ufPfM0GhR0_9api_bones4etag5testss_52if_none_match_tags_not_satisfied_when_present_strong
FN:80,_RINvMNtCs1ufPfM0GhR0_9api_bones4etagNtB3_4ETag4weakReEB5_
FN:63,_RINvMNtCs1ufPfM0GhR0_9api_bones4etagNtB3_4ETag6strongReEB5_
FN:302,_RNCNvMs4_NtCs1ufPfM0GhR0_9api_bones4etagNtB7_7IfMatch7matches0B9_
FN:355,_RNCNvMs5_NtCs1ufPfM0GhR0_9api_bones4etagNtB7_11IfNoneMatch7matches0B9_
FN:426,_RNvXs0_NtNtCs1ufPfM0GhR0_9api_bones4etag12axum_supportNtB7_11IfNoneMatchINtNtCsgRxEIuGfDXj_9axum_core7extract16FromRequestPartsuE18from_request_partsB9_
FN:409,_RNvXs_NtNtCs1ufPfM0GhR0_9api_bones4etag12axum_supportNtB6_7IfMatchINtNtCsgRxEIuGfDXj_9axum_core7extract16FromRequestPartsuE18from_request_partsB8_
FN:775,_RNvNtNtNtCs1ufPfM0GhR0_9api_bones4etag5tests20axum_extractor_tests16extract_if_match
FN:785,_RNvNtNtNtCs1ufPfM0GhR0_9api_bones4etag5tests20axum_extractor_tests21extract_if_none_match
FN:804,_RNvNtNtNtCs1ufPfM0GhR0_9api_bones4etag5tests20axum_extractor_testss_17if_match_tag_list
FN:798,_RNvNtNtNtCs1ufPfM0GhR0_9api_bones4etag5tests20axum_extractor_testss_17if_match_wildcard
FN:828,_RNvNtNtNtCs1ufPfM0GhR0_9api_bones4etag5tests20axum_extractor_testss_22if_none_match_tag_list
FN:822,_RNvNtNtNtCs1ufPfM0GhR0_9api_bones4etag5tests20axum_extractor_testss_22if_none_match_wildcard
FN:816,_RNvNtNtNtCs1ufPfM0GhR0_9api_bones4etag5tests20axum_extractor_testss_33if_match_malformed_is_bad_request
FN:834,_RNvNtNtNtCs1ufPfM0GhR0_9api_bones4etag5tests20axum_extractor_testss_34if_match_non_ascii_header_rejected
FN:848,_RNvNtNtNtCs1ufPfM0GhR0_9api_bones4etag5tests20axum_extractor_testss_36if_none_match_missing_is_bad_request
FN:810,_RNvNtNtNtCs1ufPfM0GhR0_9api_bones4etag5tests20axum_extractor_testss_38if_match_missing_header_is_bad_request
FN:122,_RNvMNtCs1ufPfM0GhR0_9api_bones4etagNtB2_4ETag12matches_weak
FN:107,_RNvMNtCs1ufPfM0GhR0_9api_bones4etagNtB2_4ETag7matches
FN:230,_RNvMs3_NtCs1ufPfM0GhR0_9api_bones4etagNtB5_4ETag10parse_list
FN:299,_RNvMs4_NtCs1ufPfM0GhR0_9api_bones4etagNtB5_7IfMatch7matches
FN:350,_RNvMs5_NtCs1ufPfM0GhR0_9api_bones4etagNtB5_11IfNoneMatch7matches
FN:377,_RNvXNtNtCs1ufPfM0GhR0_9api_bones4etag12axum_supportNtB4_4ETagNtNtNtCsgRxEIuGfDXj_9axum_core8response19into_response_parts17IntoResponseParts19into_response_parts
FN:155,_RNvXs0_NtCs1ufPfM0GhR0_9api_bones4etagNtB5_14ParseETagErrorNtNtCsbUtogaBoXXO_4core3fmt7Display3fmt
FN:185,_RNvXs2_NtCs1ufPfM0GhR0_9api_bones4etagNtB5_4ETagNtNtNtCsbUtogaBoXXO_4core3str6traits7FromStr8from_str
FN:128,_RNvXs_NtCs1ufPfM0GhR0_9api_bones4etagNtB4_4ETagNtNtCsbUtogaBoXXO_4core3fmt7Display3fmt
FN:80,_RINvMNtCs6zS5XWhHsrg_9api_bones4etagNtB3_4ETag4weakpEB5_
FN:63,_RINvMNtCs6zS5XWhHsrg_9api_bones4etagNtB3_4ETag6strongpEB5_
FN:429,_RNCNvXININtNtCs6zS5XWhHsrg_9api_bones4etag12axum_supports0_0pENtB9_11IfNoneMatchINtNtCsgRxEIuGfDXj_9axum_core7extract16FromRequestPartspE18from_request_parts0Bb_
FN:412,_RNCNvXININtNtCs6zS5XWhHsrg_9api_bones4etag12axum_supports_0pENtB9_7IfMatchINtNtCsgRxEIuGfDXj_9axum_core7extract16FromRequestPartspE18from_request_parts0Bb_
FN:426,_RNvXININtNtCs6zS5XWhHsrg_9api_bones4etag12axum_supports0_0pENtB7_11IfNoneMatchINtNtCsgRxEIuGfDXj_9axum_core7extract16FromRequestPartspE18from_request_partsB9_
FN:409,_RNvXININtNtCs6zS5XWhHsrg_9api_bones4etag12axum_supports_0pENtB7_7IfMatchINtNtCsgRxEIuGfDXj_9axum_core7extract16FromRequestPartspE18from_request_partsB9_
FN:122,_RNvMNtCs6zS5XWhHsrg_9api_bones4etagNtB2_4ETag12matches_weak
FN:107,_RNvMNtCs6zS5XWhHsrg_9api_bones4etagNtB2_4ETag7matches
FN:230,_RNvMs3_NtCs6zS5XWhHsrg_9api_bones4etagNtB5_4ETag10parse_list
FN:299,_RNvMs4_NtCs6zS5XWhHsrg_9api_bones4etagNtB5_7IfMatch7matches
FN:350,_RNvMs5_NtCs6zS5XWhHsrg_9api_bones4etagNtB5_11IfNoneMatch7matches
FN:377,_RNvXNtNtCs6zS5XWhHsrg_9api_bones4etag12axum_supportNtB4_4ETagNtNtNtCsgRxEIuGfDXj_9axum_core8response19into_response_parts17IntoResponseParts19into_response_parts
FN:155,_RNvXs0_NtCs6zS5XWhHsrg_9api_bones4etagNtB5_14ParseETagErrorNtNtCsbUtogaBoXXO_4core3fmt7Display3fmt
FN:185,_RNvXs2_NtCs6zS5XWhHsrg_9api_bones4etagNtB5_4ETagNtNtNtCsbUtogaBoXXO_4core3str6traits7FromStr8from_str
FN:128,_RNvXs_NtCs6zS5XWhHsrg_9api_bones4etagNtB4_4ETagNtNtCsbUtogaBoXXO_4core3fmt7Display3fmt
FN:302,_RNCNvMs4_NtCs6zS5XWhHsrg_9api_bones4etagNtB7_7IfMatch7matches0B9_
FN:355,_RNCNvMs5_NtCs6zS5XWhHsrg_9api_bones4etagNtB7_11IfNoneMatch7matches0B9_
FN:392,_RNCNvNtNtCs6zS5XWhHsrg_9api_bones4etag12axum_support10header_str0B7_
FN:394,_RNCNvNtNtCs6zS5XWhHsrg_9api_bones4etag12axum_support10header_strs_0B7_
FN:402,_RNCNvNtNtCs6zS5XWhHsrg_9api_bones4etag12axum_support15parse_condition0B7_
FN:429,_RNCNvXs0_NtNtCs6zS5XWhHsrg_9api_bones4etag12axum_supportNtB9_11IfNoneMatchINtNtCsgRxEIuGfDXj_9axum_core7extract16FromRequestPartsuE18from_request_parts0Cs5kWUJtj7nro_29axum_extractors_and_ratelimit
FN:412,_RNCNvXs_NtNtCs6zS5XWhHsrg_9api_bones4etag12axum_supportNtB8_7IfMatchINtNtCsgRxEIuGfDXj_9axum_core7extract16FromRequestPartsuE18from_request_parts0Cs5kWUJtj7nro_29axum_extractors_and_ratelimit
FN:63,_RINvMNtCs6zS5XWhHsrg_9api_bones4etagNtB3_4ETag6strongReECs5kWUJtj7nro_29axum_extractors_and_ratelimit
FN:426,_RNvXs0_NtNtCs6zS5XWhHsrg_9api_bones4etag12axum_supportNtB7_11IfNoneMatchINtNtCsgRxEIuGfDXj_9axum_core7extract16FromRequestPartsuE18from_request_partsCs5kWUJtj7nro_29axum_extractors_and_ratelimit
FN:409,_RNvXs_NtNtCs6zS5XWhHsrg_9api_bones4etag12axum_supportNtB6_7IfMatchINtNtCsgRxEIuGfDXj_9axum_core7extract16FromRequestPartsuE18from_request_partsCs5kWUJtj7nro_29axum_extractors_and_ratelimit
FN:385,_RNvNtNtCs6zS5XWhHsrg_9api_bones4etag12axum_support10header_str
FN:397,_RNvNtNtCs6zS5XWhHsrg_9api_bones4etag12axum_support15parse_condition
FN:80,_RINvMNtCs6zS5XWhHsrg_9api_bones4etagNtB3_4ETag4weakReECs2LPzGXAJze3_4etag
FN:63,_RINvMNtCs6zS5XWhHsrg_9api_bones4etagNtB3_4ETag6strongReECs2LPzGXAJze3_4etag
FN:80,_RINvMNtCs6zS5XWhHsrg_9api_bones4etagNtB3_4ETag4weakReECs6NOnouCyiup_16etag_conditional
FN:63,_RINvMNtCs6zS5XWhHsrg_9api_bones4etagNtB3_4ETag6strongReECs6NOnouCyiup_16etag_conditional
FNDA:4,_RNCNvNtNtNtCs1ufPfM0GhR0_9api_bones4etag5tests20axum_extractor_tests16extract_if_match0B9_
FNDA:3,_RNCNvNtNtNtCs1ufPfM0GhR0_9api_bones4etag5tests20axum_extractor_tests21extract_if_none_match0B9_
FNDA:1,_RNCNvNtNtNtCs1ufPfM0GhR0_9api_bones4etag5tests20axum_extractor_testss_17if_match_tag_list0B9_
FNDA:1,_RNCNvNtNtNtCs1ufPfM0GhR0_9api_bones4etag5tests20axum_extractor_testss_17if_match_wildcard0B9_
FNDA:1,_RNCNvNtNtNtCs1ufPfM0GhR0_9api_bones4etag5tests20axum_extractor_testss_22if_none_match_tag_list0B9_
FNDA:1,_RNCNvNtNtNtCs1ufPfM0GhR0_9api_bones4etag5tests20axum_extractor_testss_22if_none_match_wildcard0B9_
FNDA:1,_RNCNvNtNtNtCs1ufPfM0GhR0_9api_bones4etag5tests20axum_extractor_testss_33if_match_malformed_is_bad_request0B9_
FNDA:1,_RNCNvNtNtNtCs1ufPfM0GhR0_9api_bones4etag5tests20axum_extractor_testss_34if_match_non_ascii_header_rejected0B9_
FNDA:1,_RNCNvNtNtNtCs1ufPfM0GhR0_9api_bones4etag5tests20axum_extractor_testss_36if_none_match_missing_is_bad_request0B9_
FNDA:1,_RNCNvNtNtNtCs1ufPfM0GhR0_9api_bones4etag5tests20axum_extractor_testss_38if_match_missing_header_is_bad_request0B9_
FNDA:2,_RNCNvNtNtCs1ufPfM0GhR0_9api_bones4etag12axum_support10header_str0B7_
FNDA:1,_RNCNvNtNtCs1ufPfM0GhR0_9api_bones4etag12axum_support10header_strs_0B7_
FNDA:1,_RNCNvNtNtCs1ufPfM0GhR0_9api_bones4etag12axum_support15parse_condition0B7_
FNDA:3,_RNCNvXs0_NtNtCs1ufPfM0GhR0_9api_bones4etag12axum_supportNtB9_11IfNoneMatchINtNtCsgRxEIuGfDXj_9axum_core7extract16FromRequestPartsuE18from_request_parts0Bb_
FNDA:5,_RNCNvXs_NtNtCs1ufPfM0GhR0_9api_bones4etag12axum_supportNtB8_7IfMatchINtNtCsgRxEIuGfDXj_9axum_core7extract16FromRequestPartsuE18from_request_parts0Ba_
FNDA:8,_RNvNtNtCs1ufPfM0GhR0_9api_bones4etag12axum_support10header_str
FNDA:5,_RNvNtNtCs1ufPfM0GhR0_9api_bones4etag12axum_support15parse_condition
FNDA:1,_RNvNtNtCs1ufPfM0GhR0_9api_bones4etag5testss_17etag_weak_display
FNDA:1,_RNvNtNtCs1ufPfM0GhR0_9api_bones4etag5testss_18etag_from_str_weak
FNDA:1,_RNvNtNtCs1ufPfM0GhR0_9api_bones4etag5testss_19etag_strong_display
FNDA:1,_RNvNtNtCs1ufPfM0GhR0_9api_bones4etag5testss_20etag_from_str_strong
FNDA:1,_RNvNtNtCs1ufPfM0GhR0_9api_bones4etag5testss_20etag_round_trip_weak
FNDA:1,_RNvNtNtCs1ufPfM0GhR0_9api_bones4etag5testss_22etag_parse_list_single
FNDA:1,_RNvNtNtCs1ufPfM0GhR0_9api_bones4etag5testss_22etag_round_trip_strong
FNDA:1,_RNvNtNtCs1ufPfM0GhR0_9api_bones4etag5testss_22etag_weak_construction
FNDA:1,_RNvNtNtCs1ufPfM0GhR0_9api_bones4etag5testss_22if_match_tags_no_match
FNDA:1,_RNvNtNtCs1ufPfM0GhR0_9api_bones4etag5testss_24etag_parse_list_multiple
FNDA:1,_RNvNtNtCs1ufPfM0GhR0_9api_bones4etag5testss_24etag_strong_construction
FNDA:1,_RNvNtNtCs1ufPfM0GhR0_9api_bones4etag5testss_26etag_serde_round_trip_weak
FNDA:1,_RNvNtNtCs1ufPfM0GhR0_9api_bones4etag5testss_26if_match_tags_strong_match
FNDA:1,_RNvNtNtCs1ufPfM0GhR0_9api_bones4etag5testss_27etag_from_str_rejects_empty
FNDA:1,_RNvNtNtCs1ufPfM0GhR0_9api_bones4etag5testss_27if_match_any_always_matches
FNDA:1,_RNvNtNtCs1ufPfM0GhR0_9api_bones4etag5testss_28etag_parse_list_empty_errors
FNDA:1,_RNvNtNtCs1ufPfM0GhR0_9api_bones4etag5testss_28etag_serde_round_trip_strong
FNDA:1,_RNvNtNtCs1ufPfM0GhR0_9api_bones4etag5testss_29if_match_any_serde_round_trip
FNDA:1,_RNvNtNtCs1ufPfM0GhR0_9api_bones4etag5testss_30etag_from_str_rejects_unquoted
FNDA:1,_RNvNtNtCs1ufPfM0GhR0_9api_bones4etag5testss_30etag_from_str_trims_whitespace
FNDA:1,_RNvNtNtCs1ufPfM0GhR0_9api_bones4etag5testss_30etag_weak_comparison_both_weak
FNDA:1,_RNvNtNtCs1ufPfM0GhR0_9api_bones4etag5testss_30if_match_tags_serde_round_trip
FNDA:1,_RNvNtNtCs1ufPfM0GhR0_9api_bones4etag5testss_31etag_strong_does_not_match_weak
FNDA:1,_RNvNtNtCs1ufPfM0GhR0_9api_bones4etag5testss_31etag_strong_matches_same_strong
FNDA:1,_RNvNtNtCs1ufPfM0GhR0_9api_bones4etag5testss_31etag_weak_does_not_match_strong
FNDA:1,_RNvNtNtCs1ufPfM0GhR0_9api_bones4etag5testss_33if_none_match_any_never_satisfied
FNDA:1,_RNvNtNtCs1ufPfM0GhR0_9api_bones4etag5testss_34if_none_match_any_serde_round_trip
FNDA:1,_RNvNtNtCs1ufPfM0GhR0_9api_bones4etag5testss_35if_none_match_tags_serde_round_trip
FNDA:1,_RNvNtNtCs1ufPfM0GhR0_9api_bones4etag5testss_36etag_from_str_rejects_embedded_quote
FNDA:1,_RNvNtNtCs1ufPfM0GhR0_9api_bones4etag5testss_36etag_parse_list_propagates_bad_entry
FNDA:1,_RNvNtNtCs1ufPfM0GhR0_9api_bones4etag5testss_37etag_weak_comparison_different_values
FNDA:1,_RNvNtNtCs1ufPfM0GhR0_9api_bones4etag5testss_38if_match_tags_weak_etag_does_not_match
FNDA:1,_RNvNtNtCs1ufPfM0GhR0_9api_bones4etag5testss_41etag_into_response_parts_sets_etag_header
FNDA:1,_RNvNtNtCs1ufPfM0GhR0_9api_bones4etag5testss_42etag_strong_does_not_match_different_value
FNDA:1,_RNvNtNtCs1ufPfM0GhR0_9api_bones4etag5testss_42if_none_match_tags_not_satisfied_both_weak
FNDA:1,_RNvNtNtCs1ufPfM0GhR0_9api_bones4etag5testss_43etag_from_str_rejects_missing_closing_quote
FNDA:1,_RNvNtNtCs1ufPfM0GhR0_9api_bones4etag5testss_44etag_weak_matches_same_value_weak_comparison
FNDA:1,_RNvNtNtCs1ufPfM0GhR0_9api_bones4etag5testss_45if_none_match_tags_satisfied_when_not_present
FNDA:1,_RNvNtNtCs1ufPfM0GhR0_9api_bones4etag5testss_46etag_weak_into_response_parts_sets_etag_header
FNDA:1,_RNvNtNtCs1ufPfM0GhR0_9api_bones4etag5testss_47etag_weak_does_not_match_weak_strong_comparison
FNDA:1,_RNvNtNtCs1ufPfM0GhR0_9api_bones4etag5testss_48if_none_match_tags_not_satisfied_weak_comparison
FNDA:1,_RNvNtNtCs1ufPfM0GhR0_9api_bones4etag5testss_52if_none_match_tags_not_satisfied_when_present_strong
FNDA:23,_RINvMNtCs1ufPfM0GhR0_9api_bones4etagNtB3_4ETag4weakReEB5_
FNDA:36,_RINvMNtCs1ufPfM0GhR0_9api_bones4etagNtB3_4ETag6strongReEB5_
FNDA:5,_RNCNvMs4_NtCs1ufPfM0GhR0_9api_bones4etagNtB7_7IfMatch7matches0B9_
FNDA:4,_RNCNvMs5_NtCs1ufPfM0GhR0_9api_bones4etagNtB7_11IfNoneMatch7matches0B9_
FNDA:3,_RNvXs0_NtNtCs1ufPfM0GhR0_9api_bones4etag12axum_supportNtB7_11IfNoneMatchINtNtCsgRxEIuGfDXj_9axum_core7extract16FromRequestPartsuE18from_request_partsB9_
FNDA:5,_RNvXs_NtNtCs1ufPfM0GhR0_9api_bones4etag12axum_supportNtB6_7IfMatchINtNtCsgRxEIuGfDXj_9axum_core7extract16FromRequestPartsuE18from_request_partsB8_
FNDA:4,_RNvNtNtNtCs1ufPfM0GhR0_9api_bones4etag5tests20axum_extractor_tests16extract_if_match
FNDA:3,_RNvNtNtNtCs1ufPfM0GhR0_9api_bones4etag5tests20axum_extractor_tests21extract_if_none_match
FNDA:1,_RNvNtNtNtCs1ufPfM0GhR0_9api_bones4etag5tests20axum_extractor_testss_17if_match_tag_list
FNDA:1,_RNvNtNtNtCs1ufPfM0GhR0_9api_bones4etag5tests20axum_extractor_testss_17if_match_wildcard
FNDA:1,_RNvNtNtNtCs1ufPfM0GhR0_9api_bones4etag5tests20axum_extractor_testss_22if_none_match_tag_list
FNDA:1,_RNvNtNtNtCs1ufPfM0GhR0_9api_bones4etag5tests20axum_extractor_testss_22if_none_match_wildcard
FNDA:1,_RNvNtNtNtCs1ufPfM0GhR0_9api_bones4etag5tests20axum_extractor_testss_33if_match_malformed_is_bad_request
FNDA:1,_RNvNtNtNtCs1ufPfM0GhR0_9api_bones4etag5tests20axum_extractor_testss_34if_match_non_ascii_header_rejected
FNDA:1,_RNvNtNtNtCs1ufPfM0GhR0_9api_bones4etag5tests20axum_extractor_testss_36if_none_match_missing_is_bad_request
FNDA:1,_RNvNtNtNtCs1ufPfM0GhR0_9api_bones4etag5tests20axum_extractor_testss_38if_match_missing_header_is_bad_request
FNDA:7,_RNvMNtCs1ufPfM0GhR0_9api_bones4etagNtB2_4ETag12matches_weak
FNDA:10,_RNvMNtCs1ufPfM0GhR0_9api_bones4etagNtB2_4ETag7matches
FNDA:8,_RNvMs3_NtCs1ufPfM0GhR0_9api_bones4etagNtB5_4ETag10parse_list
FNDA:6,_RNvMs4_NtCs1ufPfM0GhR0_9api_bones4etagNtB5_7IfMatch7matches
FNDA:5,_RNvMs5_NtCs1ufPfM0GhR0_9api_bones4etagNtB5_11IfNoneMatch7matches
FNDA:2,_RNvXNtNtCs1ufPfM0GhR0_9api_bones4etag12axum_supportNtB4_4ETagNtNtNtCsgRxEIuGfDXj_9axum_core8response19into_response_parts17IntoResponseParts19into_response_parts
FNDA:1,_RNvXs0_NtCs1ufPfM0GhR0_9api_bones4etagNtB5_14ParseETagErrorNtNtCsbUtogaBoXXO_4core3fmt7Display3fmt
FNDA:20,_RNvXs2_NtCs1ufPfM0GhR0_9api_bones4etagNtB5_4ETagNtNtNtCsbUtogaBoXXO_4core3str6traits7FromStr8from_str
FNDA:7,_RNvXs_NtCs1ufPfM0GhR0_9api_bones4etagNtB4_4ETagNtNtCsbUtogaBoXXO_4core3fmt7Display3fmt
FNDA:0,_RINvMNtCs6zS5XWhHsrg_9api_bones4etagNtB3_4ETag4weakpEB5_
FNDA:0,_RINvMNtCs6zS5XWhHsrg_9api_bones4etagNtB3_4ETag6strongpEB5_
FNDA:0,_RNCNvXININtNtCs6zS5XWhHsrg_9api_bones4etag12axum_supports0_0pENtB9_11IfNoneMatchINtNtCsgRxEIuGfDXj_9axum_core7extract16FromRequestPartspE18from_request_parts0Bb_
FNDA:0,_RNCNvXININtNtCs6zS5XWhHsrg_9api_bones4etag12axum_supports_0pENtB9_7IfMatchINtNtCsgRxEIuGfDXj_9axum_core7extract16FromRequestPartspE18from_request_parts0Bb_
FNDA:0,_RNvXININtNtCs6zS5XWhHsrg_9api_bones4etag12axum_supports0_0pENtB7_11IfNoneMatchINtNtCsgRxEIuGfDXj_9axum_core7extract16FromRequestPartspE18from_request_partsB9_
FNDA:0,_RNvXININtNtCs6zS5XWhHsrg_9api_bones4etag12axum_supports_0pENtB7_7IfMatchINtNtCsgRxEIuGfDXj_9axum_core7extract16FromRequestPartspE18from_request_partsB9_
FNDA:0,_RNvMNtCs6zS5XWhHsrg_9api_bones4etagNtB2_4ETag12matches_weak
FNDA:0,_RNvMNtCs6zS5XWhHsrg_9api_bones4etagNtB2_4ETag7matches
FNDA:0,_RNvMs3_NtCs6zS5XWhHsrg_9api_bones4etagNtB5_4ETag10parse_list
FNDA:0,_RNvMs4_NtCs6zS5XWhHsrg_9api_bones4etagNtB5_7IfMatch7matches
FNDA:0,_RNvMs5_NtCs6zS5XWhHsrg_9api_bones4etagNtB5_11IfNoneMatch7matches
FNDA:0,_RNvXNtNtCs6zS5XWhHsrg_9api_bones4etag12axum_supportNtB4_4ETagNtNtNtCsgRxEIuGfDXj_9axum_core8response19into_response_parts17IntoResponseParts19into_response_parts
FNDA:0,_RNvXs0_NtCs6zS5XWhHsrg_9api_bones4etagNtB5_14ParseETagErrorNtNtCsbUtogaBoXXO_4core3fmt7Display3fmt
FNDA:0,_RNvXs2_NtCs6zS5XWhHsrg_9api_bones4etagNtB5_4ETagNtNtNtCsbUtogaBoXXO_4core3str6traits7FromStr8from_str
FNDA:0,_RNvXs_NtCs6zS5XWhHsrg_9api_bones4etagNtB4_4ETagNtNtCsbUtogaBoXXO_4core3fmt7Display3fmt
FNDA:0,_RNCNvMs4_NtCs6zS5XWhHsrg_9api_bones4etagNtB7_7IfMatch7matches0B9_
FNDA:0,_RNCNvMs5_NtCs6zS5XWhHsrg_9api_bones4etagNtB7_11IfNoneMatch7matches0B9_
FNDA:0,_RNCNvNtNtCs6zS5XWhHsrg_9api_bones4etag12axum_support10header_str0B7_
FNDA:0,_RNCNvNtNtCs6zS5XWhHsrg_9api_bones4etag12axum_support10header_strs_0B7_
FNDA:0,_RNCNvNtNtCs6zS5XWhHsrg_9api_bones4etag12axum_support15parse_condition0B7_
FNDA:0,_RNCNvXs0_NtNtCs6zS5XWhHsrg_9api_bones4etag12axum_supportNtB9_11IfNoneMatchINtNtCsgRxEIuGfDXj_9axum_core7extract16FromRequestPartsuE18from_request_parts0Cs5kWUJtj7nro_29axum_extractors_and_ratelimit
FNDA:0,_RNCNvXs_NtNtCs6zS5XWhHsrg_9api_bones4etag12axum_supportNtB8_7IfMatchINtNtCsgRxEIuGfDXj_9axum_core7extract16FromRequestPartsuE18from_request_parts0Cs5kWUJtj7nro_29axum_extractors_and_ratelimit
FNDA:0,_RINvMNtCs6zS5XWhHsrg_9api_bones4etagNtB3_4ETag6strongReECs5kWUJtj7nro_29axum_extractors_and_ratelimit
FNDA:0,_RNvXs0_NtNtCs6zS5XWhHsrg_9api_bones4etag12axum_supportNtB7_11IfNoneMatchINtNtCsgRxEIuGfDXj_9axum_core7extract16FromRequestPartsuE18from_request_partsCs5kWUJtj7nro_29axum_extractors_and_ratelimit
FNDA:0,_RNvXs_NtNtCs6zS5XWhHsrg_9api_bones4etag12axum_supportNtB6_7IfMatchINtNtCsgRxEIuGfDXj_9axum_core7extract16FromRequestPartsuE18from_request_partsCs5kWUJtj7nro_29axum_extractors_and_ratelimit
FNDA:0,_RNvNtNtCs6zS5XWhHsrg_9api_bones4etag12axum_support10header_str
FNDA:0,_RNvNtNtCs6zS5XWhHsrg_9api_bones4etag12axum_support15parse_condition
FNDA:0,_RINvMNtCs6zS5XWhHsrg_9api_bones4etagNtB3_4ETag4weakReECs2LPzGXAJze3_4etag
FNDA:0,_RINvMNtCs6zS5XWhHsrg_9api_bones4etagNtB3_4ETag6strongReECs2LPzGXAJze3_4etag
FNDA:0,_RINvMNtCs6zS5XWhHsrg_9api_bones4etagNtB3_4ETag4weakReECs6NOnouCyiup_16etag_conditional
FNDA:0,_RINvMNtCs6zS5XWhHsrg_9api_bones4etagNtB3_4ETag6strongReECs6NOnouCyiup_16etag_conditional
FNF:84
FNH:84
DA:63,36
DA:64,36
DA:65,36
DA:66,36
DA:67,36
DA:68,36
DA:80,23
DA:81,23
DA:82,23
DA:83,23
DA:84,23
DA:85,23
DA:107,10
DA:108,10
DA:109,10
DA:122,7
DA:123,7
DA:124,7
DA:128,7
DA:129,7
DA:130,3
DA:132,4
DA:134,7
DA:155,1
DA:156,1
DA:157,0
DA:158,1
DA:159,0
DA:161,1
DA:185,20
DA:186,20
DA:187,20
DA:188,2
DA:189,18
DA:191,18
DA:192,4
DA:194,14
DA:197,18
DA:198,18
DA:199,3
DA:200,15
DA:201,15
DA:202,1
DA:203,14
DA:204,14
DA:205,14
DA:206,1
DA:207,13
DA:208,13
DA:209,13
DA:210,13
DA:211,13
DA:212,20
DA:230,8
DA:232,8
DA:233,8
DA:234,8
DA:235,8
DA:236,56
DA:237,5
DA:238,16
DA:239,5
DA:240,5
DA:241,5
DA:242,5
DA:243,0
DA:244,4
DA:246,35
DA:249,7
DA:250,7
DA:251,5
DA:252,2
DA:253,6
DA:254,2
DA:255,4
DA:256,4
DA:257,8
DA:299,6
DA:300,6
DA:301,2
DA:302,5
DA:304,6
DA:350,5
DA:351,5
DA:353,1
DA:355,4
DA:357,5
DA:377,2
DA:378,2
DA:379,2
DA:380,2
DA:381,2
DA:382,2
DA:385,8
DA:386,8
DA:387,8
DA:388,8
DA:389,8
DA:390,8
DA:391,8
DA:392,8
DA:393,6
DA:394,6
DA:395,8
DA:397,5
DA:398,5
DA:399,5
DA:400,2
DA:401,3
DA:402,3
DA:403,2
DA:404,5
DA:409,5
DA:410,5
DA:411,5
DA:412,5
DA:413,5
DA:414,3
DA:415,2
DA:416,1
DA:418,1
DA:420,5
DA:426,3
DA:427,3
DA:428,3
DA:429,3
DA:430,3
DA:431,2
DA:432,2
DA:433,1
DA:435,1
DA:437,3
DA:454,1
DA:455,1
DA:456,1
DA:457,1
DA:458,1
DA:461,1
DA:462,1
DA:463,1
DA:464,1
DA:465,1
DA:472,1
DA:473,1
DA:474,1
DA:477,1
DA:478,1
DA:479,1
DA:486,1
DA:487,1
DA:488,1
DA:489,1
DA:490,1
DA:493,1
DA:494,1
DA:495,1
DA:496,1
DA:497,1
DA:500,1
DA:501,1
DA:502,1
DA:503,1
DA:504,1
DA:507,1
DA:508,1
DA:509,1
DA:510,1
DA:511,1
DA:514,1
DA:515,1
DA:516,1
DA:517,1
DA:518,1
DA:521,1
DA:522,1
DA:523,1
DA:524,1
DA:525,1
DA:528,1
DA:529,1
DA:530,1
DA:531,1
DA:532,1
DA:535,1
DA:536,1
DA:537,1
DA:538,1
DA:539,1
DA:546,1
DA:547,1
DA:548,1
DA:549,1
DA:552,1
DA:553,1
DA:554,1
DA:555,1
DA:556,1
DA:559,1
DA:560,1
DA:561,1
DA:562,1
DA:565,1
DA:566,1
DA:567,1
DA:568,1
DA:575,1
DA:576,1
DA:577,1
DA:580,1
DA:581,1
DA:582,1
DA:583,1
DA:586,1
DA:587,1
DA:588,1
DA:589,1
DA:592,1
DA:593,1
DA:594,1
DA:595,1
DA:598,1
DA:599,1
DA:600,1
DA:601,1
DA:609,1
DA:610,1
DA:611,1
DA:612,1
DA:613,1
DA:614,1
DA:618,1
DA:619,1
DA:620,1
DA:621,1
DA:622,1
DA:623,1
DA:627,1
DA:628,1
DA:629,1
DA:630,1
DA:631,1
DA:632,1
DA:636,1
DA:637,1
DA:638,1
DA:639,1
DA:640,1
DA:641,1
DA:645,1
DA:646,1
DA:647,1
DA:648,1
DA:649,1
DA:650,1
DA:654,1
DA:655,1
DA:656,1
DA:657,1
DA:658,1
DA:659,1
DA:667,1
DA:670,1
DA:671,1
DA:672,1
DA:673,1
DA:681,1
DA:682,1
DA:683,1
DA:684,1
DA:688,1
DA:689,1
DA:690,1
DA:691,1
DA:695,1
DA:696,1
DA:697,1
DA:701,1
DA:702,1
DA:703,1
DA:704,1
DA:708,1
DA:709,1
DA:710,1
DA:714,1
DA:715,1
DA:716,1
DA:720,1
DA:721,1
DA:722,1
DA:723,1
DA:727,1
DA:728,1
DA:729,1
DA:730,1
DA:734,1
DA:735,1
DA:736,1
DA:737,1
DA:741,1
DA:742,1
DA:743,1
DA:744,1
DA:745,1
DA:746,1
DA:747,1
DA:751,1
DA:752,1
DA:753,1
DA:754,1
DA:758,1
DA:759,1
DA:760,1
DA:761,1
DA:765,1
DA:766,1
DA:767,1
DA:775,4
DA:776,4
DA:777,4
DA:778,3
DA:779,3
DA:780,4
DA:781,4
DA:782,4
DA:783,4
DA:785,3
DA:786,3
DA:787,3
DA:788,2
DA:789,2
DA:790,3
DA:791,3
DA:792,3
DA:793,3
DA:798,1
DA:799,1
DA:800,1
DA:801,1
DA:804,1
DA:805,1
DA:806,1
DA:807,1
DA:810,1
DA:811,1
DA:812,1
DA:813,1
DA:816,1
DA:817,1
DA:818,1
DA:819,1
DA:822,1
DA:823,1
DA:824,1
DA:825,1
DA:828,1
DA:829,1
DA:830,1
DA:831,1
DA:834,1
DA:836,1
DA:837,1
DA:838,1
DA:839,1
DA:840,1
DA:841,1
DA:842,1
DA:843,1
DA:844,1
DA:845,1
DA:848,1
DA:849,1
DA:850,1
DA:851,1
DA:856,1
DA:859,1
DA:860,1
DA:861,1
DA:862,1
BRF:0
BRH:0
LF:403
LH:400
end_of_record
SF:/Users/gsalingu/git/api-bones/.claude/worktrees/feat+211-nested-org-adr/src/fake_impls.rs
FN:40,_RINvNtCs1ufPfM0GhR0_9api_bones10fake_impls12gen_alphanumpEB4_
FN:45,_RINvNtCs1ufPfM0GhR0_9api_bones10fake_impls7gen_strpEB4_
FN:50,_RINvNtCs1ufPfM0GhR0_9api_bones10fake_impls7gen_urlpEB4_
FN:293,_RINvXININtCs1ufPfM0GhR0_9api_bones10fake_implssb_0pEINtNtB8_10pagination17PaginatedResponsepEINtCs8AlwinX4Uo_4fake5DummyNtB1w_5FakerE14dummy_with_rngpEB8_
FN:341,_RINvXININtCs1ufPfM0GhR0_9api_bones10fake_implsse_0pEINtNtB8_10pagination23CursorPaginatedResponsepEINtCs8AlwinX4Uo_4fake5DummyNtB1C_5FakerE14dummy_with_rngpEB8_
FN:544,_RINvXININtCs1ufPfM0GhR0_9api_bones10fake_implssp_0pEINtNtB8_8response11ApiResponsepEINtCs8AlwinX4Uo_4fake5DummyNtB1n_5FakerE14dummy_with_rngpEB8_
FN:565,_RINvXININtCs1ufPfM0GhR0_9api_bones10fake_implssq_0pEINtNtB8_4bulk11BulkRequestpEINtCs8AlwinX4Uo_4fake5DummyNtB1j_5FakerE14dummy_with_rngpEB8_
FN:573,_RINvXININtCs1ufPfM0GhR0_9api_bones10fake_implssr_0pEINtNtB8_4bulk14BulkItemResultpEINtCs8AlwinX4Uo_4fake5DummyNtB1m_5FakerE14dummy_with_rngpEB8_
FN:588,_RINvXININtCs1ufPfM0GhR0_9api_bones10fake_implsss_0pEINtNtB8_4bulk12BulkResponsepEINtCs8AlwinX4Uo_4fake5DummyNtB1k_5FakerE14dummy_with_rngpEB8_
FN:59,_RINvXNtCs1ufPfM0GhR0_9api_bones10fake_implsNtNtB5_5error9ErrorCodeINtCs8AlwinX4Uo_4fake5DummyNtB15_5FakerE14dummy_with_rngpEB5_
FN:96,_RINvXs0_NtCs1ufPfM0GhR0_9api_bones10fake_implsNtNtB8_5error15ValidationErrorINtCs8AlwinX4Uo_4fake5DummyNtB1f_5FakerE14dummy_with_rngpEB8_
FN:110,_RINvXs1_NtCs1ufPfM0GhR0_9api_bones10fake_implsNtNtB8_5error8ApiErrorINtCs8AlwinX4Uo_4fake5DummyNtB17_5FakerE14dummy_with_rngpEB8_
FN:148,_RINvXs2_NtCs1ufPfM0GhR0_9api_bones10fake_implsNtNtB8_4etag4ETagINtCs8AlwinX4Uo_4fake5DummyNtB12_5FakerE14dummy_with_rngpEB8_
FN:157,_RINvXs3_NtCs1ufPfM0GhR0_9api_bones10fake_implsNtNtB8_4etag7IfMatchINtCs8AlwinX4Uo_4fake5DummyNtB15_5FakerE14dummy_with_rngpEB8_
FN:172,_RINvXs4_NtCs1ufPfM0GhR0_9api_bones10fake_implsNtNtB8_4etag11IfNoneMatchINtCs8AlwinX4Uo_4fake5DummyNtB1a_5FakerE14dummy_with_rngpEB8_
FN:191,_RINvXs5_NtCs1ufPfM0GhR0_9api_bones10fake_implsNtNtB8_6health12HealthStatusINtCs8AlwinX4Uo_4fake5DummyNtB1d_5FakerE14dummy_with_rngpEB8_
FN:201,_RINvXs6_NtCs1ufPfM0GhR0_9api_bones10fake_implsNtNtB8_6health11HealthCheckINtCs8AlwinX4Uo_4fake5DummyNtB1c_5FakerE14dummy_with_rngpEB8_
FN:220,_RINvXs7_NtCs1ufPfM0GhR0_9api_bones10fake_implsNtNtB8_6health16LivenessResponseINtCs8AlwinX4Uo_4fake5DummyNtB1h_5FakerE14dummy_with_rngpEB8_
FN:235,_RINvXs8_NtCs1ufPfM0GhR0_9api_bones10fake_implsNtNtB8_6health17ReadinessResponseINtCs8AlwinX4Uo_4fake5DummyNtB1i_5FakerE14dummy_with_rngpEB8_
FN:265,_RINvXs9_NtCs1ufPfM0GhR0_9api_bones10fake_implsNtNtB8_5links4LinkINtCs8AlwinX4Uo_4fake5DummyNtB13_5FakerE14dummy_with_rngpEB8_
FN:82,_RINvXs_NtCs1ufPfM0GhR0_9api_bones10fake_implsNtNtB7_5error13ErrorTypeModeINtCs8AlwinX4Uo_4fake5DummyNtB1c_5FakerE14dummy_with_rngpEB7_
FN:278,_RINvXsa_NtCs1ufPfM0GhR0_9api_bones10fake_implsNtNtB8_5links5LinksINtCs8AlwinX4Uo_4fake5DummyNtB14_5FakerE14dummy_with_rngpEB8_
FN:309,_RINvXsc_NtCs1ufPfM0GhR0_9api_bones10fake_implsNtNtB8_10pagination16PaginationParamsINtCs8AlwinX4Uo_4fake5DummyNtB1m_5FakerE14dummy_with_rngpEB8_
FN:327,_RINvXsd_NtCs1ufPfM0GhR0_9api_bones10fake_implsNtNtB8_10pagination16CursorPaginationINtCs8AlwinX4Uo_4fake5DummyNtB1m_5FakerE14dummy_with_rngpEB8_
FN:352,_RINvXsf_NtCs1ufPfM0GhR0_9api_bones10fake_implsNtNtB8_10pagination22CursorPaginationParamsINtCs8AlwinX4Uo_4fake5DummyNtB1s_5FakerE14dummy_with_rngpEB8_
FN:374,_RINvXsg_NtCs1ufPfM0GhR0_9api_bones10fake_implsNtNtB8_5query13SortDirectionINtCs8AlwinX4Uo_4fake5DummyNtB1d_5FakerE14dummy_with_rngpEB8_
FN:384,_RINvXsh_NtCs1ufPfM0GhR0_9api_bones10fake_implsNtNtB8_5query10SortParamsINtCs8AlwinX4Uo_4fake5DummyNtB1a_5FakerE14dummy_with_rngpEB8_
FN:390,_RINvXsi_NtCs1ufPfM0GhR0_9api_bones10fake_implsNtNtB8_5query11FilterEntryINtCs8AlwinX4Uo_4fake5DummyNtB1b_5FakerE14dummy_with_rngpEB8_
FN:401,_RINvXsj_NtCs1ufPfM0GhR0_9api_bones10fake_implsNtNtB8_5query12FilterParamsINtCs8AlwinX4Uo_4fake5DummyNtB1c_5FakerE14dummy_with_rngpEB8_
FN:408,_RINvXsk_NtCs1ufPfM0GhR0_9api_bones10fake_implsNtNtB8_5query12SearchParamsINtCs8AlwinX4Uo_4fake5DummyNtB1c_5FakerE14dummy_with_rngpEB8_
FN:427,_RINvXsl_NtCs1ufPfM0GhR0_9api_bones10fake_implsNtNtB8_9ratelimit13RateLimitInfoINtCs8AlwinX4Uo_4fake5DummyNtB1h_5FakerE14dummy_with_rngpEB8_
FN:445,_RINvXsm_NtCs1ufPfM0GhR0_9api_bones10fake_implsNtNtB8_5audit9PrincipalINtCs8AlwinX4Uo_4fake5DummyNtB18_5FakerE14dummy_with_rngpEB8_
FN:474,_RINvXsn_NtCs1ufPfM0GhR0_9api_bones10fake_implsNtNtB8_5audit9AuditInfoINtCs8AlwinX4Uo_4fake5DummyNtB18_5FakerE14dummy_with_rngpEB8_
FN:520,_RINvXso_NtCs1ufPfM0GhR0_9api_bones10fake_implsNtNtB8_8response12ResponseMetaINtCs8AlwinX4Uo_4fake5DummyNtB1f_5FakerE14dummy_with_rngpEB8_
FN:601,_RINvXst_NtCs1ufPfM0GhR0_9api_bones10fake_implsNtNtB8_4slug4SlugINtCs8AlwinX4Uo_4fake5DummyNtB12_5FakerE14dummy_with_rngpEB8_
FN:295,_RNCINvXININtCs1ufPfM0GhR0_9api_bones10fake_implssb_0pEINtNtBa_10pagination17PaginatedResponsepEINtCs8AlwinX4Uo_4fake5DummyNtB1y_5FakerE14dummy_with_rngpE0Ba_
FN:343,_RNCINvXININtCs1ufPfM0GhR0_9api_bones10fake_implsse_0pEINtNtBa_10pagination23CursorPaginatedResponsepEINtCs8AlwinX4Uo_4fake5DummyNtB1E_5FakerE14dummy_with_rngpE0Ba_
FN:567,_RNCINvXININtCs1ufPfM0GhR0_9api_bones10fake_implssq_0pEINtNtBa_4bulk11BulkRequestpEINtCs8AlwinX4Uo_4fake5DummyNtB1l_5FakerE14dummy_with_rngpE0Ba_
FN:591,_RNCINvXININtCs1ufPfM0GhR0_9api_bones10fake_implsss_0pEINtNtBa_4bulk12BulkResponsepEINtCs8AlwinX4Uo_4fake5DummyNtB1m_5FakerE14dummy_with_rngpE0Ba_
FN:118,_RNCINvXs1_NtCs1ufPfM0GhR0_9api_bones10fake_implsNtNtBa_5error8ApiErrorINtCs8AlwinX4Uo_4fake5DummyNtB19_5FakerE14dummy_with_rngpE0Ba_
FN:164,_RNCINvXs3_NtCs1ufPfM0GhR0_9api_bones10fake_implsNtNtBa_4etag7IfMatchINtCs8AlwinX4Uo_4fake5DummyNtB17_5FakerE14dummy_with_rngpE0Ba_
FN:179,_RNCINvXs4_NtCs1ufPfM0GhR0_9api_bones10fake_implsNtNtBa_4etag11IfNoneMatchINtCs8AlwinX4Uo_4fake5DummyNtB1c_5FakerE14dummy_with_rngpE0Ba_
FN:243,_RNCINvXs8_NtCs1ufPfM0GhR0_9api_bones10fake_implsNtNtBa_6health17ReadinessResponseINtCs8AlwinX4Uo_4fake5DummyNtB1k_5FakerE14dummy_with_rngpE0Ba_
FN:403,_RNCINvXsj_NtCs1ufPfM0GhR0_9api_bones10fake_implsNtNtBa_5query12FilterParamsINtCs8AlwinX4Uo_4fake5DummyNtB1e_5FakerE14dummy_with_rngpE0Ba_
FN:413,_RNCINvXsk_NtCs1ufPfM0GhR0_9api_bones10fake_implsNtNtBa_5query12SearchParamsINtCs8AlwinX4Uo_4fake5DummyNtB1e_5FakerE14dummy_with_rngpE0Ba_
FN:605,_RNCINvXst_NtCs1ufPfM0GhR0_9api_bones10fake_implsNtNtBa_4slug4SlugINtCs8AlwinX4Uo_4fake5DummyNtB14_5FakerE14dummy_with_rngpE0Ba_
FN:608,_RNCNCINvXst_NtCs1ufPfM0GhR0_9api_bones10fake_implsNtNtBc_4slug4SlugINtCs8AlwinX4Uo_4fake5DummyNtB16_5FakerE14dummy_with_rngpE00Bc_
FN:40,_RINvNtCs6zS5XWhHsrg_9api_bones10fake_impls12gen_alphanumpEB4_
FN:45,_RINvNtCs6zS5XWhHsrg_9api_bones10fake_impls7gen_strpEB4_
FN:50,_RINvNtCs6zS5XWhHsrg_9api_bones10fake_impls7gen_urlpEB4_
FN:293,_RINvXININtCs6zS5XWhHsrg_9api_bones10fake_implssb_0pEINtNtB8_10pagination17PaginatedResponsepEINtCs8AlwinX4Uo_4fake5DummyNtB1w_5FakerE14dummy_with_rngpEB8_
FN:341,_RINvXININtCs6zS5XWhHsrg_9api_bones10fake_implsse_0pEINtNtB8_10pagination23CursorPaginatedResponsepEINtCs8AlwinX4Uo_4fake5DummyNtB1C_5FakerE14dummy_with_rngpEB8_
FN:544,_RINvXININtCs6zS5XWhHsrg_9api_bones10fake_implssp_0pEINtNtB8_8response11ApiResponsepEINtCs8AlwinX4Uo_4fake5DummyNtB1n_5FakerE14dummy_with_rngpEB8_
FN:565,_RINvXININtCs6zS5XWhHsrg_9api_bones10fake_implssq_0pEINtNtB8_4bulk11BulkRequestpEINtCs8AlwinX4Uo_4fake5DummyNtB1j_5FakerE14dummy_with_rngpEB8_
FN:573,_RINvXININtCs6zS5XWhHsrg_9api_bones10fake_implssr_0pEINtNtB8_4bulk14BulkItemResultpEINtCs8AlwinX4Uo_4fake5DummyNtB1m_5FakerE14dummy_with_rngpEB8_
FN:588,_RINvXININtCs6zS5XWhHsrg_9api_bones10fake_implsss_0pEINtNtB8_4bulk12BulkResponsepEINtCs8AlwinX4Uo_4fake5DummyNtB1k_5FakerE14dummy_with_rngpEB8_
FN:59,_RINvXNtCs6zS5XWhHsrg_9api_bones10fake_implsNtNtB5_5error9ErrorCodeINtCs8AlwinX4Uo_4fake5DummyNtB15_5FakerE14dummy_with_rngpEB5_
FN:96,_RINvXs0_NtCs6zS5XWhHsrg_9api_bones10fake_implsNtNtB8_5error15ValidationErrorINtCs8AlwinX4Uo_4fake5DummyNtB1f_5FakerE14dummy_with_rngpEB8_
FN:110,_RINvXs1_NtCs6zS5XWhHsrg_9api_bones10fake_implsNtNtB8_5error8ApiErrorINtCs8AlwinX4Uo_4fake5DummyNtB17_5FakerE14dummy_with_rngpEB8_
FN:148,_RINvXs2_NtCs6zS5XWhHsrg_9api_bones10fake_implsNtNtB8_4etag4ETagINtCs8AlwinX4Uo_4fake5DummyNtB12_5FakerE14dummy_with_rngpEB8_
FN:157,_RINvXs3_NtCs6zS5XWhHsrg_9api_bones10fake_implsNtNtB8_4etag7IfMatchINtCs8AlwinX4Uo_4fake5DummyNtB15_5FakerE14dummy_with_rngpEB8_
FN:172,_RINvXs4_NtCs6zS5XWhHsrg_9api_bones10fake_implsNtNtB8_4etag11IfNoneMatchINtCs8AlwinX4Uo_4fake5DummyNtB1a_5FakerE14dummy_with_rngpEB8_
FN:191,_RINvXs5_NtCs6zS5XWhHsrg_9api_bones10fake_implsNtNtB8_6health12HealthStatusINtCs8AlwinX4Uo_4fake5DummyNtB1d_5FakerE14dummy_with_rngpEB8_
FN:201,_RINvXs6_NtCs6zS5XWhHsrg_9api_bones10fake_implsNtNtB8_6health11HealthCheckINtCs8AlwinX4Uo_4fake5DummyNtB1c_5FakerE14dummy_with_rngpEB8_
FN:220,_RINvXs7_NtCs6zS5XWhHsrg_9api_bones10fake_implsNtNtB8_6health16LivenessResponseINtCs8AlwinX4Uo_4fake5DummyNtB1h_5FakerE14dummy_with_rngpEB8_
FN:235,_RINvXs8_NtCs6zS5XWhHsrg_9api_bones10fake_implsNtNtB8_6health17ReadinessResponseINtCs8AlwinX4Uo_4fake5DummyNtB1i_5FakerE14dummy_with_rngpEB8_
FN:265,_RINvXs9_NtCs6zS5XWhHsrg_9api_bones10fake_implsNtNtB8_5links4LinkINtCs8AlwinX4Uo_4fake5DummyNtB13_5FakerE14dummy_with_rngpEB8_
FN:82,_RINvXs_NtCs6zS5XWhHsrg_9api_bones10fake_implsNtNtB7_5error13ErrorTypeModeINtCs8AlwinX4Uo_4fake5DummyNtB1c_5FakerE14dummy_with_rngpEB7_
FN:278,_RINvXsa_NtCs6zS5XWhHsrg_9api_bones10fake_implsNtNtB8_5links5LinksINtCs8AlwinX4Uo_4fake5DummyNtB14_5FakerE14dummy_with_rngpEB8_
FN:309,_RINvXsc_NtCs6zS5XWhHsrg_9api_bones10fake_implsNtNtB8_10pagination16PaginationParamsINtCs8AlwinX4Uo_4fake5DummyNtB1m_5FakerE14dummy_with_rngpEB8_
FN:327,_RINvXsd_NtCs6zS5XWhHsrg_9api_bones10fake_implsNtNtB8_10pagination16CursorPaginationINtCs8AlwinX4Uo_4fake5DummyNtB1m_5FakerE14dummy_with_rngpEB8_
FN:352,_RINvXsf_NtCs6zS5XWhHsrg_9api_bones10fake_implsNtNtB8_10pagination22CursorPaginationParamsINtCs8AlwinX4Uo_4fake5DummyNtB1s_5FakerE14dummy_with_rngpEB8_
FN:374,_RINvXsg_NtCs6zS5XWhHsrg_9api_bones10fake_implsNtNtB8_5query13SortDirectionINtCs8AlwinX4Uo_4fake5DummyNtB1d_5FakerE14dummy_with_rngpEB8_
FN:384,_RINvXsh_NtCs6zS5XWhHsrg_9api_bones10fake_implsNtNtB8_5query10SortParamsINtCs8AlwinX4Uo_4fake5DummyNtB1a_5FakerE14dummy_with_rngpEB8_
FN:390,_RINvXsi_NtCs6zS5XWhHsrg_9api_bones10fake_implsNtNtB8_5query11FilterEntryINtCs8AlwinX4Uo_4fake5DummyNtB1b_5FakerE14dummy_with_rngpEB8_
FN:401,_RINvXsj_NtCs6zS5XWhHsrg_9api_bones10fake_implsNtNtB8_5query12FilterParamsINtCs8AlwinX4Uo_4fake5DummyNtB1c_5FakerE14dummy_with_rngpEB8_
FN:408,_RINvXsk_NtCs6zS5XWhHsrg_9api_bones10fake_implsNtNtB8_5query12SearchParamsINtCs8AlwinX4Uo_4fake5DummyNtB1c_5FakerE14dummy_with_rngpEB8_
FN:427,_RINvXsl_NtCs6zS5XWhHsrg_9api_bones10fake_implsNtNtB8_9ratelimit13RateLimitInfoINtCs8AlwinX4Uo_4fake5DummyNtB1h_5FakerE14dummy_with_rngpEB8_
FN:445,_RINvXsm_NtCs6zS5XWhHsrg_9api_bones10fake_implsNtNtB8_5audit9PrincipalINtCs8AlwinX4Uo_4fake5DummyNtB18_5FakerE14dummy_with_rngpEB8_
FN:474,_RINvXsn_NtCs6zS5XWhHsrg_9api_bones10fake_implsNtNtB8_5audit9AuditInfoINtCs8AlwinX4Uo_4fake5DummyNtB18_5FakerE14dummy_with_rngpEB8_
FN:520,_RINvXso_NtCs6zS5XWhHsrg_9api_bones10fake_implsNtNtB8_8response12ResponseMetaINtCs8AlwinX4Uo_4fake5DummyNtB1f_5FakerE14dummy_with_rngpEB8_
FN:601,_RINvXst_NtCs6zS5XWhHsrg_9api_bones10fake_implsNtNtB8_4slug4SlugINtCs8AlwinX4Uo_4fake5DummyNtB12_5FakerE14dummy_with_rngpEB8_
FN:295,_RNCINvXININtCs6zS5XWhHsrg_9api_bones10fake_implssb_0pEINtNtBa_10pagination17PaginatedResponsepEINtCs8AlwinX4Uo_4fake5DummyNtB1y_5FakerE14dummy_with_rngpE0Ba_
FN:343,_RNCINvXININtCs6zS5XWhHsrg_9api_bones10fake_implsse_0pEINtNtBa_10pagination23CursorPaginatedResponsepEINtCs8AlwinX4Uo_4fake5DummyNtB1E_5FakerE14dummy_with_rngpE0Ba_
FN:567,_RNCINvXININtCs6zS5XWhHsrg_9api_bones10fake_implssq_0pEINtNtBa_4bulk11BulkRequestpEINtCs8AlwinX4Uo_4fake5DummyNtB1l_5FakerE14dummy_with_rngpE0Ba_
FN:591,_RNCINvXININtCs6zS5XWhHsrg_9api_bones10fake_implsss_0pEINtNtBa_4bulk12BulkResponsepEINtCs8AlwinX4Uo_4fake5DummyNtB1m_5FakerE14dummy_with_rngpE0Ba_
FN:118,_RNCINvXs1_NtCs6zS5XWhHsrg_9api_bones10fake_implsNtNtBa_5error8ApiErrorINtCs8AlwinX4Uo_4fake5DummyNtB19_5FakerE14dummy_with_rngpE0Ba_
FN:164,_RNCINvXs3_NtCs6zS5XWhHsrg_9api_bones10fake_implsNtNtBa_4etag7IfMatchINtCs8AlwinX4Uo_4fake5DummyNtB17_5FakerE14dummy_with_rngpE0Ba_
FN:179,_RNCINvXs4_NtCs6zS5XWhHsrg_9api_bones10fake_implsNtNtBa_4etag11IfNoneMatchINtCs8AlwinX4Uo_4fake5DummyNtB1c_5FakerE14dummy_with_rngpE0Ba_
FN:243,_RNCINvXs8_NtCs6zS5XWhHsrg_9api_bones10fake_implsNtNtBa_6health17ReadinessResponseINtCs8AlwinX4Uo_4fake5DummyNtB1k_5FakerE14dummy_with_rngpE0Ba_
FN:403,_RNCINvXsj_NtCs6zS5XWhHsrg_9api_bones10fake_implsNtNtBa_5query12FilterParamsINtCs8AlwinX4Uo_4fake5DummyNtB1e_5FakerE14dummy_with_rngpE0Ba_
FN:413,_RNCINvXsk_NtCs6zS5XWhHsrg_9api_bones10fake_implsNtNtBa_5query12SearchParamsINtCs8AlwinX4Uo_4fake5DummyNtB1e_5FakerE14dummy_with_rngpE0Ba_
FN:605,_RNCINvXst_NtCs6zS5XWhHsrg_9api_bones10fake_implsNtNtBa_4slug4SlugINtCs8AlwinX4Uo_4fake5DummyNtB14_5FakerE14dummy_with_rngpE0Ba_
FN:608,_RNCNCINvXst_NtCs6zS5XWhHsrg_9api_bones10fake_implsNtNtBc_4slug4SlugINtCs8AlwinX4Uo_4fake5DummyNtB16_5FakerE14dummy_with_rngpE00Bc_
FN:148,_RINvXs2_NtCs6zS5XWhHsrg_9api_bones10fake_implsNtNtB8_4etag4ETagINtCs8AlwinX4Uo_4fake5DummyNtB12_5FakerE14dummy_with_rngNtNtNtCskvAakn1YBCQ_4rand4rngs6thread9ThreadRngECs52cul6wXlX0_10fake_smoke
FN:157,_RINvXs3_NtCs6zS5XWhHsrg_9api_bones10fake_implsNtNtB8_4etag7IfMatchINtCs8AlwinX4Uo_4fake5DummyNtB15_5FakerE14dummy_with_rngNtNtNtCskvAakn1YBCQ_4rand4rngs6thread9ThreadRngECs52cul6wXlX0_10fake_smoke
FN:172,_RINvXs4_NtCs6zS5XWhHsrg_9api_bones10fake_implsNtNtB8_4etag11IfNoneMatchINtCs8AlwinX4Uo_4fake5DummyNtB1a_5FakerE14dummy_with_rngNtNtNtCskvAakn1YBCQ_4rand4rngs6thread9ThreadRngECs52cul6wXlX0_10fake_smoke
FN:565,_RINvXsq_NtCs6zS5XWhHsrg_9api_bones10fake_implsINtNtB8_4bulk11BulkRequestmEINtCs8AlwinX4Uo_4fake5DummyNtB1d_5FakerE14dummy_with_rngNtNtNtCskvAakn1YBCQ_4rand4rngs6thread9ThreadRngECs52cul6wXlX0_10fake_smoke
FN:573,_RINvXsr_NtCs6zS5XWhHsrg_9api_bones10fake_implsINtNtB8_4bulk14BulkItemResultmEINtCs8AlwinX4Uo_4fake5DummyNtB1g_5FakerE14dummy_with_rngNtNtNtCskvAakn1YBCQ_4rand4rngs6thread9ThreadRngECs52cul6wXlX0_10fake_smoke
FN:588,_RINvXss_NtCs6zS5XWhHsrg_9api_bones10fake_implsINtNtB8_4bulk12BulkResponsemEINtCs8AlwinX4Uo_4fake5DummyNtB1e_5FakerE14dummy_with_rngNtNtNtCskvAakn1YBCQ_4rand4rngs6thread9ThreadRngECs52cul6wXlX0_10fake_smoke
FN:59,_RINvXNtCs6zS5XWhHsrg_9api_bones10fake_implsNtNtB5_5error9ErrorCodeINtCs8AlwinX4Uo_4fake5DummyNtB15_5FakerE14dummy_with_rngNtNtNtCskvAakn1YBCQ_4rand4rngs6thread9ThreadRngECs52cul6wXlX0_10fake_smoke
FN:96,_RINvXs0_NtCs6zS5XWhHsrg_9api_bones10fake_implsNtNtB8_5error15ValidationErrorINtCs8AlwinX4Uo_4fake5DummyNtB1f_5FakerE14dummy_with_rngNtNtNtCskvAakn1YBCQ_4rand4rngs6thread9ThreadRngECs52cul6wXlX0_10fake_smoke
FN:110,_RINvXs1_NtCs6zS5XWhHsrg_9api_bones10fake_implsNtNtB8_5error8ApiErrorINtCs8AlwinX4Uo_4fake5DummyNtB17_5FakerE14dummy_with_rngNtNtNtCskvAakn1YBCQ_4rand4rngs6thread9ThreadRngECs52cul6wXlX0_10fake_smoke
FN:82,_RINvXs_NtCs6zS5XWhHsrg_9api_bones10fake_implsNtNtB7_5error13ErrorTypeModeINtCs8AlwinX4Uo_4fake5DummyNtB1c_5FakerE14dummy_with_rngNtNtNtCskvAakn1YBCQ_4rand4rngs6thread9ThreadRngECs52cul6wXlX0_10fake_smoke
FN:601,_RINvXst_NtCs6zS5XWhHsrg_9api_bones10fake_implsNtNtB8_4slug4SlugINtCs8AlwinX4Uo_4fake5DummyNtB12_5FakerE14dummy_with_rngNtNtNtCskvAakn1YBCQ_4rand4rngs6thread9ThreadRngECs52cul6wXlX0_10fake_smoke
FN:374,_RINvXsg_NtCs6zS5XWhHsrg_9api_bones10fake_implsNtNtB8_5query13SortDirectionINtCs8AlwinX4Uo_4fake5DummyNtB1d_5FakerE14dummy_with_rngNtNtNtCskvAakn1YBCQ_4rand4rngs6thread9ThreadRngECs52cul6wXlX0_10fake_smoke
FN:384,_RINvXsh_NtCs6zS5XWhHsrg_9api_bones10fake_implsNtNtB8_5query10SortParamsINtCs8AlwinX4Uo_4fake5DummyNtB1a_5FakerE14dummy_with_rngNtNtNtCskvAakn1YBCQ_4rand4rngs6thread9ThreadRngECs52cul6wXlX0_10fake_smoke
FN:390,_RINvXsi_NtCs6zS5XWhHsrg_9api_bones10fake_implsNtNtB8_5query11FilterEntryINtCs8AlwinX4Uo_4fake5DummyNtB1b_5FakerE14dummy_with_rngNtNtNtCskvAakn1YBCQ_4rand4rngs6thread9ThreadRngECs52cul6wXlX0_10fake_smoke
FN:401,_RINvXsj_NtCs6zS5XWhHsrg_9api_bones10fake_implsNtNtB8_5query12FilterParamsINtCs8AlwinX4Uo_4fake5DummyNtB1c_5FakerE14dummy_with_rngNtNtNtCskvAakn1YBCQ_4rand4rngs6thread9ThreadRngECs52cul6wXlX0_10fake_smoke
FN:408,_RINvXsk_NtCs6zS5XWhHsrg_9api_bones10fake_implsNtNtB8_5query12SearchParamsINtCs8AlwinX4Uo_4fake5DummyNtB1c_5FakerE14dummy_with_rngNtNtNtCskvAakn1YBCQ_4rand4rngs6thread9ThreadRngECs52cul6wXlX0_10fake_smoke
FN:40,_RINvNtCs6zS5XWhHsrg_9api_bones10fake_impls12gen_alphanumNtNtNtCskvAakn1YBCQ_4rand4rngs6thread9ThreadRngECs52cul6wXlX0_10fake_smoke
FN:45,_RINvNtCs6zS5XWhHsrg_9api_bones10fake_impls7gen_strNtNtNtCskvAakn1YBCQ_4rand4rngs6thread9ThreadRngECs52cul6wXlX0_10fake_smoke
FN:50,_RINvNtCs6zS5XWhHsrg_9api_bones10fake_impls7gen_urlNtNtNtCskvAakn1YBCQ_4rand4rngs6thread9ThreadRngECs52cul6wXlX0_10fake_smoke
FN:118,_RNCINvXs1_NtCs6zS5XWhHsrg_9api_bones10fake_implsNtNtBa_5error8ApiErrorINtCs8AlwinX4Uo_4fake5DummyNtB19_5FakerE14dummy_with_rngNtNtNtCskvAakn1YBCQ_4rand4rngs6thread9ThreadRngE0Cs52cul6wXlX0_10fake_smoke
FN:164,_RNCINvXs3_NtCs6zS5XWhHsrg_9api_bones10fake_implsNtNtBa_4etag7IfMatchINtCs8AlwinX4Uo_4fake5DummyNtB17_5FakerE14dummy_with_rngNtNtNtCskvAakn1YBCQ_4rand4rngs6thread9ThreadRngE0Cs52cul6wXlX0_10fake_smoke
FN:179,_RNCINvXs4_NtCs6zS5XWhHsrg_9api_bones10fake_implsNtNtBa_4etag11IfNoneMatchINtCs8AlwinX4Uo_4fake5DummyNtB1c_5FakerE14dummy_with_rngNtNtNtCskvAakn1YBCQ_4rand4rngs6thread9ThreadRngE0Cs52cul6wXlX0_10fake_smoke
FN:243,_RNCINvXs8_NtCs6zS5XWhHsrg_9api_bones10fake_implsNtNtBa_6health17ReadinessResponseINtCs8AlwinX4Uo_4fake5DummyNtB1k_5FakerE14dummy_with_rngNtNtNtCskvAakn1YBCQ_4rand4rngs6thread9ThreadRngE0Cs52cul6wXlX0_10fake_smoke
FN:295,_RNCINvXsb_NtCs6zS5XWhHsrg_9api_bones10fake_implsINtNtBa_10pagination17PaginatedResponsemEINtCs8AlwinX4Uo_4fake5DummyNtB1s_5FakerE14dummy_with_rngNtNtNtCskvAakn1YBCQ_4rand4rngs6thread9ThreadRngE0Cs52cul6wXlX0_10fake_smoke
FN:343,_RNCINvXse_NtCs6zS5XWhHsrg_9api_bones10fake_implsINtNtBa_10pagination23CursorPaginatedResponseNtNtCsipk7xt2ATo7_5alloc6string6StringEINtCs8AlwinX4Uo_4fake5DummyNtB29_5FakerE14dummy_with_rngNtNtNtCskvAakn1YBCQ_4rand4rngs6thread9ThreadRngE0Cs52cul6wXlX0_10fake_smoke
FN:403,_RNCINvXsj_NtCs6zS5XWhHsrg_9api_bones10fake_implsNtNtBa_5query12FilterParamsINtCs8AlwinX4Uo_4fake5DummyNtB1e_5FakerE14dummy_with_rngNtNtNtCskvAakn1YBCQ_4rand4rngs6thread9ThreadRngE0Cs52cul6wXlX0_10fake_smoke
FN:413,_RNCINvXsk_NtCs6zS5XWhHsrg_9api_bones10fake_implsNtNtBa_5query12SearchParamsINtCs8AlwinX4Uo_4fake5DummyNtB1e_5FakerE14dummy_with_rngNtNtNtCskvAakn1YBCQ_4rand4rngs6thread9ThreadRngE0Cs52cul6wXlX0_10fake_smoke
FN:567,_RNCINvXsq_NtCs6zS5XWhHsrg_9api_bones10fake_implsINtNtBa_4bulk11BulkRequestmEINtCs8AlwinX4Uo_4fake5DummyNtB1f_5FakerE14dummy_with_rngNtNtNtCskvAakn1YBCQ_4rand4rngs6thread9ThreadRngE0Cs52cul6wXlX0_10fake_smoke
FN:591,_RNCINvXss_NtCs6zS5XWhHsrg_9api_bones10fake_implsINtNtBa_4bulk12BulkResponsemEINtCs8AlwinX4Uo_4fake5DummyNtB1g_5FakerE14dummy_with_rngNtNtNtCskvAakn1YBCQ_4rand4rngs6thread9ThreadRngE0Cs52cul6wXlX0_10fake_smoke
FN:605,_RNCINvXst_NtCs6zS5XWhHsrg_9api_bones10fake_implsNtNtBa_4slug4SlugINtCs8AlwinX4Uo_4fake5DummyNtB14_5FakerE14dummy_with_rngNtNtNtCskvAakn1YBCQ_4rand4rngs6thread9ThreadRngE0Cs52cul6wXlX0_10fake_smoke
FN:608,_RNCNCINvXst_NtCs6zS5XWhHsrg_9api_bones10fake_implsNtNtBc_4slug4SlugINtCs8AlwinX4Uo_4fake5DummyNtB16_5FakerE14dummy_with_rngNtNtNtCskvAakn1YBCQ_4rand4rngs6thread9ThreadRngE00Cs52cul6wXlX0_10fake_smoke
FN:520,_RINvXso_NtCs6zS5XWhHsrg_9api_bones10fake_implsNtNtB8_8response12ResponseMetaINtCs8AlwinX4Uo_4fake5DummyNtB1f_5FakerE14dummy_with_rngNtNtNtCskvAakn1YBCQ_4rand4rngs6thread9ThreadRngECs52cul6wXlX0_10fake_smoke
FN:544,_RINvXsp_NtCs6zS5XWhHsrg_9api_bones10fake_implsINtNtB8_8response11ApiResponsemEINtCs8AlwinX4Uo_4fake5DummyNtB1h_5FakerE14dummy_with_rngNtNtNtCskvAakn1YBCQ_4rand4rngs6thread9ThreadRngECs52cul6wXlX0_10fake_smoke
FN:191,_RINvXs5_NtCs6zS5XWhHsrg_9api_bones10fake_implsNtNtB8_6health12HealthStatusINtCs8AlwinX4Uo_4fake5DummyNtB1d_5FakerE14dummy_with_rngNtNtNtCskvAakn1YBCQ_4rand4rngs6thread9ThreadRngECs52cul6wXlX0_10fake_smoke
FN:201,_RINvXs6_NtCs6zS5XWhHsrg_9api_bones10fake_implsNtNtB8_6health11HealthCheckINtCs8AlwinX4Uo_4fake5DummyNtB1c_5FakerE14dummy_with_rngNtNtNtCskvAakn1YBCQ_4rand4rngs6thread9ThreadRngECs52cul6wXlX0_10fake_smoke
FN:220,_RINvXs7_NtCs6zS5XWhHsrg_9api_bones10fake_implsNtNtB8_6health16LivenessResponseINtCs8AlwinX4Uo_4fake5DummyNtB1h_5FakerE14dummy_with_rngNtNtNtCskvAakn1YBCQ_4rand4rngs6thread9ThreadRngECs52cul6wXlX0_10fake_smoke
FN:235,_RINvXs8_NtCs6zS5XWhHsrg_9api_bones10fake_implsNtNtB8_6health17ReadinessResponseINtCs8AlwinX4Uo_4fake5DummyNtB1i_5FakerE14dummy_with_rngNtNtNtCskvAakn1YBCQ_4rand4rngs6thread9ThreadRngECs52cul6wXlX0_10fake_smoke
FN:427,_RINvXsl_NtCs6zS5XWhHsrg_9api_bones10fake_implsNtNtB8_9ratelimit13RateLimitInfoINtCs8AlwinX4Uo_4fake5DummyNtB1h_5FakerE14dummy_with_rngNtNtNtCskvAakn1YBCQ_4rand4rngs6thread9ThreadRngECs52cul6wXlX0_10fake_smoke
FN:293,_RINvXsb_NtCs6zS5XWhHsrg_9api_bones10fake_implsINtNtB8_10pagination17PaginatedResponsemEINtCs8AlwinX4Uo_4fake5DummyNtB1q_5FakerE14dummy_with_rngNtNtNtCskvAakn1YBCQ_4rand4rngs6thread9ThreadRngECs52cul6wXlX0_10fake_smoke
FN:309,_RINvXsc_NtCs6zS5XWhHsrg_9api_bones10fake_implsNtNtB8_10pagination16PaginationParamsINtCs8AlwinX4Uo_4fake5DummyNtB1m_5FakerE14dummy_with_rngNtNtNtCskvAakn1YBCQ_4rand4rngs6thread9ThreadRngECs52cul6wXlX0_10fake_smoke
FN:327,_RINvXsd_NtCs6zS5XWhHsrg_9api_bones10fake_implsNtNtB8_10pagination16CursorPaginationINtCs8AlwinX4Uo_4fake5DummyNtB1m_5FakerE14dummy_with_rngNtNtNtCskvAakn1YBCQ_4rand4rngs6thread9ThreadRngECs52cul6wXlX0_10fake_smoke
FN:341,_RINvXse_NtCs6zS5XWhHsrg_9api_bones10fake_implsINtNtB8_10pagination23CursorPaginatedResponseNtNtCsipk7xt2ATo7_5alloc6string6StringEINtCs8AlwinX4Uo_4fake5DummyNtB27_5FakerE14dummy_with_rngNtNtNtCskvAakn1YBCQ_4rand4rngs6thread9ThreadRngECs52cul6wXlX0_10fake_smoke
FN:352,_RINvXsf_NtCs6zS5XWhHsrg_9api_bones10fake_implsNtNtB8_10pagination22CursorPaginationParamsINtCs8AlwinX4Uo_4fake5DummyNtB1s_5FakerE14dummy_with_rngNtNtNtCskvAakn1YBCQ_4rand4rngs6thread9ThreadRngECs52cul6wXlX0_10fake_smoke
FN:445,_RINvXsm_NtCs6zS5XWhHsrg_9api_bones10fake_implsNtNtB8_5audit9PrincipalINtCs8AlwinX4Uo_4fake5DummyNtB18_5FakerE14dummy_with_rngNtNtNtCskvAakn1YBCQ_4rand4rngs6thread9ThreadRngECs52cul6wXlX0_10fake_smoke
FN:474,_RINvXsn_NtCs6zS5XWhHsrg_9api_bones10fake_implsNtNtB8_5audit9AuditInfoINtCs8AlwinX4Uo_4fake5DummyNtB18_5FakerE14dummy_with_rngNtNtNtCskvAakn1YBCQ_4rand4rngs6thread9ThreadRngECs52cul6wXlX0_10fake_smoke
FN:265,_RINvXs9_NtCs6zS5XWhHsrg_9api_bones10fake_implsNtNtB8_5links4LinkINtCs8AlwinX4Uo_4fake5DummyNtB13_5FakerE14dummy_with_rngNtNtNtCskvAakn1YBCQ_4rand4rngs6thread9ThreadRngECs52cul6wXlX0_10fake_smoke
FN:278,_RINvXsa_NtCs6zS5XWhHsrg_9api_bones10fake_implsNtNtB8_5links5LinksINtCs8AlwinX4Uo_4fake5DummyNtB14_5FakerE14dummy_with_rngNtNtNtCskvAakn1YBCQ_4rand4rngs6thread9ThreadRngECs52cul6wXlX0_10fake_smoke
FNDA:0,_RINvNtCs1ufPfM0GhR0_9api_bones10fake_impls12gen_alphanumpEB4_
FNDA:0,_RINvNtCs1ufPfM0GhR0_9api_bones10fake_impls7gen_strpEB4_
FNDA:0,_RINvNtCs1ufPfM0GhR0_9api_bones10fake_impls7gen_urlpEB4_
FNDA:0,_RINvXININtCs1ufPfM0GhR0_9api_bones10fake_implssb_0pEINtNtB8_10pagination17PaginatedResponsepEINtCs8AlwinX4Uo_4fake5DummyNtB1w_5FakerE14dummy_with_rngpEB8_
FNDA:0,_RINvXININtCs1ufPfM0GhR0_9api_bones10fake_implsse_0pEINtNtB8_10pagination23CursorPaginatedResponsepEINtCs8AlwinX4Uo_4fake5DummyNtB1C_5FakerE14dummy_with_rngpEB8_
FNDA:0,_RINvXININtCs1ufPfM0GhR0_9api_bones10fake_implssp_0pEINtNtB8_8response11ApiResponsepEINtCs8AlwinX4Uo_4fake5DummyNtB1n_5FakerE14dummy_with_rngpEB8_
FNDA:0,_RINvXININtCs1ufPfM0GhR0_9api_bones10fake_implssq_0pEINtNtB8_4bulk11BulkRequestpEINtCs8AlwinX4Uo_4fake5DummyNtB1j_5FakerE14dummy_with_rngpEB8_
FNDA:0,_RINvXININtCs1ufPfM0GhR0_9api_bones10fake_implssr_0pEINtNtB8_4bulk14BulkItemResultpEINtCs8AlwinX4Uo_4fake5DummyNtB1m_5FakerE14dummy_with_rngpEB8_
FNDA:0,_RINvXININtCs1ufPfM0GhR0_9api_bones10fake_implsss_0pEINtNtB8_4bulk12BulkResponsepEINtCs8AlwinX4Uo_4fake5DummyNtB1k_5FakerE14dummy_with_rngpEB8_
FNDA:0,_RINvXNtCs1ufPfM0GhR0_9api_bones10fake_implsNtNtB5_5error9ErrorCodeINtCs8AlwinX4Uo_4fake5DummyNtB15_5FakerE14dummy_with_rngpEB5_
FNDA:0,_RINvXs0_NtCs1ufPfM0GhR0_9api_bones10fake_implsNtNtB8_5error15ValidationErrorINtCs8AlwinX4Uo_4fake5DummyNtB1f_5FakerE14dummy_with_rngpEB8_
FNDA:0,_RINvXs1_NtCs1ufPfM0GhR0_9api_bones10fake_implsNtNtB8_5error8ApiErrorINtCs8AlwinX4Uo_4fake5DummyNtB17_5FakerE14dummy_with_rngpEB8_
FNDA:0,_RINvXs2_NtCs1ufPfM0GhR0_9api_bones10fake_implsNtNtB8_4etag4ETagINtCs8AlwinX4Uo_4fake5DummyNtB12_5FakerE14dummy_with_rngpEB8_
FNDA:0,_RINvXs3_NtCs1ufPfM0GhR0_9api_bones10fake_implsNtNtB8_4etag7IfMatchINtCs8AlwinX4Uo_4fake5DummyNtB15_5FakerE14dummy_with_rngpEB8_
FNDA:0,_RINvXs4_NtCs1ufPfM0GhR0_9api_bones10fake_implsNtNtB8_4etag11IfNoneMatchINtCs8AlwinX4Uo_4fake5DummyNtB1a_5FakerE14dummy_with_rngpEB8_
FNDA:0,_RINvXs5_NtCs1ufPfM0GhR0_9api_bones10fake_implsNtNtB8_6health12HealthStatusINtCs8AlwinX4Uo_4fake5DummyNtB1d_5FakerE14dummy_with_rngpEB8_
FNDA:0,_RINvXs6_NtCs1ufPfM0GhR0_9api_bones10fake_implsNtNtB8_6health11HealthCheckINtCs8AlwinX4Uo_4fake5DummyNtB1c_5FakerE14dummy_with_rngpEB8_
FNDA:0,_RINvXs7_NtCs1ufPfM0GhR0_9api_bones10fake_implsNtNtB8_6health16LivenessResponseINtCs8AlwinX4Uo_4fake5DummyNtB1h_5FakerE14dummy_with_rngpEB8_
FNDA:0,_RINvXs8_NtCs1ufPfM0GhR0_9api_bones10fake_implsNtNtB8_6health17ReadinessResponseINtCs8AlwinX4Uo_4fake5DummyNtB1i_5FakerE14dummy_with_rngpEB8_
FNDA:0,_RINvXs9_NtCs1ufPfM0GhR0_9api_bones10fake_implsNtNtB8_5links4LinkINtCs8AlwinX4Uo_4fake5DummyNtB13_5FakerE14dummy_with_rngpEB8_
FNDA:0,_RINvXs_NtCs1ufPfM0GhR0_9api_bones10fake_implsNtNtB7_5error13ErrorTypeModeINtCs8AlwinX4Uo_4fake5DummyNtB1c_5FakerE14dummy_with_rngpEB7_
FNDA:0,_RINvXsa_NtCs1ufPfM0GhR0_9api_bones10fake_implsNtNtB8_5links5LinksINtCs8AlwinX4Uo_4fake5DummyNtB14_5FakerE14dummy_with_rngpEB8_
FNDA:0,_RINvXsc_NtCs1ufPfM0GhR0_9api_bones10fake_implsNtNtB8_10pagination16PaginationParamsINtCs8AlwinX4Uo_4fake5DummyNtB1m_5FakerE14dummy_with_rngpEB8_
FNDA:0,_RINvXsd_NtCs1ufPfM0GhR0_9api_bones10fake_implsNtNtB8_10pagination16CursorPaginationINtCs8AlwinX4Uo_4fake5DummyNtB1m_5FakerE14dummy_with_rngpEB8_
FNDA:0,_RINvXsf_NtCs1ufPfM0GhR0_9api_bones10fake_implsNtNtB8_10pagination22CursorPaginationParamsINtCs8AlwinX4Uo_4fake5DummyNtB1s_5FakerE14dummy_with_rngpEB8_
FNDA:0,_RINvXsg_NtCs1ufPfM0GhR0_9api_bones10fake_implsNtNtB8_5query13SortDirectionINtCs8AlwinX4Uo_4fake5DummyNtB1d_5FakerE14dummy_with_rngpEB8_
FNDA:0,_RINvXsh_NtCs1ufPfM0GhR0_9api_bones10fake_implsNtNtB8_5query10SortParamsINtCs8AlwinX4Uo_4fake5DummyNtB1a_5FakerE14dummy_with_rngpEB8_
FNDA:0,_RINvXsi_NtCs1ufPfM0GhR0_9api_bones10fake_implsNtNtB8_5query11FilterEntryINtCs8AlwinX4Uo_4fake5DummyNtB1b_5FakerE14dummy_with_rngpEB8_
FNDA:0,_RINvXsj_NtCs1ufPfM0GhR0_9api_bones10fake_implsNtNtB8_5query12FilterParamsINtCs8AlwinX4Uo_4fake5DummyNtB1c_5FakerE14dummy_with_rngpEB8_
FNDA:0,_RINvXsk_NtCs1ufPfM0GhR0_9api_bones10fake_implsNtNtB8_5query12SearchParamsINtCs8AlwinX4Uo_4fake5DummyNtB1c_5FakerE14dummy_with_rngpEB8_
FNDA:0,_RINvXsl_NtCs1ufPfM0GhR0_9api_bones10fake_implsNtNtB8_9ratelimit13RateLimitInfoINtCs8AlwinX4Uo_4fake5DummyNtB1h_5FakerE14dummy_with_rngpEB8_
FNDA:0,_RINvXsm_NtCs1ufPfM0GhR0_9api_bones10fake_implsNtNtB8_5audit9PrincipalINtCs8AlwinX4Uo_4fake5DummyNtB18_5FakerE14dummy_with_rngpEB8_
FNDA:0,_RINvXsn_NtCs1ufPfM0GhR0_9api_bones10fake_implsNtNtB8_5audit9AuditInfoINtCs8AlwinX4Uo_4fake5DummyNtB18_5FakerE14dummy_with_rngpEB8_
FNDA:0,_RINvXso_NtCs1ufPfM0GhR0_9api_bones10fake_implsNtNtB8_8response12ResponseMetaINtCs8AlwinX4Uo_4fake5DummyNtB1f_5FakerE14dummy_with_rngpEB8_
FNDA:0,_RINvXst_NtCs1ufPfM0GhR0_9api_bones10fake_implsNtNtB8_4slug4SlugINtCs8AlwinX4Uo_4fake5DummyNtB12_5FakerE14dummy_with_rngpEB8_
FNDA:0,_RNCINvXININtCs1ufPfM0GhR0_9api_bones10fake_implssb_0pEINtNtBa_10pagination17PaginatedResponsepEINtCs8AlwinX4Uo_4fake5DummyNtB1y_5FakerE14dummy_with_rngpE0Ba_
FNDA:0,_RNCINvXININtCs1ufPfM0GhR0_9api_bones10fake_implsse_0pEINtNtBa_10pagination23CursorPaginatedResponsepEINtCs8AlwinX4Uo_4fake5DummyNtB1E_5FakerE14dummy_with_rngpE0Ba_
FNDA:0,_RNCINvXININtCs1ufPfM0GhR0_9api_bones10fake_implssq_0pEINtNtBa_4bulk11BulkRequestpEINtCs8AlwinX4Uo_4fake5DummyNtB1l_5FakerE14dummy_with_rngpE0Ba_
FNDA:0,_RNCINvXININtCs1ufPfM0GhR0_9api_bones10fake_implsss_0pEINtNtBa_4bulk12BulkResponsepEINtCs8AlwinX4Uo_4fake5DummyNtB1m_5FakerE14dummy_with_rngpE0Ba_
FNDA:0,_RNCINvXs1_NtCs1ufPfM0GhR0_9api_bones10fake_implsNtNtBa_5error8ApiErrorINtCs8AlwinX4Uo_4fake5DummyNtB19_5FakerE14dummy_with_rngpE0Ba_
FNDA:0,_RNCINvXs3_NtCs1ufPfM0GhR0_9api_bones10fake_implsNtNtBa_4etag7IfMatchINtCs8AlwinX4Uo_4fake5DummyNtB17_5FakerE14dummy_with_rngpE0Ba_
FNDA:0,_RNCINvXs4_NtCs1ufPfM0GhR0_9api_bones10fake_implsNtNtBa_4etag11IfNoneMatchINtCs8AlwinX4Uo_4fake5DummyNtB1c_5FakerE14dummy_with_rngpE0Ba_
FNDA:0,_RNCINvXs8_NtCs1ufPfM0GhR0_9api_bones10fake_implsNtNtBa_6health17ReadinessResponseINtCs8AlwinX4Uo_4fake5DummyNtB1k_5FakerE14dummy_with_rngpE0Ba_
FNDA:0,_RNCINvXsj_NtCs1ufPfM0GhR0_9api_bones10fake_implsNtNtBa_5query12FilterParamsINtCs8AlwinX4Uo_4fake5DummyNtB1e_5FakerE14dummy_with_rngpE0Ba_
FNDA:0,_RNCINvXsk_NtCs1ufPfM0GhR0_9api_bones10fake_implsNtNtBa_5query12SearchParamsINtCs8AlwinX4Uo_4fake5DummyNtB1e_5FakerE14dummy_with_rngpE0Ba_
FNDA:0,_RNCINvXst_NtCs1ufPfM0GhR0_9api_bones10fake_implsNtNtBa_4slug4SlugINtCs8AlwinX4Uo_4fake5DummyNtB14_5FakerE14dummy_with_rngpE0Ba_
FNDA:0,_RNCNCINvXst_NtCs1ufPfM0GhR0_9api_bones10fake_implsNtNtBc_4slug4SlugINtCs8AlwinX4Uo_4fake5DummyNtB16_5FakerE14dummy_with_rngpE00Bc_
FNDA:0,_RINvNtCs6zS5XWhHsrg_9api_bones10fake_impls12gen_alphanumpEB4_
FNDA:0,_RINvNtCs6zS5XWhHsrg_9api_bones10fake_impls7gen_strpEB4_
FNDA:0,_RINvNtCs6zS5XWhHsrg_9api_bones10fake_impls7gen_urlpEB4_
FNDA:0,_RINvXININtCs6zS5XWhHsrg_9api_bones10fake_implssb_0pEINtNtB8_10pagination17PaginatedResponsepEINtCs8AlwinX4Uo_4fake5DummyNtB1w_5FakerE14dummy_with_rngpEB8_
FNDA:0,_RINvXININtCs6zS5XWhHsrg_9api_bones10fake_implsse_0pEINtNtB8_10pagination23CursorPaginatedResponsepEINtCs8AlwinX4Uo_4fake5DummyNtB1C_5FakerE14dummy_with_rngpEB8_
FNDA:0,_RINvXININtCs6zS5XWhHsrg_9api_bones10fake_implssp_0pEINtNtB8_8response11ApiResponsepEINtCs8AlwinX4Uo_4fake5DummyNtB1n_5FakerE14dummy_with_rngpEB8_
FNDA:0,_RINvXININtCs6zS5XWhHsrg_9api_bones10fake_implssq_0pEINtNtB8_4bulk11BulkRequestpEINtCs8AlwinX4Uo_4fake5DummyNtB1j_5FakerE14dummy_with_rngpEB8_
FNDA:0,_RINvXININtCs6zS5XWhHsrg_9api_bones10fake_implssr_0pEINtNtB8_4bulk14BulkItemResultpEINtCs8AlwinX4Uo_4fake5DummyNtB1m_5FakerE14dummy_with_rngpEB8_
FNDA:0,_RINvXININtCs6zS5XWhHsrg_9api_bones10fake_implsss_0pEINtNtB8_4bulk12BulkResponsepEINtCs8AlwinX4Uo_4fake5DummyNtB1k_5FakerE14dummy_with_rngpEB8_
FNDA:0,_RINvXNtCs6zS5XWhHsrg_9api_bones10fake_implsNtNtB5_5error9ErrorCodeINtCs8AlwinX4Uo_4fake5DummyNtB15_5FakerE14dummy_with_rngpEB5_
FNDA:0,_RINvXs0_NtCs6zS5XWhHsrg_9api_bones10fake_implsNtNtB8_5error15ValidationErrorINtCs8AlwinX4Uo_4fake5DummyNtB1f_5FakerE14dummy_with_rngpEB8_
FNDA:0,_RINvXs1_NtCs6zS5XWhHsrg_9api_bones10fake_implsNtNtB8_5error8ApiErrorINtCs8AlwinX4Uo_4fake5DummyNtB17_5FakerE14dummy_with_rngpEB8_
FNDA:0,_RINvXs2_NtCs6zS5XWhHsrg_9api_bones10fake_implsNtNtB8_4etag4ETagINtCs8AlwinX4Uo_4fake5DummyNtB12_5FakerE14dummy_with_rngpEB8_
FNDA:0,_RINvXs3_NtCs6zS5XWhHsrg_9api_bones10fake_implsNtNtB8_4etag7IfMatchINtCs8AlwinX4Uo_4fake5DummyNtB15_5FakerE14dummy_with_rngpEB8_
FNDA:0,_RINvXs4_NtCs6zS5XWhHsrg_9api_bones10fake_implsNtNtB8_4etag11IfNoneMatchINtCs8AlwinX4Uo_4fake5DummyNtB1a_5FakerE14dummy_with_rngpEB8_
FNDA:0,_RINvXs5_NtCs6zS5XWhHsrg_9api_bones10fake_implsNtNtB8_6health12HealthStatusINtCs8AlwinX4Uo_4fake5DummyNtB1d_5FakerE14dummy_with_rngpEB8_
FNDA:0,_RINvXs6_NtCs6zS5XWhHsrg_9api_bones10fake_implsNtNtB8_6health11HealthCheckINtCs8AlwinX4Uo_4fake5DummyNtB1c_5FakerE14dummy_with_rngpEB8_
FNDA:0,_RINvXs7_NtCs6zS5XWhHsrg_9api_bones10fake_implsNtNtB8_6health16LivenessResponseINtCs8AlwinX4Uo_4fake5DummyNtB1h_5FakerE14dummy_with_rngpEB8_
FNDA:0,_RINvXs8_NtCs6zS5XWhHsrg_9api_bones10fake_implsNtNtB8_6health17ReadinessResponseINtCs8AlwinX4Uo_4fake5DummyNtB1i_5FakerE14dummy_with_rngpEB8_
FNDA:0,_RINvXs9_NtCs6zS5XWhHsrg_9api_bones10fake_implsNtNtB8_5links4LinkINtCs8AlwinX4Uo_4fake5DummyNtB13_5FakerE14dummy_with_rngpEB8_
FNDA:0,_RINvXs_NtCs6zS5XWhHsrg_9api_bones10fake_implsNtNtB7_5error13ErrorTypeModeINtCs8AlwinX4Uo_4fake5DummyNtB1c_5FakerE14dummy_with_rngpEB7_
FNDA:0,_RINvXsa_NtCs6zS5XWhHsrg_9api_bones10fake_implsNtNtB8_5links5LinksINtCs8AlwinX4Uo_4fake5DummyNtB14_5FakerE14dummy_with_rngpEB8_
FNDA:0,_RINvXsc_NtCs6zS5XWhHsrg_9api_bones10fake_implsNtNtB8_10pagination16PaginationParamsINtCs8AlwinX4Uo_4fake5DummyNtB1m_5FakerE14dummy_with_rngpEB8_
FNDA:0,_RINvXsd_NtCs6zS5XWhHsrg_9api_bones10fake_implsNtNtB8_10pagination16CursorPaginationINtCs8AlwinX4Uo_4fake5DummyNtB1m_5FakerE14dummy_with_rngpEB8_
FNDA:0,_RINvXsf_NtCs6zS5XWhHsrg_9api_bones10fake_implsNtNtB8_10pagination22CursorPaginationParamsINtCs8AlwinX4Uo_4fake5DummyNtB1s_5FakerE14dummy_with_rngpEB8_
FNDA:0,_RINvXsg_NtCs6zS5XWhHsrg_9api_bones10fake_implsNtNtB8_5query13SortDirectionINtCs8AlwinX4Uo_4fake5DummyNtB1d_5FakerE14dummy_with_rngpEB8_
FNDA:0,_RINvXsh_NtCs6zS5XWhHsrg_9api_bones10fake_implsNtNtB8_5query10SortParamsINtCs8AlwinX4Uo_4fake5DummyNtB1a_5FakerE14dummy_with_rngpEB8_
FNDA:0,_RINvXsi_NtCs6zS5XWhHsrg_9api_bones10fake_implsNtNtB8_5query11FilterEntryINtCs8AlwinX4Uo_4fake5DummyNtB1b_5FakerE14dummy_with_rngpEB8_
FNDA:0,_RINvXsj_NtCs6zS5XWhHsrg_9api_bones10fake_implsNtNtB8_5query12FilterParamsINtCs8AlwinX4Uo_4fake5DummyNtB1c_5FakerE14dummy_with_rngpEB8_
FNDA:0,_RINvXsk_NtCs6zS5XWhHsrg_9api_bones10fake_implsNtNtB8_5query12SearchParamsINtCs8AlwinX4Uo_4fake5DummyNtB1c_5FakerE14dummy_with_rngpEB8_
FNDA:0,_RINvXsl_NtCs6zS5XWhHsrg_9api_bones10fake_implsNtNtB8_9ratelimit13RateLimitInfoINtCs8AlwinX4Uo_4fake5DummyNtB1h_5FakerE14dummy_with_rngpEB8_
FNDA:0,_RINvXsm_NtCs6zS5XWhHsrg_9api_bones10fake_implsNtNtB8_5audit9PrincipalINtCs8AlwinX4Uo_4fake5DummyNtB18_5FakerE14dummy_with_rngpEB8_
FNDA:0,_RINvXsn_NtCs6zS5XWhHsrg_9api_bones10fake_implsNtNtB8_5audit9AuditInfoINtCs8AlwinX4Uo_4fake5DummyNtB18_5FakerE14dummy_with_rngpEB8_
FNDA:0,_RINvXso_NtCs6zS5XWhHsrg_9api_bones10fake_implsNtNtB8_8response12ResponseMetaINtCs8AlwinX4Uo_4fake5DummyNtB1f_5FakerE14dummy_with_rngpEB8_
FNDA:0,_RINvXst_NtCs6zS5XWhHsrg_9api_bones10fake_implsNtNtB8_4slug4SlugINtCs8AlwinX4Uo_4fake5DummyNtB12_5FakerE14dummy_with_rngpEB8_
FNDA:0,_RNCINvXININtCs6zS5XWhHsrg_9api_bones10fake_implssb_0pEINtNtBa_10pagination17PaginatedResponsepEINtCs8AlwinX4Uo_4fake5DummyNtB1y_5FakerE14dummy_with_rngpE0Ba_
FNDA:0,_RNCINvXININtCs6zS5XWhHsrg_9api_bones10fake_implsse_0pEINtNtBa_10pagination23CursorPaginatedResponsepEINtCs8AlwinX4Uo_4fake5DummyNtB1E_5FakerE14dummy_with_rngpE0Ba_
FNDA:0,_RNCINvXININtCs6zS5XWhHsrg_9api_bones10fake_implssq_0pEINtNtBa_4bulk11BulkRequestpEINtCs8AlwinX4Uo_4fake5DummyNtB1l_5FakerE14dummy_with_rngpE0Ba_
FNDA:0,_RNCINvXININtCs6zS5XWhHsrg_9api_bones10fake_implsss_0pEINtNtBa_4bulk12BulkResponsepEINtCs8AlwinX4Uo_4fake5DummyNtB1m_5FakerE14dummy_with_rngpE0Ba_
FNDA:0,_RNCINvXs1_NtCs6zS5XWhHsrg_9api_bones10fake_implsNtNtBa_5error8ApiErrorINtCs8AlwinX4Uo_4fake5DummyNtB19_5FakerE14dummy_with_rngpE0Ba_
FNDA:0,_RNCINvXs3_NtCs6zS5XWhHsrg_9api_bones10fake_implsNtNtBa_4etag7IfMatchINtCs8AlwinX4Uo_4fake5DummyNtB17_5FakerE14dummy_with_rngpE0Ba_
FNDA:0,_RNCINvXs4_NtCs6zS5XWhHsrg_9api_bones10fake_implsNtNtBa_4etag11IfNoneMatchINtCs8AlwinX4Uo_4fake5DummyNtB1c_5FakerE14dummy_with_rngpE0Ba_
FNDA:0,_RNCINvXs8_NtCs6zS5XWhHsrg_9api_bones10fake_implsNtNtBa_6health17ReadinessResponseINtCs8AlwinX4Uo_4fake5DummyNtB1k_5FakerE14dummy_with_rngpE0Ba_
FNDA:0,_RNCINvXsj_NtCs6zS5XWhHsrg_9api_bones10fake_implsNtNtBa_5query12FilterParamsINtCs8AlwinX4Uo_4fake5DummyNtB1e_5FakerE14dummy_with_rngpE0Ba_
FNDA:0,_RNCINvXsk_NtCs6zS5XWhHsrg_9api_bones10fake_implsNtNtBa_5query12SearchParamsINtCs8AlwinX4Uo_4fake5DummyNtB1e_5FakerE14dummy_with_rngpE0Ba_
FNDA:0,_RNCINvXst_NtCs6zS5XWhHsrg_9api_bones10fake_implsNtNtBa_4slug4SlugINtCs8AlwinX4Uo_4fake5DummyNtB14_5FakerE14dummy_with_rngpE0Ba_
FNDA:0,_RNCNCINvXst_NtCs6zS5XWhHsrg_9api_bones10fake_implsNtNtBc_4slug4SlugINtCs8AlwinX4Uo_4fake5DummyNtB16_5FakerE14dummy_with_rngpE00Bc_
FNDA:710,_RINvXs2_NtCs6zS5XWhHsrg_9api_bones10fake_implsNtNtB8_4etag4ETagINtCs8AlwinX4Uo_4fake5DummyNtB12_5FakerE14dummy_with_rngNtNtNtCskvAakn1YBCQ_4rand4rngs6thread9ThreadRngECs52cul6wXlX0_10fake_smoke
FNDA:200,_RINvXs3_NtCs6zS5XWhHsrg_9api_bones10fake_implsNtNtB8_4etag7IfMatchINtCs8AlwinX4Uo_4fake5DummyNtB15_5FakerE14dummy_with_rngNtNtNtCskvAakn1YBCQ_4rand4rngs6thread9ThreadRngECs52cul6wXlX0_10fake_smoke
FNDA:200,_RINvXs4_NtCs6zS5XWhHsrg_9api_bones10fake_implsNtNtB8_4etag11IfNoneMatchINtCs8AlwinX4Uo_4fake5DummyNtB1a_5FakerE14dummy_with_rngNtNtNtCskvAakn1YBCQ_4rand4rngs6thread9ThreadRngECs52cul6wXlX0_10fake_smoke
FNDA:200,_RINvXsq_NtCs6zS5XWhHsrg_9api_bones10fake_implsINtNtB8_4bulk11BulkRequestmEINtCs8AlwinX4Uo_4fake5DummyNtB1d_5FakerE14dummy_with_rngNtNtNtCskvAakn1YBCQ_4rand4rngs6thread9ThreadRngECs52cul6wXlX0_10fake_smoke
FNDA:1079,_RINvXsr_NtCs6zS5XWhHsrg_9api_bones10fake_implsINtNtB8_4bulk14BulkItemResultmEINtCs8AlwinX4Uo_4fake5DummyNtB1g_5FakerE14dummy_with_rngNtNtNtCskvAakn1YBCQ_4rand4rngs6thread9ThreadRngECs52cul6wXlX0_10fake_smoke
FNDA:200,_RINvXss_NtCs6zS5XWhHsrg_9api_bones10fake_implsINtNtB8_4bulk12BulkResponsemEINtCs8AlwinX4Uo_4fake5DummyNtB1e_5FakerE14dummy_with_rngNtNtNtCskvAakn1YBCQ_4rand4rngs6thread9ThreadRngECs52cul6wXlX0_10fake_smoke
FNDA:965,_RINvXNtCs6zS5XWhHsrg_9api_bones10fake_implsNtNtB5_5error9ErrorCodeINtCs8AlwinX4Uo_4fake5DummyNtB15_5FakerE14dummy_with_rngNtNtNtCskvAakn1YBCQ_4rand4rngs6thread9ThreadRngECs52cul6wXlX0_10fake_smoke
FNDA:1385,_RINvXs0_NtCs6zS5XWhHsrg_9api_bones10fake_implsNtNtB8_5error15ValidationErrorINtCs8AlwinX4Uo_4fake5DummyNtB1f_5FakerE14dummy_with_rngNtNtNtCskvAakn1YBCQ_4rand4rngs6thread9ThreadRngECs52cul6wXlX0_10fake_smoke
FNDA:765,_RINvXs1_NtCs6zS5XWhHsrg_9api_bones10fake_implsNtNtB8_5error8ApiErrorINtCs8AlwinX4Uo_4fake5DummyNtB17_5FakerE14dummy_with_rngNtNtNtCskvAakn1YBCQ_4rand4rngs6thread9ThreadRngECs52cul6wXlX0_10fake_smoke
FNDA:200,_RINvXs_NtCs6zS5XWhHsrg_9api_bones10fake_implsNtNtB7_5error13ErrorTypeModeINtCs8AlwinX4Uo_4fake5DummyNtB1c_5FakerE14dummy_with_rngNtNtNtCskvAakn1YBCQ_4rand4rngs6thread9ThreadRngECs52cul6wXlX0_10fake_smoke
FNDA:200,_RINvXst_NtCs6zS5XWhHsrg_9api_bones10fake_implsNtNtB8_4slug4SlugINtCs8AlwinX4Uo_4fake5DummyNtB12_5FakerE14dummy_with_rngNtNtNtCskvAakn1YBCQ_4rand4rngs6thread9ThreadRngECs52cul6wXlX0_10fake_smoke
FNDA:400,_RINvXsg_NtCs6zS5XWhHsrg_9api_bones10fake_implsNtNtB8_5query13SortDirectionINtCs8AlwinX4Uo_4fake5DummyNtB1d_5FakerE14dummy_with_rngNtNtNtCskvAakn1YBCQ_4rand4rngs6thread9ThreadRngECs52cul6wXlX0_10fake_smoke
FNDA:200,_RINvXsh_NtCs6zS5XWhHsrg_9api_bones10fake_implsNtNtB8_5query10SortParamsINtCs8AlwinX4Uo_4fake5DummyNtB1a_5FakerE14dummy_with_rngNtNtNtCskvAakn1YBCQ_4rand4rngs6thread9ThreadRngECs52cul6wXlX0_10fake_smoke
FNDA:579,_RINvXsi_NtCs6zS5XWhHsrg_9api_bones10fake_implsNtNtB8_5query11FilterEntryINtCs8AlwinX4Uo_4fake5DummyNtB1b_5FakerE14dummy_with_rngNtNtNtCskvAakn1YBCQ_4rand4rngs6thread9ThreadRngECs52cul6wXlX0_10fake_smoke
FNDA:200,_RINvXsj_NtCs6zS5XWhHsrg_9api_bones10fake_implsNtNtB8_5query12FilterParamsINtCs8AlwinX4Uo_4fake5DummyNtB1c_5FakerE14dummy_with_rngNtNtNtCskvAakn1YBCQ_4rand4rngs6thread9ThreadRngECs52cul6wXlX0_10fake_smoke
FNDA:200,_RINvXsk_NtCs6zS5XWhHsrg_9api_bones10fake_implsNtNtB8_5query12SearchParamsINtCs8AlwinX4Uo_4fake5DummyNtB1c_5FakerE14dummy_with_rngNtNtNtCskvAakn1YBCQ_4rand4rngs6thread9ThreadRngECs52cul6wXlX0_10fake_smoke
FNDA:10660,_RINvNtCs6zS5XWhHsrg_9api_bones10fake_impls12gen_alphanumNtNtNtCskvAakn1YBCQ_4rand4rngs6thread9ThreadRngECs52cul6wXlX0_10fake_smoke
FNDA:7443,_RINvNtCs6zS5XWhHsrg_9api_bones10fake_impls7gen_strNtNtNtCskvAakn1YBCQ_4rand4rngs6thread9ThreadRngECs52cul6wXlX0_10fake_smoke
FNDA:1299,_RINvNtCs6zS5XWhHsrg_9api_bones10fake_impls7gen_urlNtNtNtCskvAakn1YBCQ_4rand4rngs6thread9ThreadRngECs52cul6wXlX0_10fake_smoke
FNDA:1185,_RNCINvXs1_NtCs6zS5XWhHsrg_9api_bones10fake_implsNtNtBa_5error8ApiErrorINtCs8AlwinX4Uo_4fake5DummyNtB19_5FakerE14dummy_with_rngNtNtNtCskvAakn1YBCQ_4rand4rngs6thread9ThreadRngE0Cs52cul6wXlX0_10fake_smoke
FNDA:239,_RNCINvXs3_NtCs6zS5XWhHsrg_9api_bones10fake_implsNtNtBa_4etag7IfMatchINtCs8AlwinX4Uo_4fake5DummyNtB17_5FakerE14dummy_with_rngNtNtNtCskvAakn1YBCQ_4rand4rngs6thread9ThreadRngE0Cs52cul6wXlX0_10fake_smoke
FNDA:271,_RNCINvXs4_NtCs6zS5XWhHsrg_9api_bones10fake_implsNtNtBa_4etag11IfNoneMatchINtCs8AlwinX4Uo_4fake5DummyNtB1c_5FakerE14dummy_with_rngNtNtNtCskvAakn1YBCQ_4rand4rngs6thread9ThreadRngE0Cs52cul6wXlX0_10fake_smoke
FNDA:425,_RNCINvXs8_NtCs6zS5XWhHsrg_9api_bones10fake_implsNtNtBa_6health17ReadinessResponseINtCs8AlwinX4Uo_4fake5DummyNtB1k_5FakerE14dummy_with_rngNtNtNtCskvAakn1YBCQ_4rand4rngs6thread9ThreadRngE0Cs52cul6wXlX0_10fake_smoke
FNDA:491,_RNCINvXsb_NtCs6zS5XWhHsrg_9api_bones10fake_implsINtNtBa_10pagination17PaginatedResponsemEINtCs8AlwinX4Uo_4fake5DummyNtB1s_5FakerE14dummy_with_rngNtNtNtCskvAakn1YBCQ_4rand4rngs6thread9ThreadRngE0Cs52cul6wXlX0_10fake_smoke
FNDA:483,_RNCINvXse_NtCs6zS5XWhHsrg_9api_bones10fake_implsINtNtBa_10pagination23CursorPaginatedResponseNtNtCsipk7xt2ATo7_5alloc6string6StringEINtCs8AlwinX4Uo_4fake5DummyNtB29_5FakerE14dummy_with_rngNtNtNtCskvAakn1YBCQ_4rand4rngs6thread9ThreadRngE0Cs52cul6wXlX0_10fake_smoke
FNDA:379,_RNCINvXsj_NtCs6zS5XWhHsrg_9api_bones10fake_implsNtNtBa_5query12FilterParamsINtCs8AlwinX4Uo_4fake5DummyNtB1e_5FakerE14dummy_with_rngNtNtNtCskvAakn1YBCQ_4rand4rngs6thread9ThreadRngE0Cs52cul6wXlX0_10fake_smoke
FNDA:307,_RNCINvXsk_NtCs6zS5XWhHsrg_9api_bones10fake_implsNtNtBa_5query12SearchParamsINtCs8AlwinX4Uo_4fake5DummyNtB1e_5FakerE14dummy_with_rngNtNtNtCskvAakn1YBCQ_4rand4rngs6thread9ThreadRngE0Cs52cul6wXlX0_10fake_smoke
FNDA:905,_RNCINvXsq_NtCs6zS5XWhHsrg_9api_bones10fake_implsINtNtBa_4bulk11BulkRequestmEINtCs8AlwinX4Uo_4fake5DummyNtB1f_5FakerE14dummy_with_rngNtNtNtCskvAakn1YBCQ_4rand4rngs6thread9ThreadRngE0Cs52cul6wXlX0_10fake_smoke
FNDA:879,_RNCINvXss_NtCs6zS5XWhHsrg_9api_bones10fake_implsINtNtBa_4bulk12BulkResponsemEINtCs8AlwinX4Uo_4fake5DummyNtB1g_5FakerE14dummy_with_rngNtNtNtCskvAakn1YBCQ_4rand4rngs6thread9ThreadRngE0Cs52cul6wXlX0_10fake_smoke
FNDA:511,_RNCINvXst_NtCs6zS5XWhHsrg_9api_bones10fake_implsNtNtBa_4slug4SlugINtCs8AlwinX4Uo_4fake5DummyNtB14_5FakerE14dummy_with_rngNtNtNtCskvAakn1YBCQ_4rand4rngs6thread9ThreadRngE0Cs52cul6wXlX0_10fake_smoke
FNDA:3520,_RNCNCINvXst_NtCs6zS5XWhHsrg_9api_bones10fake_implsNtNtBc_4slug4SlugINtCs8AlwinX4Uo_4fake5DummyNtB16_5FakerE14dummy_with_rngNtNtNtCskvAakn1YBCQ_4rand4rngs6thread9ThreadRngE00Cs52cul6wXlX0_10fake_smoke
FNDA:400,_RINvXso_NtCs6zS5XWhHsrg_9api_bones10fake_implsNtNtB8_8response12ResponseMetaINtCs8AlwinX4Uo_4fake5DummyNtB1f_5FakerE14dummy_with_rngNtNtNtCskvAakn1YBCQ_4rand4rngs6thread9ThreadRngECs52cul6wXlX0_10fake_smoke
FNDA:200,_RINvXsp_NtCs6zS5XWhHsrg_9api_bones10fake_implsINtNtB8_8response11ApiResponsemEINtCs8AlwinX4Uo_4fake5DummyNtB1h_5FakerE14dummy_with_rngNtNtNtCskvAakn1YBCQ_4rand4rngs6thread9ThreadRngECs52cul6wXlX0_10fake_smoke
FNDA:1225,_RINvXs5_NtCs6zS5XWhHsrg_9api_bones10fake_implsNtNtB8_6health12HealthStatusINtCs8AlwinX4Uo_4fake5DummyNtB1d_5FakerE14dummy_with_rngNtNtNtCskvAakn1YBCQ_4rand4rngs6thread9ThreadRngECs52cul6wXlX0_10fake_smoke
FNDA:625,_RINvXs6_NtCs6zS5XWhHsrg_9api_bones10fake_implsNtNtB8_6health11HealthCheckINtCs8AlwinX4Uo_4fake5DummyNtB1c_5FakerE14dummy_with_rngNtNtNtCskvAakn1YBCQ_4rand4rngs6thread9ThreadRngECs52cul6wXlX0_10fake_smoke
FNDA:200,_RINvXs7_NtCs6zS5XWhHsrg_9api_bones10fake_implsNtNtB8_6health16LivenessResponseINtCs8AlwinX4Uo_4fake5DummyNtB1h_5FakerE14dummy_with_rngNtNtNtCskvAakn1YBCQ_4rand4rngs6thread9ThreadRngECs52cul6wXlX0_10fake_smoke
FNDA:200,_RINvXs8_NtCs6zS5XWhHsrg_9api_bones10fake_implsNtNtB8_6health17ReadinessResponseINtCs8AlwinX4Uo_4fake5DummyNtB1i_5FakerE14dummy_with_rngNtNtNtCskvAakn1YBCQ_4rand4rngs6thread9ThreadRngECs52cul6wXlX0_10fake_smoke
FNDA:200,_RINvXsl_NtCs6zS5XWhHsrg_9api_bones10fake_implsNtNtB8_9ratelimit13RateLimitInfoINtCs8AlwinX4Uo_4fake5DummyNtB1h_5FakerE14dummy_with_rngNtNtNtCskvAakn1YBCQ_4rand4rngs6thread9ThreadRngECs52cul6wXlX0_10fake_smoke
FNDA:200,_RINvXsb_NtCs6zS5XWhHsrg_9api_bones10fake_implsINtNtB8_10pagination17PaginatedResponsemEINtCs8AlwinX4Uo_4fake5DummyNtB1q_5FakerE14dummy_with_rngNtNtNtCskvAakn1YBCQ_4rand4rngs6thread9ThreadRngECs52cul6wXlX0_10fake_smoke
FNDA:200,_RINvXsc_NtCs6zS5XWhHsrg_9api_bones10fake_implsNtNtB8_10pagination16PaginationParamsINtCs8AlwinX4Uo_4fake5DummyNtB1m_5FakerE14dummy_with_rngNtNtNtCskvAakn1YBCQ_4rand4rngs6thread9ThreadRngECs52cul6wXlX0_10fake_smoke
FNDA:400,_RINvXsd_NtCs6zS5XWhHsrg_9api_bones10fake_implsNtNtB8_10pagination16CursorPaginationINtCs8AlwinX4Uo_4fake5DummyNtB1m_5FakerE14dummy_with_rngNtNtNtCskvAakn1YBCQ_4rand4rngs6thread9ThreadRngECs52cul6wXlX0_10fake_smoke
FNDA:200,_RINvXse_NtCs6zS5XWhHsrg_9api_bones10fake_implsINtNtB8_10pagination23CursorPaginatedResponseNtNtCsipk7xt2ATo7_5alloc6string6StringEINtCs8AlwinX4Uo_4fake5DummyNtB27_5FakerE14dummy_with_rngNtNtNtCskvAakn1YBCQ_4rand4rngs6thread9ThreadRngECs52cul6wXlX0_10fake_smoke
FNDA:200,_RINvXsf_NtCs6zS5XWhHsrg_9api_bones10fake_implsNtNtB8_10pagination22CursorPaginationParamsINtCs8AlwinX4Uo_4fake5DummyNtB1s_5FakerE14dummy_with_rngNtNtNtCskvAakn1YBCQ_4rand4rngs6thread9ThreadRngECs52cul6wXlX0_10fake_smoke
FNDA:200,_RINvXsm_NtCs6zS5XWhHsrg_9api_bones10fake_implsNtNtB8_5audit9PrincipalINtCs8AlwinX4Uo_4fake5DummyNtB18_5FakerE14dummy_with_rngNtNtNtCskvAakn1YBCQ_4rand4rngs6thread9ThreadRngECs52cul6wXlX0_10fake_smoke
FNDA:250,_RINvXsn_NtCs6zS5XWhHsrg_9api_bones10fake_implsNtNtB8_5audit9AuditInfoINtCs8AlwinX4Uo_4fake5DummyNtB18_5FakerE14dummy_with_rngNtNtNtCskvAakn1YBCQ_4rand4rngs6thread9ThreadRngECs52cul6wXlX0_10fake_smoke
FNDA:1200,_RINvXs9_NtCs6zS5XWhHsrg_9api_bones10fake_implsNtNtB8_5links4LinkINtCs8AlwinX4Uo_4fake5DummyNtB13_5FakerE14dummy_with_rngNtNtNtCskvAakn1YBCQ_4rand4rngs6thread9ThreadRngECs52cul6wXlX0_10fake_smoke
FNDA:493,_RINvXsa_NtCs6zS5XWhHsrg_9api_bones10fake_implsNtNtB8_5links5LinksINtCs8AlwinX4Uo_4fake5DummyNtB14_5FakerE14dummy_with_rngNtNtNtCskvAakn1YBCQ_4rand4rngs6thread9ThreadRngECs52cul6wXlX0_10fake_smoke
FNF:47
FNH:47
DA:40,10660
DA:42,10660
DA:43,10660
DA:45,7443
DA:46,7443
DA:47,7443
DA:48,7443
DA:50,1299
DA:51,1299
DA:52,1299
DA:59,965
DA:61,965
DA:62,66
DA:63,65
DA:64,61
DA:65,64
DA:66,60
DA:67,82
DA:68,60
DA:69,55
DA:70,55
DA:71,80
DA:72,64
DA:73,54
DA:74,61
DA:75,66
DA:76,72
DA:78,965
DA:82,200
DA:83,200
DA:84,99
DA:85,99
DA:86,99
DA:88,101
DA:89,101
DA:90,101
DA:92,200
DA:96,1385
DA:98,1385
DA:99,1385
DA:100,1385
DA:101,700
DA:103,685
DA:106,1385
DA:110,765
DA:112,765
DA:113,765
DA:114,765
DA:115,765
DA:116,765
DA:117,765
DA:118,1185
DA:119,765
DA:121,765
DA:122,370
DA:124,395
DA:126,765
DA:127,765
DA:128,765
DA:129,765
DA:130,765
DA:131,765
DA:132,765
DA:133,765
DA:134,765
DA:135,765
DA:136,765
DA:137,765
DA:138,765
DA:139,765
DA:140,765
DA:148,710
DA:149,710
DA:150,710
DA:151,710
DA:152,710
DA:153,710
DA:157,200
DA:158,200
DA:159,101
DA:161,99
DA:163,99
DA:164,239
DA:165,99
DA:168,200
DA:172,200
DA:173,200
DA:174,97
DA:176,103
DA:178,103
DA:179,271
DA:180,103
DA:183,200
DA:191,1225
DA:192,1225
DA:193,420
DA:194,402
DA:195,403
DA:197,1225
DA:201,625
DA:203,625
DA:204,625
DA:205,625
DA:206,302
DA:208,323
DA:210,625
DA:211,325
DA:213,300
DA:216,625
DA:220,200
DA:221,200
DA:222,200
DA:223,200
DA:224,200
DA:225,200
DA:226,200
DA:227,200
DA:228,200
DA:229,200
DA:230,200
DA:231,200
DA:235,200
DA:237,200
DA:238,200
DA:239,200
DA:240,291
DA:241,291
DA:242,291
DA:243,425
DA:244,291
DA:246,200
DA:247,200
DA:248,200
DA:249,200
DA:250,200
DA:251,200
DA:252,200
DA:253,200
DA:254,200
DA:255,200
DA:256,200
DA:257,200
DA:265,1200
DA:266,1200
DA:267,1200
DA:268,1200
DA:269,1200
DA:270,628
DA:271,628
DA:272,628
DA:273,1200
DA:274,1200
DA:278,493
DA:279,493
DA:280,493
DA:281,1000
DA:282,1000
DA:283,1000
DA:284,493
DA:285,493
DA:293,200
DA:294,200
DA:295,491
DA:296,200
DA:297,200
DA:298,200
DA:299,200
DA:300,200
DA:301,200
DA:302,200
DA:303,200
DA:304,200
DA:305,200
DA:309,200
DA:312,200
DA:313,98
DA:315,102
DA:317,200
DA:318,97
DA:320,103
DA:323,200
DA:327,400
DA:328,400
DA:330,400
DA:331,400
DA:332,202
DA:334,198
DA:337,400
DA:341,200
DA:342,200
DA:343,483
DA:344,200
DA:345,200
DA:346,200
DA:347,200
DA:348,200
DA:352,200
DA:355,200
DA:356,101
DA:358,99
DA:360,200
DA:361,94
DA:363,106
DA:366,200
DA:374,400
DA:375,400
DA:376,197
DA:378,203
DA:380,400
DA:384,200
DA:385,200
DA:386,200
DA:390,579
DA:391,579
DA:392,579
DA:393,579
DA:394,579
DA:395,579
DA:397,579
DA:401,200
DA:402,200
DA:403,379
DA:404,200
DA:408,200
DA:410,200
DA:411,200
DA:412,200
DA:413,307
DA:414,200
DA:415,46
DA:417,154
DA:419,200
DA:427,200
DA:428,200
DA:429,200
DA:431,200
DA:432,200
DA:433,200
DA:434,0
DA:435,200
DA:436,200
DA:437,200
DA:445,200
DA:446,200
DA:447,200
DA:474,250
DA:476,250
DA:477,250
DA:478,250
DA:479,250
DA:480,250
DA:481,250
DA:482,250
DA:483,250
DA:484,250
DA:485,250
DA:486,250
DA:487,250
DA:488,250
DA:520,400
DA:521,400
DA:522,400
DA:523,211
DA:524,211
DA:525,400
DA:526,191
DA:527,191
DA:528,191
DA:529,191
DA:530,209
DA:531,400
DA:532,193
DA:533,193
DA:534,193
DA:535,193
DA:536,193
DA:537,193
DA:538,207
DA:539,400
DA:540,400
DA:544,200
DA:545,200
DA:546,200
DA:547,200
DA:548,93
DA:550,107
DA:552,200
DA:553,200
DA:554,93
DA:555,107
DA:556,200
DA:557,200
DA:565,200
DA:566,200
DA:567,905
DA:568,200
DA:569,200
DA:573,1079
DA:574,1079
DA:575,564
DA:576,564
DA:577,564
DA:579,515
DA:580,515
DA:581,515
DA:582,515
DA:584,1079
DA:588,200
DA:589,200
DA:590,200
DA:591,879
DA:592,200
DA:593,200
DA:601,200
DA:603,200
DA:604,200
DA:605,511
DA:606,511
DA:607,511
DA:608,3520
DA:609,3520
DA:610,3520
DA:611,3520
DA:612,511
DA:613,511
DA:614,200
DA:615,200
DA:617,200
DA:618,200
BRF:0
BRH:0
LF:341
LH:340
end_of_record
SF:/Users/gsalingu/git/api-bones/.claude/worktrees/feat+211-nested-org-adr/src/header.rs
FN:189,_RNvXs8_NtCs1ufPfM0GhR0_9api_bones6headerNtNtNtCsj901y1vRFmJ_4http6header5value11HeaderValueINtNtCsbUtogaBoXXO_4core7convert4FromNtB5_11HeaderValueE4from
FN:105,_RINvXs3_NtCs1ufPfM0GhR0_9api_bones6headerNtB6_10HeaderNameNtNtCseAJKguVKcII_10serde_core3ser9Serialize9serializeQINtNtCsdC8qrlXHNsA_10serde_json3ser10SerializerQINtNtCsipk7xt2ATo7_5alloc3vec3VechEEEB8_
FN:112,_RINvXs4_NtCs1ufPfM0GhR0_9api_bones6headerNtB6_10HeaderNameNtNtCseAJKguVKcII_10serde_core2de11Deserialize11deserializeQINtNtCsdC8qrlXHNsA_10serde_json2de12DeserializerNtNtB1X_4read7StrReadEEB8_
FN:204,_RINvXsa_NtCs1ufPfM0GhR0_9api_bones6headerNtB6_11HeaderValueNtNtCseAJKguVKcII_10serde_core3ser9Serialize9serializeQINtNtCsdC8qrlXHNsA_10serde_json3ser10SerializerQINtNtCsipk7xt2ATo7_5alloc3vec3VechEEEB8_
FN:71,_RNvMNtCs1ufPfM0GhR0_9api_bones6headerNtB2_10HeaderName10into_inner
FN:49,_RNvMNtCs1ufPfM0GhR0_9api_bones6headerNtB2_10HeaderName11from_static
FN:59,_RNvMNtCs1ufPfM0GhR0_9api_bones6headerNtB2_10HeaderName5parse
FN:65,_RNvMNtCs1ufPfM0GhR0_9api_bones6headerNtB2_10HeaderName6as_str
FN:168,_RNvMs5_NtCs1ufPfM0GhR0_9api_bones6headerNtB5_11HeaderValue10into_inner
FN:145,_RNvMs5_NtCs1ufPfM0GhR0_9api_bones6headerNtB5_11HeaderValue11from_static
FN:135,_RNvMs5_NtCs1ufPfM0GhR0_9api_bones6headerNtB5_11HeaderValue5parse
FN:156,_RNvMs5_NtCs1ufPfM0GhR0_9api_bones6headerNtB5_11HeaderValue6to_str
FN:162,_RNvMs5_NtCs1ufPfM0GhR0_9api_bones6headerNtB5_11HeaderValue8as_bytes
FN:84,_RNvXs0_NtCs1ufPfM0GhR0_9api_bones6headerNtB5_10HeaderNameINtNtCsbUtogaBoXXO_4core7convert4FromNtNtNtCsj901y1vRFmJ_4http6header4name10HeaderNameE4from
FN:98,_RNvXs2_NtCs1ufPfM0GhR0_9api_bones6headerNtB5_10HeaderNameNtNtNtCsbUtogaBoXXO_4core3str6traits7FromStr8from_str
FN:174,_RNvXs6_NtCs1ufPfM0GhR0_9api_bones6headerNtB5_11HeaderValueNtNtCsbUtogaBoXXO_4core3fmt7Display3fmt
FN:183,_RNvXs7_NtCs1ufPfM0GhR0_9api_bones6headerNtB5_11HeaderValueINtNtCsbUtogaBoXXO_4core7convert4FromNtNtNtCsj901y1vRFmJ_4http6header5value11HeaderValueE4from
FN:197,_RNvXs9_NtCs1ufPfM0GhR0_9api_bones6headerNtB5_11HeaderValueNtNtNtCsbUtogaBoXXO_4core3str6traits7FromStr8from_str
FN:78,_RNvXs_NtCs1ufPfM0GhR0_9api_bones6headerNtB4_10HeaderNameNtNtCsbUtogaBoXXO_4core3fmt7Display3fmt
FN:217,_RNvXsb_NtCs1ufPfM0GhR0_9api_bones6headerNtB5_11HeaderValueINtNtCsbUtogaBoXXO_4core7convert4FromNtNtB7_4etag4ETagE4from
FN:90,_RNvXs1_NtCs1ufPfM0GhR0_9api_bones6headerNtNtNtCsj901y1vRFmJ_4http6header4name10HeaderNameINtNtCsbUtogaBoXXO_4core7convert4FromNtB5_10HeaderNameE4from
FN:255,_RNvNtNtCs1ufPfM0GhR0_9api_bones6header5testss_19header_name_display
FN:294,_RNvNtNtCs1ufPfM0GhR0_9api_bones6header5testss_20header_value_display
FN:288,_RNvNtNtCs1ufPfM0GhR0_9api_bones6header5testss_21header_value_as_bytes
FN:308,_RNvNtNtCs1ufPfM0GhR0_9api_bones6header5testss_22etag_into_header_value
FN:334,_RNvNtNtCs1ufPfM0GhR0_9api_bones6header5testss_22header_name_into_inner
FN:238,_RNvNtNtCs1ufPfM0GhR0_9api_bones6header5testss_23header_name_from_static
FN:341,_RNvNtNtCs1ufPfM0GhR0_9api_bones6header5testss_23header_value_into_inner
FN:276,_RNvNtNtCs1ufPfM0GhR0_9api_bones6header5testss_24header_value_from_static
FN:365,_RNvNtNtCs1ufPfM0GhR0_9api_bones6header5testss_24header_value_parse_trait
FN:327,_RNvNtNtCs1ufPfM0GhR0_9api_bones6header5testss_24header_value_serde_ascii
FN:244,_RNvNtNtCs1ufPfM0GhR0_9api_bones6header5testss_26header_name_from_str_valid
FN:356,_RNvNtNtCs1ufPfM0GhR0_9api_bones6header5testss_27header_value_display_opaque
FN:270,_RNvNtNtCs1ufPfM0GhR0_9api_bones6header5testss_27header_value_from_str_valid
FN:250,_RNvNtNtCs1ufPfM0GhR0_9api_bones6header5testss_28header_name_from_str_invalid
FN:317,_RNvNtNtCs1ufPfM0GhR0_9api_bones6header5testss_28header_name_serde_round_trip
FN:262,_RNvNtNtCs1ufPfM0GhR0_9api_bones6header5testss_29header_name_round_trips_inner
FN:282,_RNvNtNtCs1ufPfM0GhR0_9api_bones6header5testss_29header_value_from_str_invalid
FN:300,_RNvNtNtCs1ufPfM0GhR0_9api_bones6header5testss_30header_value_round_trips_inner
FN:374,_RNvNtNtCs1ufPfM0GhR0_9api_bones6header5testss_31header_value_serde_opaque_bytes
FN:348,_RNvNtNtCs1ufPfM0GhR0_9api_bones6header5testss_32header_value_to_str_opaque_bytes
FN:105,_RINvXs3_NtCs6zS5XWhHsrg_9api_bones6headerNtB6_10HeaderNameNtNtCseAJKguVKcII_10serde_core3ser9Serialize9serializepEB8_
FN:112,_RINvXs4_NtCs6zS5XWhHsrg_9api_bones6headerNtB6_10HeaderNameNtNtCseAJKguVKcII_10serde_core2de11Deserialize11deserializepEB8_
FN:204,_RINvXsa_NtCs6zS5XWhHsrg_9api_bones6headerNtB6_11HeaderValueNtNtCseAJKguVKcII_10serde_core3ser9Serialize9serializepEB8_
FN:71,_RNvMNtCs6zS5XWhHsrg_9api_bones6headerNtB2_10HeaderName10into_inner
FN:49,_RNvMNtCs6zS5XWhHsrg_9api_bones6headerNtB2_10HeaderName11from_static
FN:59,_RNvMNtCs6zS5XWhHsrg_9api_bones6headerNtB2_10HeaderName5parse
FN:65,_RNvMNtCs6zS5XWhHsrg_9api_bones6headerNtB2_10HeaderName6as_str
FN:168,_RNvMs5_NtCs6zS5XWhHsrg_9api_bones6headerNtB5_11HeaderValue10into_inner
FN:145,_RNvMs5_NtCs6zS5XWhHsrg_9api_bones6headerNtB5_11HeaderValue11from_static
FN:135,_RNvMs5_NtCs6zS5XWhHsrg_9api_bones6headerNtB5_11HeaderValue5parse
FN:156,_RNvMs5_NtCs6zS5XWhHsrg_9api_bones6headerNtB5_11HeaderValue6to_str
FN:162,_RNvMs5_NtCs6zS5XWhHsrg_9api_bones6headerNtB5_11HeaderValue8as_bytes
FN:84,_RNvXs0_NtCs6zS5XWhHsrg_9api_bones6headerNtB5_10HeaderNameINtNtCsbUtogaBoXXO_4core7convert4FromNtNtNtCsj901y1vRFmJ_4http6header4name10HeaderNameE4from
FN:98,_RNvXs2_NtCs6zS5XWhHsrg_9api_bones6headerNtB5_10HeaderNameNtNtNtCsbUtogaBoXXO_4core3str6traits7FromStr8from_str
FN:174,_RNvXs6_NtCs6zS5XWhHsrg_9api_bones6headerNtB5_11HeaderValueNtNtCsbUtogaBoXXO_4core3fmt7Display3fmt
FN:183,_RNvXs7_NtCs6zS5XWhHsrg_9api_bones6headerNtB5_11HeaderValueINtNtCsbUtogaBoXXO_4core7convert4FromNtNtNtCsj901y1vRFmJ_4http6header5value11HeaderValueE4from
FN:197,_RNvXs9_NtCs6zS5XWhHsrg_9api_bones6headerNtB5_11HeaderValueNtNtNtCsbUtogaBoXXO_4core3str6traits7FromStr8from_str
FN:78,_RNvXs_NtCs6zS5XWhHsrg_9api_bones6headerNtB4_10HeaderNameNtNtCsbUtogaBoXXO_4core3fmt7Display3fmt
FN:217,_RNvXsb_NtCs6zS5XWhHsrg_9api_bones6headerNtB5_11HeaderValueINtNtCsbUtogaBoXXO_4core7convert4FromNtNtB7_4etag4ETagE4from
FN:189,_RNvXs8_NtCs6zS5XWhHsrg_9api_bones6headerNtNtNtCsj901y1vRFmJ_4http6header5value11HeaderValueINtNtCsbUtogaBoXXO_4core7convert4FromNtB5_11HeaderValueE4from
FN:90,_RNvXs1_NtCs6zS5XWhHsrg_9api_bones6headerNtNtNtCsj901y1vRFmJ_4http6header4name10HeaderNameINtNtCsbUtogaBoXXO_4core7convert4FromNtB5_10HeaderNameE4from
FNDA:1,_RNvXs8_NtCs1ufPfM0GhR0_9api_bones6headerNtNtNtCsj901y1vRFmJ_4http6header5value11HeaderValueINtNtCsbUtogaBoXXO_4core7convert4FromNtB5_11HeaderValueE4from
FNDA:1,_RINvXs3_NtCs1ufPfM0GhR0_9api_bones6headerNtB6_10HeaderNameNtNtCseAJKguVKcII_10serde_core3ser9Serialize9serializeQINtNtCsdC8qrlXHNsA_10serde_json3ser10SerializerQINtNtCsipk7xt2ATo7_5alloc3vec3VechEEEB8_
FNDA:1,_RINvXs4_NtCs1ufPfM0GhR0_9api_bones6headerNtB6_10HeaderNameNtNtCseAJKguVKcII_10serde_core2de11Deserialize11deserializeQINtNtCsdC8qrlXHNsA_10serde_json2de12DeserializerNtNtB1X_4read7StrReadEEB8_
FNDA:2,_RINvXsa_NtCs1ufPfM0GhR0_9api_bones6headerNtB6_11HeaderValueNtNtCseAJKguVKcII_10serde_core3ser9Serialize9serializeQINtNtCsdC8qrlXHNsA_10serde_json3ser10SerializerQINtNtCsipk7xt2ATo7_5alloc3vec3VechEEEB8_
FNDA:1,_RNvMNtCs1ufPfM0GhR0_9api_bones6headerNtB2_10HeaderName10into_inner
FNDA:4,_RNvMNtCs1ufPfM0GhR0_9api_bones6headerNtB2_10HeaderName11from_static
FNDA:3,_RNvMNtCs1ufPfM0GhR0_9api_bones6headerNtB2_10HeaderName5parse
FNDA:2,_RNvMNtCs1ufPfM0GhR0_9api_bones6headerNtB2_10HeaderName6as_str
FNDA:1,_RNvMs5_NtCs1ufPfM0GhR0_9api_bones6headerNtB5_11HeaderValue10into_inner
FNDA:5,_RNvMs5_NtCs1ufPfM0GhR0_9api_bones6headerNtB5_11HeaderValue11from_static
FNDA:4,_RNvMs5_NtCs1ufPfM0GhR0_9api_bones6headerNtB5_11HeaderValue5parse
FNDA:5,_RNvMs5_NtCs1ufPfM0GhR0_9api_bones6headerNtB5_11HeaderValue6to_str
FNDA:1,_RNvMs5_NtCs1ufPfM0GhR0_9api_bones6headerNtB5_11HeaderValue8as_bytes
FNDA:1,_RNvXs0_NtCs1ufPfM0GhR0_9api_bones6headerNtB5_10HeaderNameINtNtCsbUtogaBoXXO_4core7convert4FromNtNtNtCsj901y1vRFmJ_4http6header4name10HeaderNameE4from
FNDA:1,_RNvXs2_NtCs1ufPfM0GhR0_9api_bones6headerNtB5_10HeaderNameNtNtNtCsbUtogaBoXXO_4core3str6traits7FromStr8from_str
FNDA:2,_RNvXs6_NtCs1ufPfM0GhR0_9api_bones6headerNtB5_11HeaderValueNtNtCsbUtogaBoXXO_4core3fmt7Display3fmt
FNDA:4,_RNvXs7_NtCs1ufPfM0GhR0_9api_bones6headerNtB5_11HeaderValueINtNtCsbUtogaBoXXO_4core7convert4FromNtNtNtCsj901y1vRFmJ_4http6header5value11HeaderValueE4from
FNDA:2,_RNvXs9_NtCs1ufPfM0GhR0_9api_bones6headerNtB5_11HeaderValueNtNtNtCsbUtogaBoXXO_4core3str6traits7FromStr8from_str
FNDA:2,_RNvXs_NtCs1ufPfM0GhR0_9api_bones6headerNtB4_10HeaderNameNtNtCsbUtogaBoXXO_4core3fmt7Display3fmt
FNDA:1,_RNvXsb_NtCs1ufPfM0GhR0_9api_bones6headerNtB5_11HeaderValueINtNtCsbUtogaBoXXO_4core7convert4FromNtNtB7_4etag4ETagE4from
FNDA:1,_RNvXs1_NtCs1ufPfM0GhR0_9api_bones6headerNtNtNtCsj901y1vRFmJ_4http6header4name10HeaderNameINtNtCsbUtogaBoXXO_4core7convert4FromNtB5_10HeaderNameE4from
FNDA:1,_RNvNtNtCs1ufPfM0GhR0_9api_bones6header5testss_19header_name_display
FNDA:1,_RNvNtNtCs1ufPfM0GhR0_9api_bones6header5testss_20header_value_display
FNDA:1,_RNvNtNtCs1ufPfM0GhR0_9api_bones6header5testss_21header_value_as_bytes
FNDA:1,_RNvNtNtCs1ufPfM0GhR0_9api_bones6header5testss_22etag_into_header_value
FNDA:1,_RNvNtNtCs1ufPfM0GhR0_9api_bones6header5testss_22header_name_into_inner
FNDA:1,_RNvNtNtCs1ufPfM0GhR0_9api_bones6header5testss_23header_name_from_static
FNDA:1,_RNvNtNtCs1ufPfM0GhR0_9api_bones6header5testss_23header_value_into_inner
FNDA:1,_RNvNtNtCs1ufPfM0GhR0_9api_bones6header5testss_24header_value_from_static
FNDA:1,_RNvNtNtCs1ufPfM0GhR0_9api_bones6header5testss_24header_value_parse_trait
FNDA:1,_RNvNtNtCs1ufPfM0GhR0_9api_bones6header5testss_24header_value_serde_ascii
FNDA:1,_RNvNtNtCs1ufPfM0GhR0_9api_bones6header5testss_26header_name_from_str_valid
FNDA:1,_RNvNtNtCs1ufPfM0GhR0_9api_bones6header5testss_27header_value_display_opaque
FNDA:1,_RNvNtNtCs1ufPfM0GhR0_9api_bones6header5testss_27header_value_from_str_valid
FNDA:1,_RNvNtNtCs1ufPfM0GhR0_9api_bones6header5testss_28header_name_from_str_invalid
FNDA:1,_RNvNtNtCs1ufPfM0GhR0_9api_bones6header5testss_28header_name_serde_round_trip
FNDA:1,_RNvNtNtCs1ufPfM0GhR0_9api_bones6header5testss_29header_name_round_trips_inner
FNDA:1,_RNvNtNtCs1ufPfM0GhR0_9api_bones6header5testss_29header_value_from_str_invalid
FNDA:1,_RNvNtNtCs1ufPfM0GhR0_9api_bones6header5testss_30header_value_round_trips_inner
FNDA:1,_RNvNtNtCs1ufPfM0GhR0_9api_bones6header5testss_31header_value_serde_opaque_bytes
FNDA:1,_RNvNtNtCs1ufPfM0GhR0_9api_bones6header5testss_32header_value_to_str_opaque_bytes
FNDA:0,_RINvXs3_NtCs6zS5XWhHsrg_9api_bones6headerNtB6_10HeaderNameNtNtCseAJKguVKcII_10serde_core3ser9Serialize9serializepEB8_
FNDA:0,_RINvXs4_NtCs6zS5XWhHsrg_9api_bones6headerNtB6_10HeaderNameNtNtCseAJKguVKcII_10serde_core2de11Deserialize11deserializepEB8_
FNDA:0,_RINvXsa_NtCs6zS5XWhHsrg_9api_bones6headerNtB6_11HeaderValueNtNtCseAJKguVKcII_10serde_core3ser9Serialize9serializepEB8_
FNDA:0,_RNvMNtCs6zS5XWhHsrg_9api_bones6headerNtB2_10HeaderName10into_inner
FNDA:0,_RNvMNtCs6zS5XWhHsrg_9api_bones6headerNtB2_10HeaderName11from_static
FNDA:0,_RNvMNtCs6zS5XWhHsrg_9api_bones6headerNtB2_10HeaderName5parse
FNDA:0,_RNvMNtCs6zS5XWhHsrg_9api_bones6headerNtB2_10HeaderName6as_str
FNDA:0,_RNvMs5_NtCs6zS5XWhHsrg_9api_bones6headerNtB5_11HeaderValue10into_inner
FNDA:0,_RNvMs5_NtCs6zS5XWhHsrg_9api_bones6headerNtB5_11HeaderValue11from_static
FNDA:0,_RNvMs5_NtCs6zS5XWhHsrg_9api_bones6headerNtB5_11HeaderValue5parse
FNDA:0,_RNvMs5_NtCs6zS5XWhHsrg_9api_bones6headerNtB5_11HeaderValue6to_str
FNDA:0,_RNvMs5_NtCs6zS5XWhHsrg_9api_bones6headerNtB5_11HeaderValue8as_bytes
FNDA:0,_RNvXs0_NtCs6zS5XWhHsrg_9api_bones6headerNtB5_10HeaderNameINtNtCsbUtogaBoXXO_4core7convert4FromNtNtNtCsj901y1vRFmJ_4http6header4name10HeaderNameE4from
FNDA:0,_RNvXs2_NtCs6zS5XWhHsrg_9api_bones6headerNtB5_10HeaderNameNtNtNtCsbUtogaBoXXO_4core3str6traits7FromStr8from_str
FNDA:0,_RNvXs6_NtCs6zS5XWhHsrg_9api_bones6headerNtB5_11HeaderValueNtNtCsbUtogaBoXXO_4core3fmt7Display3fmt
FNDA:0,_RNvXs7_NtCs6zS5XWhHsrg_9api_bones6headerNtB5_11HeaderValueINtNtCsbUtogaBoXXO_4core7convert4FromNtNtNtCsj901y1vRFmJ_4http6header5value11HeaderValueE4from
FNDA:0,_RNvXs9_NtCs6zS5XWhHsrg_9api_bones6headerNtB5_11HeaderValueNtNtNtCsbUtogaBoXXO_4core3str6traits7FromStr8from_str
FNDA:0,_RNvXs_NtCs6zS5XWhHsrg_9api_bones6headerNtB4_10HeaderNameNtNtCsbUtogaBoXXO_4core3fmt7Display3fmt
FNDA:0,_RNvXsb_NtCs6zS5XWhHsrg_9api_bones6headerNtB5_11HeaderValueINtNtCsbUtogaBoXXO_4core7convert4FromNtNtB7_4etag4ETagE4from
FNDA:0,_RNvXs8_NtCs6zS5XWhHsrg_9api_bones6headerNtNtNtCsj901y1vRFmJ_4http6header5value11HeaderValueINtNtCsbUtogaBoXXO_4core7convert4FromNtB5_11HeaderValueE4from
FNDA:0,_RNvXs1_NtCs6zS5XWhHsrg_9api_bones6headerNtNtNtCsj901y1vRFmJ_4http6header4name10HeaderNameINtNtCsbUtogaBoXXO_4core7convert4FromNtB5_10HeaderNameE4from
FNF:41
FNH:41
DA:49,4
DA:50,4
DA:51,4
DA:59,3
DA:60,3
DA:61,3
DA:65,2
DA:66,2
DA:67,2
DA:71,1
DA:72,1
DA:73,1
DA:78,2
DA:79,2
DA:80,2
DA:84,1
DA:85,1
DA:86,1
DA:90,1
DA:91,1
DA:92,1
DA:98,1
DA:99,1
DA:100,1
DA:105,1
DA:106,1
DA:107,1
DA:112,1
DA:113,1
DA:114,1
DA:115,1
DA:135,4
DA:136,4
DA:137,4
DA:145,5
DA:146,5
DA:147,5
DA:156,5
DA:157,5
DA:158,5
DA:162,1
DA:163,1
DA:164,1
DA:168,1
DA:169,1
DA:170,1
DA:174,2
DA:175,2
DA:176,1
DA:177,1
DA:179,2
DA:183,4
DA:184,4
DA:185,4
DA:189,1
DA:190,1
DA:191,1
DA:197,2
DA:198,2
DA:199,2
DA:204,2
DA:205,2
DA:206,1
DA:207,1
DA:209,2
DA:217,1
DA:221,1
DA:222,1
DA:223,1
DA:224,1
DA:225,1
DA:226,1
DA:238,1
DA:239,1
DA:240,1
DA:241,1
DA:244,1
DA:245,1
DA:246,1
DA:247,1
DA:250,1
DA:251,1
DA:252,1
DA:255,1
DA:256,1
DA:257,1
DA:258,1
DA:259,1
DA:262,1
DA:263,1
DA:264,1
DA:265,1
DA:266,1
DA:267,1
DA:270,1
DA:271,1
DA:272,1
DA:273,1
DA:276,1
DA:277,1
DA:278,1
DA:279,1
DA:282,1
DA:284,1
DA:285,1
DA:288,1
DA:289,1
DA:290,1
DA:291,1
DA:294,1
DA:295,1
DA:296,1
DA:297,1
DA:300,1
DA:301,1
DA:302,1
DA:303,1
DA:304,1
DA:305,1
DA:308,1
DA:310,1
DA:311,1
DA:312,1
DA:313,1
DA:317,1
DA:318,1
DA:319,1
DA:320,1
DA:321,1
DA:322,1
DA:323,1
DA:327,1
DA:328,1
DA:329,1
DA:330,1
DA:331,1
DA:334,1
DA:335,1
DA:336,1
DA:337,1
DA:338,1
DA:341,1
DA:342,1
DA:343,1
DA:344,1
DA:345,1
DA:348,1
DA:350,1
DA:351,1
DA:352,1
DA:353,1
DA:356,1
DA:358,1
DA:359,1
DA:360,1
DA:361,1
DA:362,1
DA:365,1
DA:367,1
DA:368,1
DA:369,1
DA:370,1
DA:374,1
DA:376,1
DA:377,1
DA:378,1
DA:380,1
DA:381,1
BRF:0
BRH:0
LF:168
LH:168
end_of_record
SF:/Users/gsalingu/git/api-bones/.claude/worktrees/feat+211-nested-org-adr/src/header_id.rs
FN:121,_RNvNtNtCs1ufPfM0GhR0_9api_bones9header_id5testss_12header_names
FN:135,_RNvNtNtCs1ufPfM0GhR0_9api_bones9header_id5testss_17as_str_request_id
FN:153,_RNvNtNtCs1ufPfM0GhR0_9api_bones9header_id5testss_20as_str_trace_context
FN:141,_RNvNtNtCs1ufPfM0GhR0_9api_bones9header_id5testss_21as_str_correlation_id
FN:147,_RNvNtNtCs1ufPfM0GhR0_9api_bones9header_id5testss_22as_str_idempotency_key
FN:172,_RNvNtNtCs1ufPfM0GhR0_9api_bones9header_id5testss_22generic_header_name_fn
FN:164,_RNvNtNtCs1ufPfM0GhR0_9api_bones9header_id5testss_28header_name_instance_methods
FN:130,_RINvNtNtCs1ufPfM0GhR0_9api_bones9header_id5tests12trait_as_strNtNtB6_10request_id9RequestIdEB6_
FN:130,_RINvNtNtCs1ufPfM0GhR0_9api_bones9header_id5tests12trait_as_strNtNtB6_11idempotency14IdempotencyKeyEB6_
FN:130,_RINvNtNtCs1ufPfM0GhR0_9api_bones9header_id5tests12trait_as_strNtNtB6_11traceparent12TraceContextEB6_
FN:130,_RINvNtNtCs1ufPfM0GhR0_9api_bones9header_id5tests12trait_as_strNtNtB6_14correlation_id13CorrelationIdEB6_
FN:173,_RINvNvNtNtCs1ufPfM0GhR0_9api_bones9header_id5testss_22generic_header_name_fn14header_name_ofNtNtB8_10request_id9RequestIdEB8_
FN:173,_RINvNvNtNtCs1ufPfM0GhR0_9api_bones9header_id5testss_22generic_header_name_fn14header_name_ofNtNtB8_11idempotency14IdempotencyKeyEB8_
FN:173,_RINvNvNtNtCs1ufPfM0GhR0_9api_bones9header_id5testss_22generic_header_name_fn14header_name_ofNtNtB8_11traceparent12TraceContextEB8_
FN:173,_RINvNvNtNtCs1ufPfM0GhR0_9api_bones9header_id5testss_22generic_header_name_fn14header_name_ofNtNtB8_14correlation_id13CorrelationIdEB8_
FNDA:1,_RNvNtNtCs1ufPfM0GhR0_9api_bones9header_id5testss_12header_names
FNDA:1,_RNvNtNtCs1ufPfM0GhR0_9api_bones9header_id5testss_17as_str_request_id
FNDA:1,_RNvNtNtCs1ufPfM0GhR0_9api_bones9header_id5testss_20as_str_trace_context
FNDA:1,_RNvNtNtCs1ufPfM0GhR0_9api_bones9header_id5testss_21as_str_correlation_id
FNDA:1,_RNvNtNtCs1ufPfM0GhR0_9api_bones9header_id5testss_22as_str_idempotency_key
FNDA:1,_RNvNtNtCs1ufPfM0GhR0_9api_bones9header_id5testss_22generic_header_name_fn
FNDA:1,_RNvNtNtCs1ufPfM0GhR0_9api_bones9header_id5testss_28header_name_instance_methods
FNDA:1,_RINvNtNtCs1ufPfM0GhR0_9api_bones9header_id5tests12trait_as_strNtNtB6_10request_id9RequestIdEB6_
FNDA:1,_RINvNtNtCs1ufPfM0GhR0_9api_bones9header_id5tests12trait_as_strNtNtB6_11idempotency14IdempotencyKeyEB6_
FNDA:1,_RINvNtNtCs1ufPfM0GhR0_9api_bones9header_id5tests12trait_as_strNtNtB6_11traceparent12TraceContextEB6_
FNDA:1,_RINvNtNtCs1ufPfM0GhR0_9api_bones9header_id5tests12trait_as_strNtNtB6_14correlation_id13CorrelationIdEB6_
FNDA:1,_RINvNvNtNtCs1ufPfM0GhR0_9api_bones9header_id5testss_22generic_header_name_fn14header_name_ofNtNtB8_10request_id9RequestIdEB8_
FNDA:1,_RINvNvNtNtCs1ufPfM0GhR0_9api_bones9header_id5testss_22generic_header_name_fn14header_name_ofNtNtB8_11idempotency14IdempotencyKeyEB8_
FNDA:1,_RINvNvNtNtCs1ufPfM0GhR0_9api_bones9header_id5testss_22generic_header_name_fn14header_name_ofNtNtB8_11traceparent12TraceContextEB8_
FNDA:1,_RINvNvNtNtCs1ufPfM0GhR0_9api_bones9header_id5testss_22generic_header_name_fn14header_name_ofNtNtB8_14correlation_id13CorrelationIdEB8_
FNF:9
FNH:9
DA:121,1
DA:122,1
DA:123,1
DA:124,1
DA:125,1
DA:126,1
DA:130,4
DA:131,4
DA:132,4
DA:135,1
DA:136,1
DA:137,1
DA:138,1
DA:141,1
DA:142,1
DA:143,1
DA:144,1
DA:147,1
DA:148,1
DA:149,1
DA:150,1
DA:153,1
DA:154,1
DA:155,1
DA:156,1
DA:157,1
DA:158,1
DA:161,1
DA:164,1
DA:165,1
DA:166,1
DA:167,1
DA:168,1
DA:169,1
DA:172,1
DA:173,4
DA:174,4
DA:175,4
DA:176,1
DA:177,1
DA:178,1
DA:179,1
DA:180,1
BRF:0
BRH:0
LF:43
LH:43
end_of_record
SF:/Users/gsalingu/git/api-bones/.claude/worktrees/feat+211-nested-org-adr/src/health.rs
FN:199,_RINvMs0_NtCs1ufPfM0GhR0_9api_bones6healthNtB6_11HealthCheck4failReB10_EB8_
FN:179,_RINvMs0_NtCs1ufPfM0GhR0_9api_bones6healthNtB6_11HealthCheck4passReEB8_
FN:219,_RINvMs0_NtCs1ufPfM0GhR0_9api_bones6healthNtB6_11HealthCheck4warnReB10_EB8_
FN:240,_RINvMs0_NtCs1ufPfM0GhR0_9api_bones6healthNtB6_11HealthCheck9with_timeReEB8_
FN:295,_RINvMs1_NtCs1ufPfM0GhR0_9api_bones6healthINtB6_18HealthCheckBuilderuNtB6_12HealthStatusE14component_typeReEB8_
FN:295,_RINvMs1_NtCs1ufPfM0GhR0_9api_bones6healthINtB6_18HealthCheckBuilderuuE14component_typeReEB8_
FN:332,_RINvMs3_NtCs1ufPfM0GhR0_9api_bones6healthINtB6_18HealthCheckBuilderNtNtCsipk7xt2ATo7_5alloc6string6StringNtB6_12HealthStatusE4timeReEB8_
FN:325,_RINvMs3_NtCs1ufPfM0GhR0_9api_bones6healthINtB6_18HealthCheckBuilderNtNtCsipk7xt2ATo7_5alloc6string6StringNtB6_12HealthStatusE6outputReEB8_
FN:395,_RINvMs5_NtCs1ufPfM0GhR0_9api_bones6healthNtB6_16LivenessResponse4passReB15_EB8_
FN:461,_RINvMs6_NtCs1ufPfM0GhR0_9api_bones6healthNtB6_17ReadinessResponse3newNtNtCsipk7xt2ATo7_5alloc6string6StringB15_EB8_
FN:461,_RINvMs6_NtCs1ufPfM0GhR0_9api_bones6healthNtB6_17ReadinessResponse3newReB15_EB8_
FN:551,_RINvMs7_NtCs1ufPfM0GhR0_9api_bones6healthINtB6_24ReadinessResponseBuilderuuE7versionReEB8_
FN:563,_RINvMs8_NtCs1ufPfM0GhR0_9api_bones6healthINtB6_24ReadinessResponseBuilderNtNtCsipk7xt2ATo7_5alloc6string6StringuE10service_idReEB8_
FN:579,_RINvMs9_NtCs1ufPfM0GhR0_9api_bones6healthINtB6_24ReadinessResponseBuilderNtNtCsipk7xt2ATo7_5alloc6string6StringB19_E9add_checkReEB8_
FN:311,_RNvMs2_NtCs1ufPfM0GhR0_9api_bones6healthINtB5_18HealthCheckBuilderNtNtCsipk7xt2ATo7_5alloc6string6StringuE6statusB7_
FN:311,_RNvMs2_NtCs1ufPfM0GhR0_9api_bones6healthINtB5_18HealthCheckBuilderuuE6statusB7_
FN:679,_RNvNtNtCs1ufPfM0GhR0_9api_bones6health5testss_20liveness_wire_format
FN:619,_RNvNtNtCs1ufPfM0GhR0_9api_bones6health5testss_21health_status_display
FN:689,_RNvNtNtCs1ufPfM0GhR0_9api_bones6health5testss_21readiness_wire_format
FN:718,_RNvNtNtCs1ufPfM0GhR0_9api_bones6health5testss_22health_check_with_time
FN:605,_RNvNtNtCs1ufPfM0GhR0_9api_bones6health5testss_24health_status_http_codes
FN:626,_RNvNtNtCs1ufPfM0GhR0_9api_bones6health5testss_24readiness_aggregate_pass
FN:654,_RNvNtNtCs1ufPfM0GhR0_9api_bones6health5testss_24readiness_aggregate_warn
FN:726,_RNvNtNtCs1ufPfM0GhR0_9api_bones6health5testss_24serde_roundtrip_liveness
FN:740,_RNvNtNtCs1ufPfM0GhR0_9api_bones6health5testss_26health_check_builder_basic
FN:612,_RNvNtNtCs1ufPfM0GhR0_9api_bones6health5testss_26health_status_is_available
FN:805,_RNvNtNtCs1ufPfM0GhR0_9api_bones6health5testss_27readiness_builder_add_check
FN:859,_RNvNtNtCs1ufPfM0GhR0_9api_bones6health5testss_29health_status_schema_is_valid
FN:638,_RNvNtNtCs1ufPfM0GhR0_9api_bones6health5testss_29readiness_aggregate_fail_wins
FN:828,_RNvNtNtCs1ufPfM0GhR0_9api_bones6health5testss_32readiness_builder_aggregate_fail
FN:867,_RNvNtNtCs1ufPfM0GhR0_9api_bones6health5testss_33liveness_response_schema_is_valid
FN:709,_RNvNtNtCs1ufPfM0GhR0_9api_bones6health5testss_34health_check_omits_optional_fields
FN:671,_RNvNtNtCs1ufPfM0GhR0_9api_bones6health5testss_34health_status_serializes_lowercase
FN:793,_RNvNtNtCs1ufPfM0GhR0_9api_bones6health5testss_38readiness_builder_empty_checks_is_pass
FN:839,_RNvNtNtCs1ufPfM0GhR0_9api_bones6health5testss_38readiness_builder_equivalence_with_new
FN:765,_RNvNtNtCs1ufPfM0GhR0_9api_bones6health5testss_39health_check_builder_chaining_optionals
FN:752,_RNvNtNtCs1ufPfM0GhR0_9api_bones6health5testss_42health_check_builder_equivalence_with_pass
FN:816,_RNvNtNtCs1ufPfM0GhR0_9api_bones6health5testss_46readiness_builder_add_multiple_checks_same_key
FN:778,_RNvNtNtCs1ufPfM0GhR0_9api_bones6health5testss_49health_check_builder_status_before_component_type
FN:94,_RNvMNtCs1ufPfM0GhR0_9api_bones6healthNtB2_12HealthStatus11http_status
FN:113,_RNvMNtCs1ufPfM0GhR0_9api_bones6healthNtB2_12HealthStatus12is_available
FN:261,_RNvMs0_NtCs1ufPfM0GhR0_9api_bones6healthNtB5_11HealthCheck7builder
FN:344,_RNvMs4_NtCs1ufPfM0GhR0_9api_bones6healthINtB5_18HealthCheckBuilderNtNtCsipk7xt2ATo7_5alloc6string6StringNtB5_12HealthStatusE5build
FN:477,_RNvMs6_NtCs1ufPfM0GhR0_9api_bones6healthNtB5_17ReadinessResponse11http_status
FN:508,_RNvMs6_NtCs1ufPfM0GhR0_9api_bones6healthNtB5_17ReadinessResponse16aggregate_status
FN:499,_RNvMs6_NtCs1ufPfM0GhR0_9api_bones6healthNtB5_17ReadinessResponse7builder
FN:591,_RNvMsa_NtCs1ufPfM0GhR0_9api_bones6healthINtB5_24ReadinessResponseBuilderNtNtCsipk7xt2ATo7_5alloc6string6StringB18_E5build
FN:119,_RNvXs_NtCs1ufPfM0GhR0_9api_bones6healthNtB4_12HealthStatusNtNtCsbUtogaBoXXO_4core3fmt7Display3fmt
FN:199,_RINvMs0_NtCs6zS5XWhHsrg_9api_bones6healthNtB6_11HealthCheck4failppEB8_
FN:179,_RINvMs0_NtCs6zS5XWhHsrg_9api_bones6healthNtB6_11HealthCheck4passpEB8_
FN:219,_RINvMs0_NtCs6zS5XWhHsrg_9api_bones6healthNtB6_11HealthCheck4warnppEB8_
FN:240,_RINvMs0_NtCs6zS5XWhHsrg_9api_bones6healthNtB6_11HealthCheck9with_timepEB8_
FN:295,_RINvMs1_NtCs6zS5XWhHsrg_9api_bones6healthINtB6_18HealthCheckBuilderupE14component_typepEB8_
FN:332,_RINvMs3_NtCs6zS5XWhHsrg_9api_bones6healthINtB6_18HealthCheckBuilderppE4timepEB8_
FN:325,_RINvMs3_NtCs6zS5XWhHsrg_9api_bones6healthINtB6_18HealthCheckBuilderppE6outputpEB8_
FN:395,_RINvMs5_NtCs6zS5XWhHsrg_9api_bones6healthNtB6_16LivenessResponse4passppEB8_
FN:551,_RINvMs7_NtCs6zS5XWhHsrg_9api_bones6healthINtB6_24ReadinessResponseBuilderupE7versionpEB8_
FN:563,_RINvMs8_NtCs6zS5XWhHsrg_9api_bones6healthINtB6_24ReadinessResponseBuilderpuE10service_idpEB8_
FN:579,_RINvMs9_NtCs6zS5XWhHsrg_9api_bones6healthINtB6_24ReadinessResponseBuilderppE9add_checkpEB8_
FN:311,_RNvMs2_NtCs6zS5XWhHsrg_9api_bones6healthINtB5_18HealthCheckBuilderpuE6statusB7_
FN:461,_RINvMs6_NtCs6zS5XWhHsrg_9api_bones6healthNtB6_17ReadinessResponse3newNtNtCsipk7xt2ATo7_5alloc6string6StringB15_EB8_
FN:94,_RNvMNtCs6zS5XWhHsrg_9api_bones6healthNtB2_12HealthStatus11http_status
FN:113,_RNvMNtCs6zS5XWhHsrg_9api_bones6healthNtB2_12HealthStatus12is_available
FN:261,_RNvMs0_NtCs6zS5XWhHsrg_9api_bones6healthNtB5_11HealthCheck7builder
FN:344,_RNvMs4_NtCs6zS5XWhHsrg_9api_bones6healthINtB5_18HealthCheckBuilderNtNtCsipk7xt2ATo7_5alloc6string6StringNtB5_12HealthStatusE5build
FN:477,_RNvMs6_NtCs6zS5XWhHsrg_9api_bones6healthNtB5_17ReadinessResponse11http_status
FN:508,_RNvMs6_NtCs6zS5XWhHsrg_9api_bones6healthNtB5_17ReadinessResponse16aggregate_status
FN:499,_RNvMs6_NtCs6zS5XWhHsrg_9api_bones6healthNtB5_17ReadinessResponse7builder
FN:591,_RNvMsa_NtCs6zS5XWhHsrg_9api_bones6healthINtB5_24ReadinessResponseBuilderNtNtCsipk7xt2ATo7_5alloc6string6StringB18_E5build
FN:119,_RNvXs_NtCs6zS5XWhHsrg_9api_bones6healthNtB4_12HealthStatusNtNtCsbUtogaBoXXO_4core3fmt7Display3fmt
FN:199,_RINvMs0_NtCs6zS5XWhHsrg_9api_bones6healthNtB6_11HealthCheck4failReB10_ECs40kQroo22wE_12health_check
FN:179,_RINvMs0_NtCs6zS5XWhHsrg_9api_bones6healthNtB6_11HealthCheck4passReECs40kQroo22wE_12health_check
FN:219,_RINvMs0_NtCs6zS5XWhHsrg_9api_bones6healthNtB6_11HealthCheck4warnReB10_ECs40kQroo22wE_12health_check
FN:295,_RINvMs1_NtCs6zS5XWhHsrg_9api_bones6healthINtB6_18HealthCheckBuilderuuE14component_typeReECs40kQroo22wE_12health_check
FN:332,_RINvMs3_NtCs6zS5XWhHsrg_9api_bones6healthINtB6_18HealthCheckBuilderNtNtCsipk7xt2ATo7_5alloc6string6StringNtB6_12HealthStatusE4timeReECs40kQroo22wE_12health_check
FN:325,_RINvMs3_NtCs6zS5XWhHsrg_9api_bones6healthINtB6_18HealthCheckBuilderNtNtCsipk7xt2ATo7_5alloc6string6StringNtB6_12HealthStatusE6outputReECs40kQroo22wE_12health_check
FN:551,_RINvMs7_NtCs6zS5XWhHsrg_9api_bones6healthINtB6_24ReadinessResponseBuilderuuE7versionReECs40kQroo22wE_12health_check
FN:563,_RINvMs8_NtCs6zS5XWhHsrg_9api_bones6healthINtB6_24ReadinessResponseBuilderNtNtCsipk7xt2ATo7_5alloc6string6StringuE10service_idReECs40kQroo22wE_12health_check
FN:579,_RINvMs9_NtCs6zS5XWhHsrg_9api_bones6healthINtB6_24ReadinessResponseBuilderNtNtCsipk7xt2ATo7_5alloc6string6StringB19_E9add_checkReECs40kQroo22wE_12health_check
FN:311,_RNvMs2_NtCs6zS5XWhHsrg_9api_bones6healthINtB5_18HealthCheckBuilderNtNtCsipk7xt2ATo7_5alloc6string6StringuE6statusCs40kQroo22wE_12health_check
FNDA:2,_RINvMs0_NtCs1ufPfM0GhR0_9api_bones6healthNtB6_11HealthCheck4failReB10_EB8_
FNDA:11,_RINvMs0_NtCs1ufPfM0GhR0_9api_bones6healthNtB6_11HealthCheck4passReEB8_
FNDA:2,_RINvMs0_NtCs1ufPfM0GhR0_9api_bones6healthNtB6_11HealthCheck4warnReB10_EB8_
FNDA:1,_RINvMs0_NtCs1ufPfM0GhR0_9api_bones6healthNtB6_11HealthCheck9with_timeReEB8_
FNDA:1,_RINvMs1_NtCs1ufPfM0GhR0_9api_bones6healthINtB6_18HealthCheckBuilderuNtB6_12HealthStatusE14component_typeReEB8_
FNDA:3,_RINvMs1_NtCs1ufPfM0GhR0_9api_bones6healthINtB6_18HealthCheckBuilderuuE14component_typeReEB8_
FNDA:1,_RINvMs3_NtCs1ufPfM0GhR0_9api_bones6healthINtB6_18HealthCheckBuilderNtNtCsipk7xt2ATo7_5alloc6string6StringNtB6_12HealthStatusE4timeReEB8_
FNDA:1,_RINvMs3_NtCs1ufPfM0GhR0_9api_bones6healthINtB6_18HealthCheckBuilderNtNtCsipk7xt2ATo7_5alloc6string6StringNtB6_12HealthStatusE6outputReEB8_
FNDA:2,_RINvMs5_NtCs1ufPfM0GhR0_9api_bones6healthNtB6_16LivenessResponse4passReB15_EB8_
FNDA:5,_RINvMs6_NtCs1ufPfM0GhR0_9api_bones6healthNtB6_17ReadinessResponse3newNtNtCsipk7xt2ATo7_5alloc6string6StringB15_EB8_
FNDA:5,_RINvMs6_NtCs1ufPfM0GhR0_9api_bones6healthNtB6_17ReadinessResponse3newReB15_EB8_
FNDA:5,_RINvMs7_NtCs1ufPfM0GhR0_9api_bones6healthINtB6_24ReadinessResponseBuilderuuE7versionReEB8_
FNDA:5,_RINvMs8_NtCs1ufPfM0GhR0_9api_bones6healthINtB6_24ReadinessResponseBuilderNtNtCsipk7xt2ATo7_5alloc6string6StringuE10service_idReEB8_
FNDA:5,_RINvMs9_NtCs1ufPfM0GhR0_9api_bones6healthINtB6_24ReadinessResponseBuilderNtNtCsipk7xt2ATo7_5alloc6string6StringB19_E9add_checkReEB8_
FNDA:3,_RNvMs2_NtCs1ufPfM0GhR0_9api_bones6healthINtB5_18HealthCheckBuilderNtNtCsipk7xt2ATo7_5alloc6string6StringuE6statusB7_
FNDA:1,_RNvMs2_NtCs1ufPfM0GhR0_9api_bones6healthINtB5_18HealthCheckBuilderuuE6statusB7_
FNDA:1,_RNvNtNtCs1ufPfM0GhR0_9api_bones6health5testss_20liveness_wire_format
FNDA:1,_RNvNtNtCs1ufPfM0GhR0_9api_bones6health5testss_21health_status_display
FNDA:1,_RNvNtNtCs1ufPfM0GhR0_9api_bones6health5testss_21readiness_wire_format
FNDA:1,_RNvNtNtCs1ufPfM0GhR0_9api_bones6health5testss_22health_check_with_time
FNDA:1,_RNvNtNtCs1ufPfM0GhR0_9api_bones6health5testss_24health_status_http_codes
FNDA:1,_RNvNtNtCs1ufPfM0GhR0_9api_bones6health5testss_24readiness_aggregate_pass
FNDA:1,_RNvNtNtCs1ufPfM0GhR0_9api_bones6health5testss_24readiness_aggregate_warn
FNDA:1,_RNvNtNtCs1ufPfM0GhR0_9api_bones6health5testss_24serde_roundtrip_liveness
FNDA:1,_RNvNtNtCs1ufPfM0GhR0_9api_bones6health5testss_26health_check_builder_basic
FNDA:1,_RNvNtNtCs1ufPfM0GhR0_9api_bones6health5testss_26health_status_is_available
FNDA:1,_RNvNtNtCs1ufPfM0GhR0_9api_bones6health5testss_27readiness_builder_add_check
FNDA:1,_RNvNtNtCs1ufPfM0GhR0_9api_bones6health5testss_29health_status_schema_is_valid
FNDA:1,_RNvNtNtCs1ufPfM0GhR0_9api_bones6health5testss_29readiness_aggregate_fail_wins
FNDA:1,_RNvNtNtCs1ufPfM0GhR0_9api_bones6health5testss_32readiness_builder_aggregate_fail
FNDA:1,_RNvNtNtCs1ufPfM0GhR0_9api_bones6health5testss_33liveness_response_schema_is_valid
FNDA:1,_RNvNtNtCs1ufPfM0GhR0_9api_bones6health5testss_34health_check_omits_optional_fields
FNDA:1,_RNvNtNtCs1ufPfM0GhR0_9api_bones6health5testss_34health_status_serializes_lowercase
FNDA:1,_RNvNtNtCs1ufPfM0GhR0_9api_bones6health5testss_38readiness_builder_empty_checks_is_pass
FNDA:1,_RNvNtNtCs1ufPfM0GhR0_9api_bones6health5testss_38readiness_builder_equivalence_with_new
FNDA:1,_RNvNtNtCs1ufPfM0GhR0_9api_bones6health5testss_39health_check_builder_chaining_optionals
FNDA:1,_RNvNtNtCs1ufPfM0GhR0_9api_bones6health5testss_42health_check_builder_equivalence_with_pass
FNDA:1,_RNvNtNtCs1ufPfM0GhR0_9api_bones6health5testss_46readiness_builder_add_multiple_checks_same_key
FNDA:1,_RNvNtNtCs1ufPfM0GhR0_9api_bones6health5testss_49health_check_builder_status_before_component_type
FNDA:7,_RNvMNtCs1ufPfM0GhR0_9api_bones6healthNtB2_12HealthStatus11http_status
FNDA:3,_RNvMNtCs1ufPfM0GhR0_9api_bones6healthNtB2_12HealthStatus12is_available
FNDA:4,_RNvMs0_NtCs1ufPfM0GhR0_9api_bones6healthNtB5_11HealthCheck7builder
FNDA:4,_RNvMs4_NtCs1ufPfM0GhR0_9api_bones6healthINtB5_18HealthCheckBuilderNtNtCsipk7xt2ATo7_5alloc6string6StringNtB5_12HealthStatusE5build
FNDA:4,_RNvMs6_NtCs1ufPfM0GhR0_9api_bones6healthNtB5_17ReadinessResponse11http_status
FNDA:10,_RNvMs6_NtCs1ufPfM0GhR0_9api_bones6healthNtB5_17ReadinessResponse16aggregate_status
FNDA:5,_RNvMs6_NtCs1ufPfM0GhR0_9api_bones6healthNtB5_17ReadinessResponse7builder
FNDA:5,_RNvMsa_NtCs1ufPfM0GhR0_9api_bones6healthINtB5_24ReadinessResponseBuilderNtNtCsipk7xt2ATo7_5alloc6string6StringB18_E5build
FNDA:3,_RNvXs_NtCs1ufPfM0GhR0_9api_bones6healthNtB4_12HealthStatusNtNtCsbUtogaBoXXO_4core3fmt7Display3fmt
FNDA:0,_RINvMs0_NtCs6zS5XWhHsrg_9api_bones6healthNtB6_11HealthCheck4failppEB8_
FNDA:0,_RINvMs0_NtCs6zS5XWhHsrg_9api_bones6healthNtB6_11HealthCheck4passpEB8_
FNDA:0,_RINvMs0_NtCs6zS5XWhHsrg_9api_bones6healthNtB6_11HealthCheck4warnppEB8_
FNDA:0,_RINvMs0_NtCs6zS5XWhHsrg_9api_bones6healthNtB6_11HealthCheck9with_timepEB8_
FNDA:0,_RINvMs1_NtCs6zS5XWhHsrg_9api_bones6healthINtB6_18HealthCheckBuilderupE14component_typepEB8_
FNDA:0,_RINvMs3_NtCs6zS5XWhHsrg_9api_bones6healthINtB6_18HealthCheckBuilderppE4timepEB8_
FNDA:0,_RINvMs3_NtCs6zS5XWhHsrg_9api_bones6healthINtB6_18HealthCheckBuilderppE6outputpEB8_
FNDA:0,_RINvMs5_NtCs6zS5XWhHsrg_9api_bones6healthNtB6_16LivenessResponse4passppEB8_
FNDA:0,_RINvMs7_NtCs6zS5XWhHsrg_9api_bones6healthINtB6_24ReadinessResponseBuilderupE7versionpEB8_
FNDA:0,_RINvMs8_NtCs6zS5XWhHsrg_9api_bones6healthINtB6_24ReadinessResponseBuilderpuE10service_idpEB8_
FNDA:0,_RINvMs9_NtCs6zS5XWhHsrg_9api_bones6healthINtB6_24ReadinessResponseBuilderppE9add_checkpEB8_
FNDA:0,_RNvMs2_NtCs6zS5XWhHsrg_9api_bones6healthINtB5_18HealthCheckBuilderpuE6statusB7_
FNDA:0,_RINvMs6_NtCs6zS5XWhHsrg_9api_bones6healthNtB6_17ReadinessResponse3newNtNtCsipk7xt2ATo7_5alloc6string6StringB15_EB8_
FNDA:0,_RNvMNtCs6zS5XWhHsrg_9api_bones6healthNtB2_12HealthStatus11http_status
FNDA:0,_RNvMNtCs6zS5XWhHsrg_9api_bones6healthNtB2_12HealthStatus12is_available
FNDA:0,_RNvMs0_NtCs6zS5XWhHsrg_9api_bones6healthNtB5_11HealthCheck7builder
FNDA:0,_RNvMs4_NtCs6zS5XWhHsrg_9api_bones6healthINtB5_18HealthCheckBuilderNtNtCsipk7xt2ATo7_5alloc6string6StringNtB5_12HealthStatusE5build
FNDA:0,_RNvMs6_NtCs6zS5XWhHsrg_9api_bones6healthNtB5_17ReadinessResponse11http_status
FNDA:0,_RNvMs6_NtCs6zS5XWhHsrg_9api_bones6healthNtB5_17ReadinessResponse16aggregate_status
FNDA:0,_RNvMs6_NtCs6zS5XWhHsrg_9api_bones6healthNtB5_17ReadinessResponse7builder
FNDA:0,_RNvMsa_NtCs6zS5XWhHsrg_9api_bones6healthINtB5_24ReadinessResponseBuilderNtNtCsipk7xt2ATo7_5alloc6string6StringB18_E5build
FNDA:0,_RNvXs_NtCs6zS5XWhHsrg_9api_bones6healthNtB4_12HealthStatusNtNtCsbUtogaBoXXO_4core3fmt7Display3fmt
FNDA:0,_RINvMs0_NtCs6zS5XWhHsrg_9api_bones6healthNtB6_11HealthCheck4failReB10_ECs40kQroo22wE_12health_check
FNDA:0,_RINvMs0_NtCs6zS5XWhHsrg_9api_bones6healthNtB6_11HealthCheck4passReECs40kQroo22wE_12health_check
FNDA:0,_RINvMs0_NtCs6zS5XWhHsrg_9api_bones6healthNtB6_11HealthCheck4warnReB10_ECs40kQroo22wE_12health_check
FNDA:0,_RINvMs1_NtCs6zS5XWhHsrg_9api_bones6healthINtB6_18HealthCheckBuilderuuE14component_typeReECs40kQroo22wE_12health_check
FNDA:0,_RINvMs3_NtCs6zS5XWhHsrg_9api_bones6healthINtB6_18HealthCheckBuilderNtNtCsipk7xt2ATo7_5alloc6string6StringNtB6_12HealthStatusE4timeReECs40kQroo22wE_12health_check
FNDA:0,_RINvMs3_NtCs6zS5XWhHsrg_9api_bones6healthINtB6_18HealthCheckBuilderNtNtCsipk7xt2ATo7_5alloc6string6StringNtB6_12HealthStatusE6outputReECs40kQroo22wE_12health_check
FNDA:0,_RINvMs7_NtCs6zS5XWhHsrg_9api_bones6healthINtB6_24ReadinessResponseBuilderuuE7versionReECs40kQroo22wE_12health_check
FNDA:0,_RINvMs8_NtCs6zS5XWhHsrg_9api_bones6healthINtB6_24ReadinessResponseBuilderNtNtCsipk7xt2ATo7_5alloc6string6StringuE10service_idReECs40kQroo22wE_12health_check
FNDA:0,_RINvMs9_NtCs6zS5XWhHsrg_9api_bones6healthINtB6_24ReadinessResponseBuilderNtNtCsipk7xt2ATo7_5alloc6string6StringB19_E9add_checkReECs40kQroo22wE_12health_check
FNDA:0,_RNvMs2_NtCs6zS5XWhHsrg_9api_bones6healthINtB5_18HealthCheckBuilderNtNtCsipk7xt2ATo7_5alloc6string6StringuE6statusCs40kQroo22wE_12health_check
FNF:45
FNH:45
DA:94,7
DA:95,7
DA:96,4
DA:97,3
DA:99,7
DA:113,3
DA:114,3
DA:115,3
DA:119,3
DA:120,3
DA:121,1
DA:122,1
DA:123,1
DA:125,3
DA:179,11
DA:180,11
DA:181,11
DA:182,11
DA:183,11
DA:184,11
DA:185,11
DA:186,11
DA:199,2
DA:200,2
DA:201,2
DA:202,2
DA:203,2
DA:204,2
DA:205,2
DA:206,2
DA:219,2
DA:220,2
DA:221,2
DA:222,2
DA:223,2
DA:224,2
DA:225,2
DA:226,2
DA:240,1
DA:241,1
DA:242,1
DA:243,1
DA:261,4
DA:262,4
DA:263,4
DA:264,4
DA:265,4
DA:266,4
DA:267,4
DA:268,4
DA:295,4
DA:296,4
DA:297,4
DA:298,4
DA:299,4
DA:300,4
DA:301,4
DA:302,4
DA:303,4
DA:304,4
DA:305,4
DA:311,4
DA:312,4
DA:313,4
DA:314,4
DA:315,4
DA:316,4
DA:317,4
DA:318,4
DA:325,1
DA:326,1
DA:327,1
DA:328,1
DA:332,1
DA:333,1
DA:334,1
DA:335,1
DA:344,4
DA:345,4
DA:346,4
DA:347,4
DA:348,4
DA:349,4
DA:350,4
DA:351,4
DA:395,2
DA:396,2
DA:397,2
DA:398,2
DA:399,2
DA:400,2
DA:401,2
DA:461,10
DA:462,10
DA:463,10
DA:464,10
DA:465,10
DA:466,10
DA:467,10
DA:468,10
DA:469,10
DA:470,10
DA:471,10
DA:472,10
DA:473,10
DA:477,4
DA:478,4
DA:479,4
DA:499,5
DA:500,5
DA:501,5
DA:502,5
DA:503,5
DA:504,5
DA:505,5
DA:508,10
DA:509,10
DA:510,11
DA:511,12
DA:512,12
DA:513,2
DA:514,10
DA:515,10
DA:516,2
DA:517,8
DA:520,8
DA:521,2
DA:523,6
DA:525,10
DA:551,5
DA:552,5
DA:553,5
DA:554,5
DA:555,5
DA:556,5
DA:557,5
DA:563,5
DA:564,5
DA:565,5
DA:566,5
DA:567,5
DA:568,5
DA:569,5
DA:579,5
DA:580,5
DA:581,5
DA:582,5
DA:591,5
DA:592,5
DA:593,5
DA:605,1
DA:606,1
DA:607,1
DA:608,1
DA:609,1
DA:612,1
DA:613,1
DA:614,1
DA:615,1
DA:616,1
DA:619,1
DA:620,1
DA:621,1
DA:622,1
DA:623,1
DA:626,1
DA:627,1
DA:628,1
DA:629,1
DA:630,1
DA:632,1
DA:633,1
DA:634,1
DA:635,1
DA:638,1
DA:639,1
DA:640,1
DA:641,1
DA:642,1
DA:644,1
DA:645,1
DA:646,1
DA:648,1
DA:649,1
DA:650,1
DA:651,1
DA:654,1
DA:655,1
DA:656,1
DA:657,1
DA:658,1
DA:660,1
DA:661,1
DA:662,1
DA:664,1
DA:665,1
DA:666,1
DA:667,1
DA:671,1
DA:672,1
DA:673,1
DA:674,1
DA:675,1
DA:679,1
DA:680,1
DA:681,1
DA:682,1
DA:683,1
DA:684,1
DA:685,1
DA:689,1
DA:690,1
DA:691,1
DA:692,1
DA:693,1
DA:695,1
DA:696,1
DA:697,1
DA:698,1
DA:699,1
DA:700,1
DA:701,1
DA:704,1
DA:705,1
DA:709,1
DA:710,1
DA:711,1
DA:712,1
DA:713,1
DA:714,1
DA:718,1
DA:719,1
DA:720,1
DA:721,1
DA:722,1
DA:726,1
DA:727,1
DA:728,1
DA:729,1
DA:730,1
DA:731,1
DA:732,1
DA:733,1
DA:740,1
DA:741,1
DA:742,1
DA:743,1
DA:744,1
DA:745,1
DA:746,1
DA:747,1
DA:748,1
DA:749,1
DA:752,1
DA:753,1
DA:754,1
DA:755,1
DA:756,1
DA:757,1
DA:758,1
DA:759,1
DA:760,1
DA:761,1
DA:762,1
DA:765,1
DA:766,1
DA:767,1
DA:768,1
DA:769,1
DA:770,1
DA:771,1
DA:772,1
DA:773,1
DA:774,1
DA:775,1
DA:778,1
DA:780,1
DA:781,1
DA:782,1
DA:783,1
DA:784,1
DA:785,1
DA:786,1
DA:793,1
DA:794,1
DA:795,1
DA:796,1
DA:797,1
DA:798,1
DA:799,1
DA:800,1
DA:801,1
DA:802,1
DA:805,1
DA:806,1
DA:807,1
DA:808,1
DA:809,1
DA:810,1
DA:811,1
DA:812,1
DA:813,1
DA:816,1
DA:817,1
DA:818,1
DA:819,1
DA:820,1
DA:821,1
DA:822,1
DA:823,1
DA:824,1
DA:825,1
DA:828,1
DA:829,1
DA:830,1
DA:831,1
DA:832,1
DA:833,1
DA:834,1
DA:835,1
DA:836,1
DA:839,1
DA:840,1
DA:841,1
DA:842,1
DA:843,1
DA:845,1
DA:846,1
DA:847,1
DA:848,1
DA:849,1
DA:850,1
DA:851,1
DA:852,1
DA:853,1
DA:854,1
DA:855,1
DA:859,1
DA:860,1
DA:861,1
DA:862,1
DA:863,1
DA:867,1
DA:868,1
DA:869,1
DA:870,1
DA:871,1
BRF:0
BRH:0
LF:347
LH:347
end_of_record
SF:/Users/gsalingu/git/api-bones/.claude/worktrees/feat+211-nested-org-adr/src/idempotency.rs
FN:147,_RNvMNtCs1ufPfM0GhR0_9api_bones11idempotencyNtB2_14IdempotencyKey11header_name
FN:134,_RNvMNtCs1ufPfM0GhR0_9api_bones11idempotencyNtB2_14IdempotencyKey11into_string
FN:121,_RNvMNtCs1ufPfM0GhR0_9api_bones11idempotencyNtB2_14IdempotencyKey6as_str
FN:107,_RNvMNtCs1ufPfM0GhR0_9api_bones11idempotencyNtB2_14IdempotencyKey9from_uuid
FN:181,_RNvXs0_NtCs1ufPfM0GhR0_9api_bones11idempotencyNtB5_14IdempotencyKeyNtNtNtCsbUtogaBoXXO_4core3ops5deref5Deref5deref
FN:187,_RNvXs1_NtCs1ufPfM0GhR0_9api_bones11idempotencyNtB5_14IdempotencyKeyINtNtCsbUtogaBoXXO_4core7convert5AsRefeE6as_ref
FN:193,_RNvXs2_NtCs1ufPfM0GhR0_9api_bones11idempotencyNtB5_14IdempotencyKeyNtNtCsbUtogaBoXXO_4core3fmt7Display3fmt
FN:201,_RNvXs3_NtCs1ufPfM0GhR0_9api_bones11idempotencyNtB5_14IdempotencyKeyINtNtCsbUtogaBoXXO_4core7convert7TryFromNtNtCsipk7xt2ATo7_5alloc6string6StringE8try_from
FN:209,_RNvXs4_NtCs1ufPfM0GhR0_9api_bones11idempotencyNtB5_14IdempotencyKeyINtNtCsbUtogaBoXXO_4core7convert7TryFromReE8try_from
FN:160,_RNvXs_NtCs1ufPfM0GhR0_9api_bones11idempotencyNtB4_14IdempotencyKeyNtNtB6_9header_id8HeaderId6as_str
FN:371,_RNvNtNtCs1ufPfM0GhR0_9api_bones11idempotency5testss_10as_ref_str
FN:344,_RNvNtNtCs1ufPfM0GhR0_9api_bones11idempotency5testss_11into_string
FN:320,_RNvNtNtCs1ufPfM0GhR0_9api_bones11idempotency5testss_12deref_to_str
FN:333,_RNvNtNtCs1ufPfM0GhR0_9api_bones11idempotency5testss_12try_from_str
FN:351,_RNvNtNtCs1ufPfM0GhR0_9api_bones11idempotency5testss_15serde_roundtrip
FN:339,_RNvNtNtCs1ufPfM0GhR0_9api_bones11idempotency5testss_15try_from_string
FN:275,_RNvNtNtCs1ufPfM0GhR0_9api_bones11idempotency5testss_17empty_is_rejected
FN:280,_RNvNtNtCs1ufPfM0GhR0_9api_bones11idempotency5testss_20too_long_is_rejected
FN:304,_RNvNtNtCs1ufPfM0GhR0_9api_bones11idempotency5testss_21non_ascii_is_rejected
FN:265,_RNvNtNtCs1ufPfM0GhR0_9api_bones11idempotency5testss_21valid_key_is_accepted
FN:292,_RNvNtNtCs1ufPfM0GhR0_9api_bones11idempotency5testss_24control_char_is_rejected
FN:379,_RNvNtNtCs1ufPfM0GhR0_9api_bones11idempotency5testss_26error_display_all_variants
FN:312,_RNvNtNtCs1ufPfM0GhR0_9api_bones11idempotency5testss_28from_uuid_produces_valid_key
FN:286,_RNvNtNtCs1ufPfM0GhR0_9api_bones11idempotency5testss_29exactly_255_chars_is_accepted
FN:361,_RNvNtNtCs1ufPfM0GhR0_9api_bones11idempotency5testss_33serde_deserialize_invalid_rejects
FN:327,_RNvNtNtCs1ufPfM0GhR0_9api_bones11idempotency5testss_7display
FN:81,_RINvMNtCs1ufPfM0GhR0_9api_bones11idempotencyNtB3_14IdempotencyKey3newNtNtCsipk7xt2ATo7_5alloc6string6StringEB5_
FN:81,_RINvMNtCs1ufPfM0GhR0_9api_bones11idempotencyNtB3_14IdempotencyKey3newRNtNtCsipk7xt2ATo7_5alloc6string6StringEB5_
FN:81,_RINvMNtCs1ufPfM0GhR0_9api_bones11idempotencyNtB3_14IdempotencyKey3newReEB5_
FN:220,_RINvXs5_NtCs1ufPfM0GhR0_9api_bones11idempotencyNtB6_14IdempotencyKeyNtNtCseAJKguVKcII_10serde_core2de11Deserialize11deserializeQINtNtCsdC8qrlXHNsA_10serde_json2de12DeserializerNtNtB27_4read7StrReadEEB8_
FN:89,_RNCINvMNtCs1ufPfM0GhR0_9api_bones11idempotencyNtB5_14IdempotencyKey3newNtNtCsipk7xt2ATo7_5alloc6string6StringE0B7_
FN:89,_RNCINvMNtCs1ufPfM0GhR0_9api_bones11idempotencyNtB5_14IdempotencyKey3newRNtNtCsipk7xt2ATo7_5alloc6string6StringE0B7_
FN:89,_RNCINvMNtCs1ufPfM0GhR0_9api_bones11idempotencyNtB5_14IdempotencyKey3newReE0B7_
FN:241,_RNCNCNvXs6_NtCs1ufPfM0GhR0_9api_bones11idempotencyNtB9_14IdempotencyKeyINtNtCsgRxEIuGfDXj_9axum_core7extract16FromRequestPartsuE18from_request_parts00Bb_
FN:250,_RNCNCNvXs6_NtCs1ufPfM0GhR0_9api_bones11idempotencyNtB9_14IdempotencyKeyINtNtCsgRxEIuGfDXj_9axum_core7extract16FromRequestPartsuE18from_request_parts0s0_0Bb_
FN:245,_RNCNCNvXs6_NtCs1ufPfM0GhR0_9api_bones11idempotencyNtB9_14IdempotencyKeyINtNtCsgRxEIuGfDXj_9axum_core7extract16FromRequestPartsuE18from_request_parts0s_0Bb_
FN:237,_RNCNvXs6_NtCs1ufPfM0GhR0_9api_bones11idempotencyNtB7_14IdempotencyKeyINtNtCsgRxEIuGfDXj_9axum_core7extract16FromRequestPartsuE18from_request_parts0B9_
FN:234,_RNvXs6_NtCs1ufPfM0GhR0_9api_bones11idempotencyNtB5_14IdempotencyKeyINtNtCsgRxEIuGfDXj_9axum_core7extract16FromRequestPartsuE18from_request_partsB7_
FN:220,_RINvXs5_NtCs6zS5XWhHsrg_9api_bones11idempotencyNtB6_14IdempotencyKeyNtNtCseAJKguVKcII_10serde_core2de11Deserialize11deserializepEB8_
FN:241,_RNCNCNvXININtCs6zS5XWhHsrg_9api_bones11idempotencys6_0pENtB9_14IdempotencyKeyINtNtCsgRxEIuGfDXj_9axum_core7extract16FromRequestPartspE18from_request_parts00Bb_
FN:250,_RNCNCNvXININtCs6zS5XWhHsrg_9api_bones11idempotencys6_0pENtB9_14IdempotencyKeyINtNtCsgRxEIuGfDXj_9axum_core7extract16FromRequestPartspE18from_request_parts0s0_0Bb_
FN:245,_RNCNCNvXININtCs6zS5XWhHsrg_9api_bones11idempotencys6_0pENtB9_14IdempotencyKeyINtNtCsgRxEIuGfDXj_9axum_core7extract16FromRequestPartspE18from_request_parts0s_0Bb_
FN:237,_RNCNvXININtCs6zS5XWhHsrg_9api_bones11idempotencys6_0pENtB7_14IdempotencyKeyINtNtCsgRxEIuGfDXj_9axum_core7extract16FromRequestPartspE18from_request_parts0B9_
FN:234,_RNvXININtCs6zS5XWhHsrg_9api_bones11idempotencys6_0pENtB5_14IdempotencyKeyINtNtCsgRxEIuGfDXj_9axum_core7extract16FromRequestPartspE18from_request_partsB7_
FN:81,_RINvMNtCs6zS5XWhHsrg_9api_bones11idempotencyNtB3_14IdempotencyKey3newNtNtCsipk7xt2ATo7_5alloc6string6StringEB5_
FN:81,_RINvMNtCs6zS5XWhHsrg_9api_bones11idempotencyNtB3_14IdempotencyKey3newReEB5_
FN:89,_RNCINvMNtCs6zS5XWhHsrg_9api_bones11idempotencyNtB5_14IdempotencyKey3newNtNtCsipk7xt2ATo7_5alloc6string6StringE0B7_
FN:89,_RNCINvMNtCs6zS5XWhHsrg_9api_bones11idempotencyNtB5_14IdempotencyKey3newReE0B7_
FN:241,_RNCNCNvXs6_NtCs6zS5XWhHsrg_9api_bones11idempotencyNtB9_14IdempotencyKeyINtNtCsgRxEIuGfDXj_9axum_core7extract16FromRequestPartsuE18from_request_parts00Csi3Z6uToK8f7_20axum_core_extractors
FN:250,_RNCNCNvXs6_NtCs6zS5XWhHsrg_9api_bones11idempotencyNtB9_14IdempotencyKeyINtNtCsgRxEIuGfDXj_9axum_core7extract16FromRequestPartsuE18from_request_parts0s0_0Csi3Z6uToK8f7_20axum_core_extractors
FN:245,_RNCNCNvXs6_NtCs6zS5XWhHsrg_9api_bones11idempotencyNtB9_14IdempotencyKeyINtNtCsgRxEIuGfDXj_9axum_core7extract16FromRequestPartsuE18from_request_parts0s_0Csi3Z6uToK8f7_20axum_core_extractors
FN:237,_RNCNvXs6_NtCs6zS5XWhHsrg_9api_bones11idempotencyNtB7_14IdempotencyKeyINtNtCsgRxEIuGfDXj_9axum_core7extract16FromRequestPartsuE18from_request_parts0Csi3Z6uToK8f7_20axum_core_extractors
FN:234,_RNvXs6_NtCs6zS5XWhHsrg_9api_bones11idempotencyNtB5_14IdempotencyKeyINtNtCsgRxEIuGfDXj_9axum_core7extract16FromRequestPartsuE18from_request_partsCsi3Z6uToK8f7_20axum_core_extractors
FN:147,_RNvMNtCs6zS5XWhHsrg_9api_bones11idempotencyNtB2_14IdempotencyKey11header_name
FN:134,_RNvMNtCs6zS5XWhHsrg_9api_bones11idempotencyNtB2_14IdempotencyKey11into_string
FN:121,_RNvMNtCs6zS5XWhHsrg_9api_bones11idempotencyNtB2_14IdempotencyKey6as_str
FN:107,_RNvMNtCs6zS5XWhHsrg_9api_bones11idempotencyNtB2_14IdempotencyKey9from_uuid
FN:181,_RNvXs0_NtCs6zS5XWhHsrg_9api_bones11idempotencyNtB5_14IdempotencyKeyNtNtNtCsbUtogaBoXXO_4core3ops5deref5Deref5deref
FN:187,_RNvXs1_NtCs6zS5XWhHsrg_9api_bones11idempotencyNtB5_14IdempotencyKeyINtNtCsbUtogaBoXXO_4core7convert5AsRefeE6as_ref
FN:193,_RNvXs2_NtCs6zS5XWhHsrg_9api_bones11idempotencyNtB5_14IdempotencyKeyNtNtCsbUtogaBoXXO_4core3fmt7Display3fmt
FN:201,_RNvXs3_NtCs6zS5XWhHsrg_9api_bones11idempotencyNtB5_14IdempotencyKeyINtNtCsbUtogaBoXXO_4core7convert7TryFromNtNtCsipk7xt2ATo7_5alloc6string6StringE8try_from
FN:209,_RNvXs4_NtCs6zS5XWhHsrg_9api_bones11idempotencyNtB5_14IdempotencyKeyINtNtCsbUtogaBoXXO_4core7convert7TryFromReE8try_from
FN:160,_RNvXs_NtCs6zS5XWhHsrg_9api_bones11idempotencyNtB4_14IdempotencyKeyNtNtB6_9header_id8HeaderId6as_str
FNDA:1,_RNvMNtCs1ufPfM0GhR0_9api_bones11idempotencyNtB2_14IdempotencyKey11header_name
FNDA:1,_RNvMNtCs1ufPfM0GhR0_9api_bones11idempotencyNtB2_14IdempotencyKey11into_string
FNDA:3,_RNvMNtCs1ufPfM0GhR0_9api_bones11idempotencyNtB2_14IdempotencyKey6as_str
FNDA:1,_RNvMNtCs1ufPfM0GhR0_9api_bones11idempotencyNtB2_14IdempotencyKey9from_uuid
FNDA:2,_RNvXs0_NtCs1ufPfM0GhR0_9api_bones11idempotencyNtB5_14IdempotencyKeyNtNtNtCsbUtogaBoXXO_4core3ops5deref5Deref5deref
FNDA:1,_RNvXs1_NtCs1ufPfM0GhR0_9api_bones11idempotencyNtB5_14IdempotencyKeyINtNtCsbUtogaBoXXO_4core7convert5AsRefeE6as_ref
FNDA:2,_RNvXs2_NtCs1ufPfM0GhR0_9api_bones11idempotencyNtB5_14IdempotencyKeyNtNtCsbUtogaBoXXO_4core3fmt7Display3fmt
FNDA:1,_RNvXs3_NtCs1ufPfM0GhR0_9api_bones11idempotencyNtB5_14IdempotencyKeyINtNtCsbUtogaBoXXO_4core7convert7TryFromNtNtCsipk7xt2ATo7_5alloc6string6StringE8try_from
FNDA:2,_RNvXs4_NtCs1ufPfM0GhR0_9api_bones11idempotencyNtB5_14IdempotencyKeyINtNtCsbUtogaBoXXO_4core7convert7TryFromReE8try_from
FNDA:1,_RNvXs_NtCs1ufPfM0GhR0_9api_bones11idempotencyNtB4_14IdempotencyKeyNtNtB6_9header_id8HeaderId6as_str
FNDA:1,_RNvNtNtCs1ufPfM0GhR0_9api_bones11idempotency5testss_10as_ref_str
FNDA:1,_RNvNtNtCs1ufPfM0GhR0_9api_bones11idempotency5testss_11into_string
FNDA:1,_RNvNtNtCs1ufPfM0GhR0_9api_bones11idempotency5testss_12deref_to_str
FNDA:1,_RNvNtNtCs1ufPfM0GhR0_9api_bones11idempotency5testss_12try_from_str
FNDA:1,_RNvNtNtCs1ufPfM0GhR0_9api_bones11idempotency5testss_15serde_roundtrip
FNDA:1,_RNvNtNtCs1ufPfM0GhR0_9api_bones11idempotency5testss_15try_from_string
FNDA:1,_RNvNtNtCs1ufPfM0GhR0_9api_bones11idempotency5testss_17empty_is_rejected
FNDA:1,_RNvNtNtCs1ufPfM0GhR0_9api_bones11idempotency5testss_20too_long_is_rejected
FNDA:1,_RNvNtNtCs1ufPfM0GhR0_9api_bones11idempotency5testss_21non_ascii_is_rejected
FNDA:1,_RNvNtNtCs1ufPfM0GhR0_9api_bones11idempotency5testss_21valid_key_is_accepted
FNDA:1,_RNvNtNtCs1ufPfM0GhR0_9api_bones11idempotency5testss_24control_char_is_rejected
FNDA:1,_RNvNtNtCs1ufPfM0GhR0_9api_bones11idempotency5testss_26error_display_all_variants
FNDA:1,_RNvNtNtCs1ufPfM0GhR0_9api_bones11idempotency5testss_28from_uuid_produces_valid_key
FNDA:1,_RNvNtNtCs1ufPfM0GhR0_9api_bones11idempotency5testss_29exactly_255_chars_is_accepted
FNDA:1,_RNvNtNtCs1ufPfM0GhR0_9api_bones11idempotency5testss_33serde_deserialize_invalid_rejects
FNDA:1,_RNvNtNtCs1ufPfM0GhR0_9api_bones11idempotency5testss_7display
FNDA:1,_RINvMNtCs1ufPfM0GhR0_9api_bones11idempotencyNtB3_14IdempotencyKey3newNtNtCsipk7xt2ATo7_5alloc6string6StringEB5_
FNDA:4,_RINvMNtCs1ufPfM0GhR0_9api_bones11idempotencyNtB3_14IdempotencyKey3newRNtNtCsipk7xt2ATo7_5alloc6string6StringEB5_
FNDA:23,_RINvMNtCs1ufPfM0GhR0_9api_bones11idempotencyNtB3_14IdempotencyKey3newReEB5_
FNDA:2,_RINvXs5_NtCs1ufPfM0GhR0_9api_bones11idempotencyNtB6_14IdempotencyKeyNtNtCseAJKguVKcII_10serde_core2de11Deserialize11deserializeQINtNtCsdC8qrlXHNsA_10serde_json2de12DeserializerNtNtB27_4read7StrReadEEB8_
FNDA:5,_RNCINvMNtCs1ufPfM0GhR0_9api_bones11idempotencyNtB5_14IdempotencyKey3newNtNtCsipk7xt2ATo7_5alloc6string6StringE0B7_
FNDA:265,_RNCINvMNtCs1ufPfM0GhR0_9api_bones11idempotencyNtB5_14IdempotencyKey3newRNtNtCsipk7xt2ATo7_5alloc6string6StringE0B7_
FNDA:134,_RNCINvMNtCs1ufPfM0GhR0_9api_bones11idempotencyNtB5_14IdempotencyKey3newReE0B7_
FNDA:1,_RNCNCNvXs6_NtCs1ufPfM0GhR0_9api_bones11idempotencyNtB9_14IdempotencyKeyINtNtCsgRxEIuGfDXj_9axum_core7extract16FromRequestPartsuE18from_request_parts00Bb_
FNDA:1,_RNCNCNvXs6_NtCs1ufPfM0GhR0_9api_bones11idempotencyNtB9_14IdempotencyKeyINtNtCsgRxEIuGfDXj_9axum_core7extract16FromRequestPartsuE18from_request_parts0s0_0Bb_
FNDA:1,_RNCNCNvXs6_NtCs1ufPfM0GhR0_9api_bones11idempotencyNtB9_14IdempotencyKeyINtNtCsgRxEIuGfDXj_9axum_core7extract16FromRequestPartsuE18from_request_parts0s_0Bb_
FNDA:6,_RNCNvXs6_NtCs1ufPfM0GhR0_9api_bones11idempotencyNtB7_14IdempotencyKeyINtNtCsgRxEIuGfDXj_9axum_core7extract16FromRequestPartsuE18from_request_parts0B9_
FNDA:6,_RNvXs6_NtCs1ufPfM0GhR0_9api_bones11idempotencyNtB5_14IdempotencyKeyINtNtCsgRxEIuGfDXj_9axum_core7extract16FromRequestPartsuE18from_request_partsB7_
FNDA:0,_RINvXs5_NtCs6zS5XWhHsrg_9api_bones11idempotencyNtB6_14IdempotencyKeyNtNtCseAJKguVKcII_10serde_core2de11Deserialize11deserializepEB8_
FNDA:0,_RNCNCNvXININtCs6zS5XWhHsrg_9api_bones11idempotencys6_0pENtB9_14IdempotencyKeyINtNtCsgRxEIuGfDXj_9axum_core7extract16FromRequestPartspE18from_request_parts00Bb_
FNDA:0,_RNCNCNvXININtCs6zS5XWhHsrg_9api_bones11idempotencys6_0pENtB9_14IdempotencyKeyINtNtCsgRxEIuGfDXj_9axum_core7extract16FromRequestPartspE18from_request_parts0s0_0Bb_
FNDA:0,_RNCNCNvXININtCs6zS5XWhHsrg_9api_bones11idempotencys6_0pENtB9_14IdempotencyKeyINtNtCsgRxEIuGfDXj_9axum_core7extract16FromRequestPartspE18from_request_parts0s_0Bb_
FNDA:0,_RNCNvXININtCs6zS5XWhHsrg_9api_bones11idempotencys6_0pENtB7_14IdempotencyKeyINtNtCsgRxEIuGfDXj_9axum_core7extract16FromRequestPartspE18from_request_parts0B9_
FNDA:0,_RNvXININtCs6zS5XWhHsrg_9api_bones11idempotencys6_0pENtB5_14IdempotencyKeyINtNtCsgRxEIuGfDXj_9axum_core7extract16FromRequestPartspE18from_request_partsB7_
FNDA:0,_RINvMNtCs6zS5XWhHsrg_9api_bones11idempotencyNtB3_14IdempotencyKey3newNtNtCsipk7xt2ATo7_5alloc6string6StringEB5_
FNDA:0,_RINvMNtCs6zS5XWhHsrg_9api_bones11idempotencyNtB3_14IdempotencyKey3newReEB5_
FNDA:0,_RNCINvMNtCs6zS5XWhHsrg_9api_bones11idempotencyNtB5_14IdempotencyKey3newNtNtCsipk7xt2ATo7_5alloc6string6StringE0B7_
FNDA:0,_RNCINvMNtCs6zS5XWhHsrg_9api_bones11idempotencyNtB5_14IdempotencyKey3newReE0B7_
FNDA:0,_RNCNCNvXs6_NtCs6zS5XWhHsrg_9api_bones11idempotencyNtB9_14IdempotencyKeyINtNtCsgRxEIuGfDXj_9axum_core7extract16FromRequestPartsuE18from_request_parts00Csi3Z6uToK8f7_20axum_core_extractors
FNDA:0,_RNCNCNvXs6_NtCs6zS5XWhHsrg_9api_bones11idempotencyNtB9_14IdempotencyKeyINtNtCsgRxEIuGfDXj_9axum_core7extract16FromRequestPartsuE18from_request_parts0s0_0Csi3Z6uToK8f7_20axum_core_extractors
FNDA:0,_RNCNCNvXs6_NtCs6zS5XWhHsrg_9api_bones11idempotencyNtB9_14IdempotencyKeyINtNtCsgRxEIuGfDXj_9axum_core7extract16FromRequestPartsuE18from_request_parts0s_0Csi3Z6uToK8f7_20axum_core_extractors
FNDA:0,_RNCNvXs6_NtCs6zS5XWhHsrg_9api_bones11idempotencyNtB7_14IdempotencyKeyINtNtCsgRxEIuGfDXj_9axum_core7extract16FromRequestPartsuE18from_request_parts0Csi3Z6uToK8f7_20axum_core_extractors
FNDA:0,_RNvXs6_NtCs6zS5XWhHsrg_9api_bones11idempotencyNtB5_14IdempotencyKeyINtNtCsgRxEIuGfDXj_9axum_core7extract16FromRequestPartsuE18from_request_partsCsi3Z6uToK8f7_20axum_core_extractors
FNDA:0,_RNvMNtCs6zS5XWhHsrg_9api_bones11idempotencyNtB2_14IdempotencyKey11header_name
FNDA:0,_RNvMNtCs6zS5XWhHsrg_9api_bones11idempotencyNtB2_14IdempotencyKey11into_string
FNDA:0,_RNvMNtCs6zS5XWhHsrg_9api_bones11idempotencyNtB2_14IdempotencyKey6as_str
FNDA:0,_RNvMNtCs6zS5XWhHsrg_9api_bones11idempotencyNtB2_14IdempotencyKey9from_uuid
FNDA:0,_RNvXs0_NtCs6zS5XWhHsrg_9api_bones11idempotencyNtB5_14IdempotencyKeyNtNtNtCsbUtogaBoXXO_4core3ops5deref5Deref5deref
FNDA:0,_RNvXs1_NtCs6zS5XWhHsrg_9api_bones11idempotencyNtB5_14IdempotencyKeyINtNtCsbUtogaBoXXO_4core7convert5AsRefeE6as_ref
FNDA:0,_RNvXs2_NtCs6zS5XWhHsrg_9api_bones11idempotencyNtB5_14IdempotencyKeyNtNtCsbUtogaBoXXO_4core3fmt7Display3fmt
FNDA:0,_RNvXs3_NtCs6zS5XWhHsrg_9api_bones11idempotencyNtB5_14IdempotencyKeyINtNtCsbUtogaBoXXO_4core7convert7TryFromNtNtCsipk7xt2ATo7_5alloc6string6StringE8try_from
FNDA:0,_RNvXs4_NtCs6zS5XWhHsrg_9api_bones11idempotencyNtB5_14IdempotencyKeyINtNtCsbUtogaBoXXO_4core7convert7TryFromReE8try_from
FNDA:0,_RNvXs_NtCs6zS5XWhHsrg_9api_bones11idempotencyNtB4_14IdempotencyKeyNtNtB6_9header_id8HeaderId6as_str
FNF:34
FNH:34
DA:81,28
DA:82,28
DA:83,28
DA:84,3
DA:85,25
DA:86,25
DA:87,2
DA:88,23
DA:89,404
DA:90,3
DA:91,20
DA:92,20
DA:93,28
DA:107,1
DA:109,1
DA:110,1
DA:121,3
DA:122,3
DA:123,3
DA:134,1
DA:135,1
DA:136,1
DA:147,1
DA:148,1
DA:149,1
DA:160,1
DA:161,1
DA:162,1
DA:181,2
DA:182,2
DA:183,2
DA:187,1
DA:188,1
DA:189,1
DA:193,2
DA:194,2
DA:195,2
DA:201,1
DA:202,1
DA:203,1
DA:209,2
DA:210,2
DA:211,2
DA:220,2
DA:221,2
DA:222,2
DA:223,2
DA:234,6
DA:235,6
DA:236,6
DA:237,6
DA:238,6
DA:239,6
DA:240,6
DA:241,6
DA:242,1
DA:243,1
DA:244,5
DA:245,5
DA:246,1
DA:249,1
DA:250,4
DA:251,1
DA:252,1
DA:253,6
DA:265,1
DA:266,1
DA:267,1
DA:268,1
DA:270,1
DA:271,1
DA:272,1
DA:275,1
DA:276,1
DA:277,1
DA:280,1
DA:281,1
DA:282,1
DA:283,1
DA:286,1
DA:287,1
DA:288,1
DA:289,1
DA:292,1
DA:293,1
DA:294,1
DA:297,1
DA:298,1
DA:301,1
DA:304,1
DA:305,1
DA:306,1
DA:309,1
DA:312,1
DA:313,1
DA:315,1
DA:316,1
DA:317,1
DA:320,1
DA:321,1
DA:322,1
DA:323,1
DA:324,1
DA:327,1
DA:328,1
DA:329,1
DA:330,1
DA:333,1
DA:334,1
DA:335,1
DA:336,1
DA:339,1
DA:340,1
DA:341,1
DA:344,1
DA:345,1
DA:346,1
DA:347,1
DA:351,1
DA:352,1
DA:353,1
DA:354,1
DA:355,1
DA:356,1
DA:357,1
DA:361,1
DA:362,1
DA:363,1
DA:364,1
DA:371,1
DA:372,1
DA:373,1
DA:374,1
DA:375,1
DA:379,1
DA:380,1
DA:381,1
DA:382,1
DA:383,1
BRF:0
BRH:0
LF:146
LH:146
end_of_record
SF:/Users/gsalingu/git/api-bones/.claude/worktrees/feat+211-nested-org-adr/src/links.rs
FN:238,_RNvMs_NtCs1ufPfM0GhR0_9api_bones5linksNtB4_5Links3len
FN:195,_RNvMs_NtCs1ufPfM0GhR0_9api_bones5linksNtB4_5Links3new
FN:227,_RNvMs_NtCs1ufPfM0GhR0_9api_bones5linksNtB4_5Links4find
FN:232,_RNvMs_NtCs1ufPfM0GhR0_9api_bones5linksNtB4_5Links4iter
FN:210,_RNvMs_NtCs1ufPfM0GhR0_9api_bones5linksNtB4_5Links4push
FN:244,_RNvMs_NtCs1ufPfM0GhR0_9api_bones5linksNtB4_5Links8is_empty
FN:250,_RNvXs0_NtCs1ufPfM0GhR0_9api_bones5linksNtB5_5LinksINtNtCsbUtogaBoXXO_4core7convert4FromINtNtCsipk7xt2ATo7_5alloc3vec3VecNtB5_4LinkEE4from
FN:259,_RNvXs1_NtCs1ufPfM0GhR0_9api_bones5linksNtB5_5LinksNtNtNtNtCsbUtogaBoXXO_4core4iter6traits7collect12IntoIterator9into_iter
FN:371,_RNvNtNtCs1ufPfM0GhR0_9api_bones5links5testss_10links_iter
FN:348,_RNvNtNtCs1ufPfM0GhR0_9api_bones5links5testss_14links_find_hit
FN:386,_RNvNtNtCs1ufPfM0GhR0_9api_bones5links5testss_14links_from_vec
FN:357,_RNvNtNtCs1ufPfM0GhR0_9api_bones5links5testss_15links_find_miss
FN:285,_RNvNtNtCs1ufPfM0GhR0_9api_bones5links5testss_16link_with_method
FN:322,_RNvNtNtCs1ufPfM0GhR0_9api_bones5links5testss_17link_last_factory
FN:298,_RNvNtNtCs1ufPfM0GhR0_9api_bones5links5testss_17link_next_factory
FN:304,_RNvNtNtCs1ufPfM0GhR0_9api_bones5links5testss_17link_prev_factory
FN:316,_RNvNtNtCs1ufPfM0GhR0_9api_bones5links5testss_18link_first_factory
FN:332,_RNvNtNtCs1ufPfM0GhR0_9api_bones5links5testss_18links_new_is_empty
FN:339,_RNvNtNtCs1ufPfM0GhR0_9api_bones5links5testss_18links_push_and_len
FN:380,_RNvNtNtCs1ufPfM0GhR0_9api_bones5links5testss_19links_into_iterator
FN:310,_RNvNtNtCs1ufPfM0GhR0_9api_bones5links5testss_20link_related_factory
FN:291,_RNvNtNtCs1ufPfM0GhR0_9api_bones5links5testss_22link_self_link_factory
FN:420,_RNvNtNtCs1ufPfM0GhR0_9api_bones5links5testss_22links_serde_round_trip
FN:363,_RNvNtNtCs1ufPfM0GhR0_9api_bones5links5testss_30links_find_returns_first_match
FN:410,_RNvNtNtCs1ufPfM0GhR0_9api_bones5links5testss_33link_serde_round_trip_with_method
FN:398,_RNvNtNtCs1ufPfM0GhR0_9api_bones5links5testss_36link_serde_round_trip_without_method
FN:277,_RNvNtNtCs1ufPfM0GhR0_9api_bones5links5testss_8link_new
FN:375,_RNCNvNtNtCs1ufPfM0GhR0_9api_bones5links5testss_10links_iter0B7_
FN:66,_RINvMNtCs1ufPfM0GhR0_9api_bones5linksNtB3_4Link3newReBN_EB5_
FN:162,_RINvMNtCs1ufPfM0GhR0_9api_bones5linksNtB3_4Link4lastReEB5_
FN:110,_RINvMNtCs1ufPfM0GhR0_9api_bones5linksNtB3_4Link4nextReEB5_
FN:123,_RINvMNtCs1ufPfM0GhR0_9api_bones5linksNtB3_4Link4prevReEB5_
FN:149,_RINvMNtCs1ufPfM0GhR0_9api_bones5linksNtB3_4Link5firstReEB5_
FN:83,_RINvMNtCs1ufPfM0GhR0_9api_bones5linksNtB3_4Link6methodReEB5_
FN:136,_RINvMNtCs1ufPfM0GhR0_9api_bones5linksNtB3_4Link7relatedReEB5_
FN:97,_RINvMNtCs1ufPfM0GhR0_9api_bones5linksNtB3_4Link9self_linkReEB5_
FN:228,_RNCNvMs_NtCs1ufPfM0GhR0_9api_bones5linksNtB6_5Links4find0B8_
FN:66,_RINvMNtCs6zS5XWhHsrg_9api_bones5linksNtB3_4Link3newppEB5_
FN:162,_RINvMNtCs6zS5XWhHsrg_9api_bones5linksNtB3_4Link4lastpEB5_
FN:110,_RINvMNtCs6zS5XWhHsrg_9api_bones5linksNtB3_4Link4nextpEB5_
FN:123,_RINvMNtCs6zS5XWhHsrg_9api_bones5linksNtB3_4Link4prevpEB5_
FN:149,_RINvMNtCs6zS5XWhHsrg_9api_bones5linksNtB3_4Link5firstpEB5_
FN:83,_RINvMNtCs6zS5XWhHsrg_9api_bones5linksNtB3_4Link6methodpEB5_
FN:136,_RINvMNtCs6zS5XWhHsrg_9api_bones5linksNtB3_4Link7relatedpEB5_
FN:97,_RINvMNtCs6zS5XWhHsrg_9api_bones5linksNtB3_4Link9self_linkpEB5_
FN:228,_RNCNvMs_NtCs6zS5XWhHsrg_9api_bones5linksNtB6_5Links4find0B8_
FN:238,_RNvMs_NtCs6zS5XWhHsrg_9api_bones5linksNtB4_5Links3len
FN:195,_RNvMs_NtCs6zS5XWhHsrg_9api_bones5linksNtB4_5Links3new
FN:227,_RNvMs_NtCs6zS5XWhHsrg_9api_bones5linksNtB4_5Links4find
FN:232,_RNvMs_NtCs6zS5XWhHsrg_9api_bones5linksNtB4_5Links4iter
FN:210,_RNvMs_NtCs6zS5XWhHsrg_9api_bones5linksNtB4_5Links4push
FN:244,_RNvMs_NtCs6zS5XWhHsrg_9api_bones5linksNtB4_5Links8is_empty
FN:250,_RNvXs0_NtCs6zS5XWhHsrg_9api_bones5linksNtB5_5LinksINtNtCsbUtogaBoXXO_4core7convert4FromINtNtCsipk7xt2ATo7_5alloc3vec3VecNtB5_4LinkEE4from
FN:259,_RNvXs1_NtCs6zS5XWhHsrg_9api_bones5linksNtB5_5LinksNtNtNtNtCsbUtogaBoXXO_4core4iter6traits7collect12IntoIterator9into_iter
FN:66,_RINvMNtCs6zS5XWhHsrg_9api_bones5linksNtB3_4Link3newReNtNtCsipk7xt2ATo7_5alloc6string6StringECs52cul6wXlX0_10fake_smoke
FN:83,_RINvMNtCs6zS5XWhHsrg_9api_bones5linksNtB3_4Link6methodReECs52cul6wXlX0_10fake_smoke
FN:66,_RINvMNtCs6zS5XWhHsrg_9api_bones5linksNtB3_4Link3newReBN_ECsaZ41oU1UDpf_13hateoas_links
FN:162,_RINvMNtCs6zS5XWhHsrg_9api_bones5linksNtB3_4Link4lastReECsaZ41oU1UDpf_13hateoas_links
FN:110,_RINvMNtCs6zS5XWhHsrg_9api_bones5linksNtB3_4Link4nextReECsaZ41oU1UDpf_13hateoas_links
FN:123,_RINvMNtCs6zS5XWhHsrg_9api_bones5linksNtB3_4Link4prevReECsaZ41oU1UDpf_13hateoas_links
FN:149,_RINvMNtCs6zS5XWhHsrg_9api_bones5linksNtB3_4Link5firstReECsaZ41oU1UDpf_13hateoas_links
FN:83,_RINvMNtCs6zS5XWhHsrg_9api_bones5linksNtB3_4Link6methodReECsaZ41oU1UDpf_13hateoas_links
FN:136,_RINvMNtCs6zS5XWhHsrg_9api_bones5linksNtB3_4Link7relatedReECsaZ41oU1UDpf_13hateoas_links
FN:97,_RINvMNtCs6zS5XWhHsrg_9api_bones5linksNtB3_4Link9self_linkReECsaZ41oU1UDpf_13hateoas_links
FN:66,_RINvMNtCs6zS5XWhHsrg_9api_bones5linksNtB3_4Link3newReBN_ECs2rn3AoFVKVj_17response_envelope
FN:110,_RINvMNtCs6zS5XWhHsrg_9api_bones5linksNtB3_4Link4nextReECs2rn3AoFVKVj_17response_envelope
FN:123,_RINvMNtCs6zS5XWhHsrg_9api_bones5linksNtB3_4Link4prevReECs2rn3AoFVKVj_17response_envelope
FN:97,_RINvMNtCs6zS5XWhHsrg_9api_bones5linksNtB3_4Link9self_linkReECs2rn3AoFVKVj_17response_envelope
FNDA:3,_RNvMs_NtCs1ufPfM0GhR0_9api_bones5linksNtB4_5Links3len
FNDA:10,_RNvMs_NtCs1ufPfM0GhR0_9api_bones5linksNtB4_5Links3new
FNDA:4,_RNvMs_NtCs1ufPfM0GhR0_9api_bones5linksNtB4_5Links4find
FNDA:1,_RNvMs_NtCs1ufPfM0GhR0_9api_bones5linksNtB4_5Links4iter
FNDA:14,_RNvMs_NtCs1ufPfM0GhR0_9api_bones5linksNtB4_5Links4push
FNDA:2,_RNvMs_NtCs1ufPfM0GhR0_9api_bones5linksNtB4_5Links8is_empty
FNDA:1,_RNvXs0_NtCs1ufPfM0GhR0_9api_bones5linksNtB5_5LinksINtNtCsbUtogaBoXXO_4core7convert4FromINtNtCsipk7xt2ATo7_5alloc3vec3VecNtB5_4LinkEE4from
FNDA:1,_RNvXs1_NtCs1ufPfM0GhR0_9api_bones5linksNtB5_5LinksNtNtNtNtCsbUtogaBoXXO_4core4iter6traits7collect12IntoIterator9into_iter
FNDA:1,_RNvNtNtCs1ufPfM0GhR0_9api_bones5links5testss_10links_iter
FNDA:1,_RNvNtNtCs1ufPfM0GhR0_9api_bones5links5testss_14links_find_hit
FNDA:1,_RNvNtNtCs1ufPfM0GhR0_9api_bones5links5testss_14links_from_vec
FNDA:1,_RNvNtNtCs1ufPfM0GhR0_9api_bones5links5testss_15links_find_miss
FNDA:1,_RNvNtNtCs1ufPfM0GhR0_9api_bones5links5testss_16link_with_method
FNDA:1,_RNvNtNtCs1ufPfM0GhR0_9api_bones5links5testss_17link_last_factory
FNDA:1,_RNvNtNtCs1ufPfM0GhR0_9api_bones5links5testss_17link_next_factory
FNDA:1,_RNvNtNtCs1ufPfM0GhR0_9api_bones5links5testss_17link_prev_factory
FNDA:1,_RNvNtNtCs1ufPfM0GhR0_9api_bones5links5testss_18link_first_factory
FNDA:1,_RNvNtNtCs1ufPfM0GhR0_9api_bones5links5testss_18links_new_is_empty
FNDA:1,_RNvNtNtCs1ufPfM0GhR0_9api_bones5links5testss_18links_push_and_len
FNDA:1,_RNvNtNtCs1ufPfM0GhR0_9api_bones5links5testss_19links_into_iterator
FNDA:1,_RNvNtNtCs1ufPfM0GhR0_9api_bones5links5testss_20link_related_factory
FNDA:1,_RNvNtNtCs1ufPfM0GhR0_9api_bones5links5testss_22link_self_link_factory
FNDA:1,_RNvNtNtCs1ufPfM0GhR0_9api_bones5links5testss_22links_serde_round_trip
FNDA:1,_RNvNtNtCs1ufPfM0GhR0_9api_bones5links5testss_30links_find_returns_first_match
FNDA:1,_RNvNtNtCs1ufPfM0GhR0_9api_bones5links5testss_33link_serde_round_trip_with_method
FNDA:1,_RNvNtNtCs1ufPfM0GhR0_9api_bones5links5testss_36link_serde_round_trip_without_method
FNDA:1,_RNvNtNtCs1ufPfM0GhR0_9api_bones5links5testss_8link_new
FNDA:2,_RNCNvNtNtCs1ufPfM0GhR0_9api_bones5links5testss_10links_iter0B7_
FNDA:26,_RINvMNtCs1ufPfM0GhR0_9api_bones5linksNtB3_4Link3newReBN_EB5_
FNDA:1,_RINvMNtCs1ufPfM0GhR0_9api_bones5linksNtB3_4Link4lastReEB5_
FNDA:6,_RINvMNtCs1ufPfM0GhR0_9api_bones5linksNtB3_4Link4nextReEB5_
FNDA:1,_RINvMNtCs1ufPfM0GhR0_9api_bones5linksNtB3_4Link4prevReEB5_
FNDA:1,_RINvMNtCs1ufPfM0GhR0_9api_bones5linksNtB3_4Link5firstReEB5_
FNDA:2,_RINvMNtCs1ufPfM0GhR0_9api_bones5linksNtB3_4Link6methodReEB5_
FNDA:3,_RINvMNtCs1ufPfM0GhR0_9api_bones5linksNtB3_4Link7relatedReEB5_
FNDA:11,_RINvMNtCs1ufPfM0GhR0_9api_bones5linksNtB3_4Link9self_linkReEB5_
FNDA:5,_RNCNvMs_NtCs1ufPfM0GhR0_9api_bones5linksNtB6_5Links4find0B8_
FNDA:0,_RINvMNtCs6zS5XWhHsrg_9api_bones5linksNtB3_4Link3newppEB5_
FNDA:0,_RINvMNtCs6zS5XWhHsrg_9api_bones5linksNtB3_4Link4lastpEB5_
FNDA:0,_RINvMNtCs6zS5XWhHsrg_9api_bones5linksNtB3_4Link4nextpEB5_
FNDA:0,_RINvMNtCs6zS5XWhHsrg_9api_bones5linksNtB3_4Link4prevpEB5_
FNDA:0,_RINvMNtCs6zS5XWhHsrg_9api_bones5linksNtB3_4Link5firstpEB5_
FNDA:0,_RINvMNtCs6zS5XWhHsrg_9api_bones5linksNtB3_4Link6methodpEB5_
FNDA:0,_RINvMNtCs6zS5XWhHsrg_9api_bones5linksNtB3_4Link7relatedpEB5_
FNDA:0,_RINvMNtCs6zS5XWhHsrg_9api_bones5linksNtB3_4Link9self_linkpEB5_
FNDA:0,_RNCNvMs_NtCs6zS5XWhHsrg_9api_bones5linksNtB6_5Links4find0B8_
FNDA:0,_RNvMs_NtCs6zS5XWhHsrg_9api_bones5linksNtB4_5Links3len
FNDA:493,_RNvMs_NtCs6zS5XWhHsrg_9api_bones5linksNtB4_5Links3new
FNDA:0,_RNvMs_NtCs6zS5XWhHsrg_9api_bones5linksNtB4_5Links4find
FNDA:0,_RNvMs_NtCs6zS5XWhHsrg_9api_bones5linksNtB4_5Links4iter
FNDA:1000,_RNvMs_NtCs6zS5XWhHsrg_9api_bones5linksNtB4_5Links4push
FNDA:0,_RNvMs_NtCs6zS5XWhHsrg_9api_bones5linksNtB4_5Links8is_empty
FNDA:0,_RNvXs0_NtCs6zS5XWhHsrg_9api_bones5linksNtB5_5LinksINtNtCsbUtogaBoXXO_4core7convert4FromINtNtCsipk7xt2ATo7_5alloc3vec3VecNtB5_4LinkEE4from
FNDA:0,_RNvXs1_NtCs6zS5XWhHsrg_9api_bones5linksNtB5_5LinksNtNtNtNtCsbUtogaBoXXO_4core4iter6traits7collect12IntoIterator9into_iter
FNDA:1200,_RINvMNtCs6zS5XWhHsrg_9api_bones5linksNtB3_4Link3newReNtNtCsipk7xt2ATo7_5alloc6string6StringECs52cul6wXlX0_10fake_smoke
FNDA:628,_RINvMNtCs6zS5XWhHsrg_9api_bones5linksNtB3_4Link6methodReECs52cul6wXlX0_10fake_smoke
FNDA:0,_RINvMNtCs6zS5XWhHsrg_9api_bones5linksNtB3_4Link3newReBN_ECsaZ41oU1UDpf_13hateoas_links
FNDA:0,_RINvMNtCs6zS5XWhHsrg_9api_bones5linksNtB3_4Link4lastReECsaZ41oU1UDpf_13hateoas_links
FNDA:0,_RINvMNtCs6zS5XWhHsrg_9api_bones5linksNtB3_4Link4nextReECsaZ41oU1UDpf_13hateoas_links
FNDA:0,_RINvMNtCs6zS5XWhHsrg_9api_bones5linksNtB3_4Link4prevReECsaZ41oU1UDpf_13hateoas_links
FNDA:0,_RINvMNtCs6zS5XWhHsrg_9api_bones5linksNtB3_4Link5firstReECsaZ41oU1UDpf_13hateoas_links
FNDA:0,_RINvMNtCs6zS5XWhHsrg_9api_bones5linksNtB3_4Link6methodReECsaZ41oU1UDpf_13hateoas_links
FNDA:0,_RINvMNtCs6zS5XWhHsrg_9api_bones5linksNtB3_4Link7relatedReECsaZ41oU1UDpf_13hateoas_links
FNDA:0,_RINvMNtCs6zS5XWhHsrg_9api_bones5linksNtB3_4Link9self_linkReECsaZ41oU1UDpf_13hateoas_links
FNDA:0,_RINvMNtCs6zS5XWhHsrg_9api_bones5linksNtB3_4Link3newReBN_ECs2rn3AoFVKVj_17response_envelope
FNDA:0,_RINvMNtCs6zS5XWhHsrg_9api_bones5linksNtB3_4Link4nextReECs2rn3AoFVKVj_17response_envelope
FNDA:0,_RINvMNtCs6zS5XWhHsrg_9api_bones5linksNtB3_4Link4prevReECs2rn3AoFVKVj_17response_envelope
FNDA:0,_RINvMNtCs6zS5XWhHsrg_9api_bones5linksNtB3_4Link9self_linkReECs2rn3AoFVKVj_17response_envelope
FNF:37
FNH:37
DA:66,1226
DA:67,1226
DA:68,1226
DA:69,1226
DA:70,1226
DA:71,1226
DA:72,1226
DA:83,630
DA:84,630
DA:85,630
DA:86,630
DA:97,11
DA:98,11
DA:99,11
DA:110,6
DA:111,6
DA:112,6
DA:123,1
DA:124,1
DA:125,1
DA:136,3
DA:137,3
DA:138,3
DA:149,1
DA:150,1
DA:151,1
DA:162,1
DA:163,1
DA:164,1
DA:195,503
DA:196,503
DA:197,503
DA:210,1014
DA:211,1014
DA:212,1014
DA:213,1014
DA:227,4
DA:228,5
DA:229,4
DA:232,1
DA:233,1
DA:234,1
DA:238,3
DA:239,3
DA:240,3
DA:244,2
DA:245,2
DA:246,2
DA:250,1
DA:251,1
DA:252,1
DA:259,1
DA:260,1
DA:261,1
DA:277,1
DA:278,1
DA:279,1
DA:280,1
DA:281,1
DA:282,1
DA:285,1
DA:286,1
DA:287,1
DA:288,1
DA:291,1
DA:292,1
DA:293,1
DA:294,1
DA:295,1
DA:298,1
DA:299,1
DA:300,1
DA:301,1
DA:304,1
DA:305,1
DA:306,1
DA:307,1
DA:310,1
DA:311,1
DA:312,1
DA:313,1
DA:316,1
DA:317,1
DA:318,1
DA:319,1
DA:322,1
DA:323,1
DA:324,1
DA:325,1
DA:332,1
DA:333,1
DA:334,1
DA:335,1
DA:336,1
DA:339,1
DA:340,1
DA:341,1
DA:342,1
DA:343,1
DA:344,1
DA:345,1
DA:348,1
DA:349,1
DA:350,1
DA:351,1
DA:352,1
DA:353,1
DA:354,1
DA:357,1
DA:358,1
DA:359,1
DA:360,1
DA:363,1
DA:364,1
DA:365,1
DA:366,1
DA:367,1
DA:368,1
DA:371,1
DA:372,1
DA:373,1
DA:374,1
DA:375,2
DA:376,1
DA:377,1
DA:380,1
DA:381,1
DA:382,1
DA:383,1
DA:386,1
DA:387,1
DA:388,1
DA:389,1
DA:390,1
DA:398,1
DA:399,1
DA:400,1
DA:401,1
DA:402,1
DA:403,1
DA:404,1
DA:405,1
DA:406,1
DA:410,1
DA:411,1
DA:412,1
DA:413,1
DA:414,1
DA:415,1
DA:416,1
DA:420,1
DA:421,1
DA:422,1
DA:423,1
DA:424,1
DA:426,1
DA:427,1
DA:428,1
DA:429,1
DA:430,1
DA:431,1
BRF:0
BRH:0
LF:163
LH:163
end_of_record
SF:/Users/gsalingu/git/api-bones/.claude/worktrees/feat+211-nested-org-adr/src/method.rs
FN:238,_RNvNtNtCs1ufPfM0GhR0_9api_bones6method5testss_13is_idempotent
FN:258,_RNvNtNtCs1ufPfM0GhR0_9api_bones6method5testss_16serde_round_trip
FN:199,_RNvNtNtCs1ufPfM0GhR0_9api_bones6method5testss_18as_str_round_trips
FN:289,_RNvNtNtCs1ufPfM0GhR0_9api_bones6method5testss_19parse_error_display
FN:251,_RNvNtNtCs1ufPfM0GhR0_9api_bones6method5testss_20parse_unknown_errors
FN:219,_RNvNtNtCs1ufPfM0GhR0_9api_bones6method5testss_21display_equals_as_str
FN:268,_RNvNtNtCs1ufPfM0GhR0_9api_bones6method5testss_21http_crate_round_trip
FN:225,_RNvNtNtCs1ufPfM0GhR0_9api_bones6method5testss_7is_safe
FN:166,_RNvXNtNtCs1ufPfM0GhR0_9api_bones6method12http_interopNtNtCsj901y1vRFmJ_4http6method6MethodINtNtCsbUtogaBoXXO_4core7convert4FromNtB4_10HttpMethodE4from
FN:107,_RNvMNtCs1ufPfM0GhR0_9api_bones6methodNtB2_10HttpMethod13is_idempotent
FN:67,_RNvMNtCs1ufPfM0GhR0_9api_bones6methodNtB2_10HttpMethod6as_str
FN:92,_RNvMNtCs1ufPfM0GhR0_9api_bones6methodNtB2_10HttpMethod7is_safe
FN:130,_RNvXs0_NtCs1ufPfM0GhR0_9api_bones6methodNtB5_20ParseHttpMethodErrorNtNtCsbUtogaBoXXO_4core3fmt7Display3fmt
FN:141,_RNvXs2_NtCs1ufPfM0GhR0_9api_bones6methodNtB5_10HttpMethodNtNtNtCsbUtogaBoXXO_4core3str6traits7FromStr8from_str
FN:120,_RNvXs_NtCs1ufPfM0GhR0_9api_bones6methodNtB4_10HttpMethodNtNtCsbUtogaBoXXO_4core3fmt7Display3fmt
FN:184,_RNvXs_NtNtCs1ufPfM0GhR0_9api_bones6method12http_interopNtB6_10HttpMethodINtNtCsbUtogaBoXXO_4core7convert7TryFromNtNtCsj901y1vRFmJ_4http6method6MethodE8try_from
FN:166,_RNvXNtNtCs6zS5XWhHsrg_9api_bones6method12http_interopNtNtCsj901y1vRFmJ_4http6method6MethodINtNtCsbUtogaBoXXO_4core7convert4FromNtB4_10HttpMethodE4from
FN:107,_RNvMNtCs6zS5XWhHsrg_9api_bones6methodNtB2_10HttpMethod13is_idempotent
FN:67,_RNvMNtCs6zS5XWhHsrg_9api_bones6methodNtB2_10HttpMethod6as_str
FN:92,_RNvMNtCs6zS5XWhHsrg_9api_bones6methodNtB2_10HttpMethod7is_safe
FN:130,_RNvXs0_NtCs6zS5XWhHsrg_9api_bones6methodNtB5_20ParseHttpMethodErrorNtNtCsbUtogaBoXXO_4core3fmt7Display3fmt
FN:141,_RNvXs2_NtCs6zS5XWhHsrg_9api_bones6methodNtB5_10HttpMethodNtNtNtCsbUtogaBoXXO_4core3str6traits7FromStr8from_str
FN:120,_RNvXs_NtCs6zS5XWhHsrg_9api_bones6methodNtB4_10HttpMethodNtNtCsbUtogaBoXXO_4core3fmt7Display3fmt
FN:184,_RNvXs_NtNtCs6zS5XWhHsrg_9api_bones6method12http_interopNtB6_10HttpMethodINtNtCsbUtogaBoXXO_4core7convert7TryFromNtNtCsj901y1vRFmJ_4http6method6MethodE8try_from
FNDA:1,_RNvNtNtCs1ufPfM0GhR0_9api_bones6method5testss_13is_idempotent
FNDA:1,_RNvNtNtCs1ufPfM0GhR0_9api_bones6method5testss_16serde_round_trip
FNDA:1,_RNvNtNtCs1ufPfM0GhR0_9api_bones6method5testss_18as_str_round_trips
FNDA:1,_RNvNtNtCs1ufPfM0GhR0_9api_bones6method5testss_19parse_error_display
FNDA:1,_RNvNtNtCs1ufPfM0GhR0_9api_bones6method5testss_20parse_unknown_errors
FNDA:1,_RNvNtNtCs1ufPfM0GhR0_9api_bones6method5testss_21display_equals_as_str
FNDA:1,_RNvNtNtCs1ufPfM0GhR0_9api_bones6method5testss_21http_crate_round_trip
FNDA:1,_RNvNtNtCs1ufPfM0GhR0_9api_bones6method5testss_7is_safe
FNDA:9,_RNvXNtNtCs1ufPfM0GhR0_9api_bones6method12http_interopNtNtCsj901y1vRFmJ_4http6method6MethodINtNtCsbUtogaBoXXO_4core7convert4FromNtB4_10HttpMethodE4from
FNDA:9,_RNvMNtCs1ufPfM0GhR0_9api_bones6methodNtB2_10HttpMethod13is_idempotent
FNDA:12,_RNvMNtCs1ufPfM0GhR0_9api_bones6methodNtB2_10HttpMethod6as_str
FNDA:9,_RNvMNtCs1ufPfM0GhR0_9api_bones6methodNtB2_10HttpMethod7is_safe
FNDA:1,_RNvXs0_NtCs1ufPfM0GhR0_9api_bones6methodNtB5_20ParseHttpMethodErrorNtNtCsbUtogaBoXXO_4core3fmt7Display3fmt
FNDA:21,_RNvXs2_NtCs1ufPfM0GhR0_9api_bones6methodNtB5_10HttpMethodNtNtNtCsbUtogaBoXXO_4core3str6traits7FromStr8from_str
FNDA:2,_RNvXs_NtCs1ufPfM0GhR0_9api_bones6methodNtB4_10HttpMethodNtNtCsbUtogaBoXXO_4core3fmt7Display3fmt
FNDA:9,_RNvXs_NtNtCs1ufPfM0GhR0_9api_bones6method12http_interopNtB6_10HttpMethodINtNtCsbUtogaBoXXO_4core7convert7TryFromNtNtCsj901y1vRFmJ_4http6method6MethodE8try_from
FNDA:0,_RNvXNtNtCs6zS5XWhHsrg_9api_bones6method12http_interopNtNtCsj901y1vRFmJ_4http6method6MethodINtNtCsbUtogaBoXXO_4core7convert4FromNtB4_10HttpMethodE4from
FNDA:0,_RNvMNtCs6zS5XWhHsrg_9api_bones6methodNtB2_10HttpMethod13is_idempotent
FNDA:0,_RNvMNtCs6zS5XWhHsrg_9api_bones6methodNtB2_10HttpMethod6as_str
FNDA:0,_RNvMNtCs6zS5XWhHsrg_9api_bones6methodNtB2_10HttpMethod7is_safe
FNDA:0,_RNvXs0_NtCs6zS5XWhHsrg_9api_bones6methodNtB5_20ParseHttpMethodErrorNtNtCsbUtogaBoXXO_4core3fmt7Display3fmt
FNDA:0,_RNvXs2_NtCs6zS5XWhHsrg_9api_bones6methodNtB5_10HttpMethodNtNtNtCsbUtogaBoXXO_4core3str6traits7FromStr8from_str
FNDA:0,_RNvXs_NtCs6zS5XWhHsrg_9api_bones6methodNtB4_10HttpMethodNtNtCsbUtogaBoXXO_4core3fmt7Display3fmt
FNDA:0,_RNvXs_NtNtCs6zS5XWhHsrg_9api_bones6method12http_interopNtB6_10HttpMethodINtNtCsbUtogaBoXXO_4core7convert7TryFromNtNtCsj901y1vRFmJ_4http6method6MethodE8try_from
FNF:16
FNH:16
DA:67,12
DA:68,12
DA:69,3
DA:70,1
DA:71,1
DA:72,1
DA:73,1
DA:74,1
DA:75,1
DA:76,1
DA:77,2
DA:79,12
DA:92,9
DA:93,9
DA:94,9
DA:107,9
DA:108,3
DA:109,9
DA:112,9
DA:120,2
DA:121,2
DA:122,2
DA:130,1
DA:131,1
DA:132,1
DA:141,21
DA:142,21
DA:143,21
DA:144,19
DA:145,17
DA:146,15
DA:147,13
DA:148,11
DA:149,9
DA:150,7
DA:151,5
DA:152,3
DA:154,21
DA:166,9
DA:167,9
DA:168,1
DA:169,1
DA:170,1
DA:171,1
DA:172,1
DA:173,1
DA:174,1
DA:175,1
DA:176,1
DA:178,9
DA:184,9
DA:185,9
DA:186,9
DA:199,1
DA:200,1
DA:201,1
DA:202,1
DA:203,1
DA:204,1
DA:205,1
DA:206,1
DA:207,1
DA:208,1
DA:209,1
DA:210,1
DA:211,9
DA:212,9
DA:213,9
DA:214,9
DA:216,1
DA:219,1
DA:220,1
DA:221,1
DA:222,1
DA:225,1
DA:226,1
DA:227,1
DA:228,1
DA:229,1
DA:230,1
DA:231,1
DA:232,1
DA:233,1
DA:234,1
DA:235,1
DA:238,1
DA:239,1
DA:240,1
DA:241,1
DA:242,1
DA:243,1
DA:244,1
DA:245,1
DA:246,1
DA:247,1
DA:248,1
DA:251,1
DA:252,1
DA:253,1
DA:254,1
DA:258,1
DA:259,1
DA:260,1
DA:261,1
DA:262,1
DA:263,1
DA:264,1
DA:268,1
DA:269,1
DA:270,1
DA:271,1
DA:272,1
DA:273,1
DA:274,1
DA:275,1
DA:276,1
DA:277,1
DA:278,1
DA:279,1
DA:280,9
DA:281,9
DA:282,9
DA:283,9
DA:284,9
DA:286,1
DA:289,1
DA:290,1
DA:291,1
DA:292,1
BRF:0
BRH:0
LF:129
LH:129
end_of_record
SF:/Users/gsalingu/git/api-bones/.claude/worktrees/feat+211-nested-org-adr/src/openapi.rs
FN:193,_RNvMs2_NtCs1ufPfM0GhR0_9api_bones7openapiNtB5_15DeprecatedField10field_name
FN:199,_RNvMs2_NtCs1ufPfM0GhR0_9api_bones7openapiNtB5_15DeprecatedField11replacement
FN:186,_RINvMs2_NtCs1ufPfM0GhR0_9api_bones7openapiNtB6_15DeprecatedField16with_replacementReEB8_
FN:168,_RINvMs2_NtCs1ufPfM0GhR0_9api_bones7openapiNtB6_15DeprecatedField3newReEB8_
FN:89,_RNvMNtCs1ufPfM0GhR0_9api_bones7openapiINtB2_7ExampleReE10into_innerB4_
FN:75,_RNvMNtCs1ufPfM0GhR0_9api_bones7openapiINtB2_7ExampleReE3newB4_
FN:75,_RNvMNtCs1ufPfM0GhR0_9api_bones7openapiINtB2_7ExamplemE3newB4_
FN:82,_RNvMNtCs1ufPfM0GhR0_9api_bones7openapiINtB2_7ExamplemE5valueB4_
FN:105,_RNvXs0_NtCs1ufPfM0GhR0_9api_bones7openapiINtB5_7ExamplemENtNtNtCsbUtogaBoXXO_4core3ops5deref8DerefMut9deref_mutB7_
FN:112,_RNvXs1_NtCs1ufPfM0GhR0_9api_bones7openapiINtB5_7ExamplemEINtNtCsbUtogaBoXXO_4core7convert4FrommE4fromB7_
FN:98,_RNvXs_NtCs1ufPfM0GhR0_9api_bones7openapiINtB4_7ExamplemENtNtNtCsbUtogaBoXXO_4core3ops5deref5Deref5derefB6_
FN:226,_RNvNtNtCs1ufPfM0GhR0_9api_bones7openapi5testss_12example_from
FN:232,_RNvNtNtCs1ufPfM0GhR0_9api_bones7openapi5testss_17example_deref_mut
FN:220,_RNvNtNtCs1ufPfM0GhR0_9api_bones7openapi5testss_18example_into_inner
FN:251,_RNvNtNtCs1ufPfM0GhR0_9api_bones7openapi5testss_20deprecated_field_new
FN:213,_RNvNtNtCs1ufPfM0GhR0_9api_bones7openapi5testss_21example_new_and_deref
FN:240,_RNvNtNtCs1ufPfM0GhR0_9api_bones7openapi5testss_25example_transparent_serde
FN:274,_RNvNtNtCs1ufPfM0GhR0_9api_bones7openapi5testss_33deprecated_field_serde_round_trip
FN:259,_RNvNtNtCs1ufPfM0GhR0_9api_bones7openapi5testss_33deprecated_field_with_replacement
FN:266,_RNvNtNtCs1ufPfM0GhR0_9api_bones7openapi5testss_45deprecated_field_serde_omits_none_replacement
FN:186,_RINvMs2_NtCs6zS5XWhHsrg_9api_bones7openapiNtB6_15DeprecatedField16with_replacementpEB8_
FN:168,_RINvMs2_NtCs6zS5XWhHsrg_9api_bones7openapiNtB6_15DeprecatedField3newpEB8_
FN:89,_RNvMNtCs6zS5XWhHsrg_9api_bones7openapiINtB2_7ExamplepE10into_innerB4_
FN:75,_RNvMNtCs6zS5XWhHsrg_9api_bones7openapiINtB2_7ExamplepE3newB4_
FN:82,_RNvMNtCs6zS5XWhHsrg_9api_bones7openapiINtB2_7ExamplepE5valueB4_
FN:105,_RNvXININtCs6zS5XWhHsrg_9api_bones7openapis0_0pEINtB5_7ExamplepENtNtNtCsbUtogaBoXXO_4core3ops5deref8DerefMut9deref_mutB7_
FN:112,_RNvXININtCs6zS5XWhHsrg_9api_bones7openapis1_0pEINtB5_7ExamplepEINtNtCsbUtogaBoXXO_4core7convert4FrompE4fromB7_
FN:98,_RNvXININtCs6zS5XWhHsrg_9api_bones7openapis_0pEINtB5_7ExamplepENtNtNtCsbUtogaBoXXO_4core3ops5deref5Deref5derefB7_
FNDA:1,_RNvMs2_NtCs1ufPfM0GhR0_9api_bones7openapiNtB5_15DeprecatedField10field_name
FNDA:2,_RNvMs2_NtCs1ufPfM0GhR0_9api_bones7openapiNtB5_15DeprecatedField11replacement
FNDA:2,_RINvMs2_NtCs1ufPfM0GhR0_9api_bones7openapiNtB6_15DeprecatedField16with_replacementReEB8_
FNDA:4,_RINvMs2_NtCs1ufPfM0GhR0_9api_bones7openapiNtB6_15DeprecatedField3newReEB8_
FNDA:1,_RNvMNtCs1ufPfM0GhR0_9api_bones7openapiINtB2_7ExampleReE10into_innerB4_
FNDA:1,_RNvMNtCs1ufPfM0GhR0_9api_bones7openapiINtB2_7ExampleReE3newB4_
FNDA:3,_RNvMNtCs1ufPfM0GhR0_9api_bones7openapiINtB2_7ExamplemE3newB4_
FNDA:1,_RNvMNtCs1ufPfM0GhR0_9api_bones7openapiINtB2_7ExamplemE5valueB4_
FNDA:1,_RNvXs0_NtCs1ufPfM0GhR0_9api_bones7openapiINtB5_7ExamplemENtNtNtCsbUtogaBoXXO_4core3ops5deref8DerefMut9deref_mutB7_
FNDA:1,_RNvXs1_NtCs1ufPfM0GhR0_9api_bones7openapiINtB5_7ExamplemEINtNtCsbUtogaBoXXO_4core7convert4FrommE4fromB7_
FNDA:3,_RNvXs_NtCs1ufPfM0GhR0_9api_bones7openapiINtB4_7ExamplemENtNtNtCsbUtogaBoXXO_4core3ops5deref5Deref5derefB6_
FNDA:1,_RNvNtNtCs1ufPfM0GhR0_9api_bones7openapi5testss_12example_from
FNDA:1,_RNvNtNtCs1ufPfM0GhR0_9api_bones7openapi5testss_17example_deref_mut
FNDA:1,_RNvNtNtCs1ufPfM0GhR0_9api_bones7openapi5testss_18example_into_inner
FNDA:1,_RNvNtNtCs1ufPfM0GhR0_9api_bones7openapi5testss_20deprecated_field_new
FNDA:1,_RNvNtNtCs1ufPfM0GhR0_9api_bones7openapi5testss_21example_new_and_deref
FNDA:1,_RNvNtNtCs1ufPfM0GhR0_9api_bones7openapi5testss_25example_transparent_serde
FNDA:1,_RNvNtNtCs1ufPfM0GhR0_9api_bones7openapi5testss_33deprecated_field_serde_round_trip
FNDA:1,_RNvNtNtCs1ufPfM0GhR0_9api_bones7openapi5testss_33deprecated_field_with_replacement
FNDA:1,_RNvNtNtCs1ufPfM0GhR0_9api_bones7openapi5testss_45deprecated_field_serde_omits_none_replacement
FNDA:0,_RINvMs2_NtCs6zS5XWhHsrg_9api_bones7openapiNtB6_15DeprecatedField16with_replacementpEB8_
FNDA:0,_RINvMs2_NtCs6zS5XWhHsrg_9api_bones7openapiNtB6_15DeprecatedField3newpEB8_
FNDA:0,_RNvMNtCs6zS5XWhHsrg_9api_bones7openapiINtB2_7ExamplepE10into_innerB4_
FNDA:0,_RNvMNtCs6zS5XWhHsrg_9api_bones7openapiINtB2_7ExamplepE3newB4_
FNDA:0,_RNvMNtCs6zS5XWhHsrg_9api_bones7openapiINtB2_7ExamplepE5valueB4_
FNDA:0,_RNvXININtCs6zS5XWhHsrg_9api_bones7openapis0_0pEINtB5_7ExamplepENtNtNtCsbUtogaBoXXO_4core3ops5deref8DerefMut9deref_mutB7_
FNDA:0,_RNvXININtCs6zS5XWhHsrg_9api_bones7openapis1_0pEINtB5_7ExamplepEINtNtCsbUtogaBoXXO_4core7convert4FrompE4fromB7_
FNDA:0,_RNvXININtCs6zS5XWhHsrg_9api_bones7openapis_0pEINtB5_7ExamplepENtNtNtCsbUtogaBoXXO_4core3ops5deref5Deref5derefB7_
FNF:19
FNH:19
DA:75,4
DA:76,4
DA:77,4
DA:82,1
DA:83,1
DA:84,1
DA:89,1
DA:90,1
DA:91,1
DA:98,3
DA:99,3
DA:100,3
DA:105,1
DA:106,1
DA:107,1
DA:112,1
DA:113,1
DA:114,1
DA:168,4
DA:169,4
DA:170,4
DA:171,4
DA:172,4
DA:173,4
DA:186,2
DA:187,2
DA:188,2
DA:189,2
DA:193,1
DA:194,1
DA:195,1
DA:199,2
DA:200,2
DA:201,2
DA:213,1
DA:214,1
DA:215,1
DA:216,1
DA:217,1
DA:220,1
DA:221,1
DA:222,1
DA:223,1
DA:226,1
DA:227,1
DA:228,1
DA:229,1
DA:232,1
DA:233,1
DA:234,1
DA:235,1
DA:236,1
DA:240,1
DA:241,1
DA:242,1
DA:244,1
DA:245,1
DA:246,1
DA:247,1
DA:251,1
DA:252,1
DA:253,1
DA:254,1
DA:255,1
DA:259,1
DA:260,1
DA:261,1
DA:262,1
DA:266,1
DA:267,1
DA:268,1
DA:269,1
DA:270,1
DA:274,1
DA:275,1
DA:276,1
DA:277,1
DA:278,1
DA:279,1
BRF:0
BRH:0
LF:79
LH:79
end_of_record
SF:/Users/gsalingu/git/api-bones/.claude/worktrees/feat+211-nested-org-adr/src/org_context.rs
FN:56,_RNvMNtCs1ufPfM0GhR0_9api_bones11org_contextNtB2_4Role6as_str
FN:279,_RNvMs4_NtCs1ufPfM0GhR0_9api_bones11org_contextNtB5_19OrganizationContext10with_roles
FN:304,_RNvMs4_NtCs1ufPfM0GhR0_9api_bones11org_contextNtB5_19OrganizationContext13with_org_path
FN:331,_RNvMs4_NtCs1ufPfM0GhR0_9api_bones11org_contextNtB5_19OrganizationContext16with_attestation
FN:249,_RNvMs4_NtCs1ufPfM0GhR0_9api_bones11org_contextNtB5_19OrganizationContext3new
FN:68,_RNvXs0_NtCs1ufPfM0GhR0_9api_bones11org_contextNtB5_4RoleINtNtCsbUtogaBoXXO_4core7convert4FromNtNtCsipk7xt2ATo7_5alloc6string6StringE4from
FN:74,_RNvXs1_NtCs1ufPfM0GhR0_9api_bones11org_contextNtB5_4RoleNtNtCsbUtogaBoXXO_4core3fmt7Display3fmt
FN:62,_RNvXs_NtCs1ufPfM0GhR0_9api_bones11org_contextNtB4_4RoleINtNtCsbUtogaBoXXO_4core7convert4FromReE4from
FN:464,_RNvNtNtCs1ufPfM0GhR0_9api_bones11org_context5testss_10role_debug
FN:458,_RNvNtNtCs1ufPfM0GhR0_9api_bones11org_context5testss_12role_display
FN:442,_RNvNtNtCs1ufPfM0GhR0_9api_bones11org_context5testss_12role_hash_eq
FN:435,_RNvNtNtCs1ufPfM0GhR0_9api_bones11org_context5testss_13role_clone_eq
FN:520,_RNvNtNtCs1ufPfM0GhR0_9api_bones11org_context5testss_17attestation_debug
FN:626,_RNvNtNtCs1ufPfM0GhR0_9api_bones11org_context5testss_17org_context_debug
FN:510,_RNvNtNtCs1ufPfM0GhR0_9api_bones11org_context5testss_20attestation_clone_eq
FN:610,_RNvNtNtCs1ufPfM0GhR0_9api_bones11org_context5testss_20org_context_clone_eq
FN:650,_RNvNtNtCs1ufPfM0GhR0_9api_bones11org_context5testss_20role_serde_roundtrip
FN:472,_RNvNtNtCs1ufPfM0GhR0_9api_bones11org_context5testss_21attestation_kind_copy
FN:363,_RNvNtNtCs1ufPfM0GhR0_9api_bones11org_context5testss_22role_scope_specific_eq
FN:500,_RNvNtNtCs1ufPfM0GhR0_9api_bones11org_context5testss_24attestation_construction
FN:531,_RNvNtNtCs1ufPfM0GhR0_9api_bones11org_context5testss_24org_context_construction
FN:349,_RNvNtNtCs1ufPfM0GhR0_9api_bones11org_context5testss_24role_scope_self_clone_eq
FN:580,_RNvNtNtCs1ufPfM0GhR0_9api_bones11org_context5testss_25org_context_with_org_path
FN:400,_RNvNtNtCs1ufPfM0GhR0_9api_bones11org_context5testss_25role_binding_construction
FN:637,_RNvNtNtCs1ufPfM0GhR0_9api_bones11org_context5testss_26org_context_no_attestation
FN:423,_RNvNtNtCs1ufPfM0GhR0_9api_bones11org_context5testss_26role_construction_from_str
FN:668,_RNvNtNtCs1ufPfM0GhR0_9api_bones11org_context5testss_27attestation_serde_roundtrip
FN:680,_RNvNtNtCs1ufPfM0GhR0_9api_bones11org_context5testss_27org_context_serde_roundtrip
FN:356,_RNvNtNtCs1ufPfM0GhR0_9api_bones11org_context5testss_27role_scope_subtree_clone_eq
FN:593,_RNvNtNtCs1ufPfM0GhR0_9api_bones11org_context5testss_28org_context_with_attestation
FN:411,_RNvNtNtCs1ufPfM0GhR0_9api_bones11org_context5testss_28role_binding_serde_roundtrip
FN:479,_RNvNtNtCs1ufPfM0GhR0_9api_bones11org_context5testss_29attestation_kind_all_variants
FN:429,_RNvNtNtCs1ufPfM0GhR0_9api_bones11org_context5testss_29role_construction_from_string
FN:546,_RNvNtNtCs1ufPfM0GhR0_9api_bones11org_context5testss_30org_context_with_role_bindings
FN:372,_RNvNtNtCs1ufPfM0GhR0_9api_bones11org_context5testss_31role_scope_serde_roundtrip_self
FN:569,_RNvNtNtCs1ufPfM0GhR0_9api_bones11org_context5testss_34org_context_default_empty_org_path
FN:381,_RNvNtNtCs1ufPfM0GhR0_9api_bones11org_context5testss_34role_scope_serde_roundtrip_subtree
FN:390,_RNvNtNtCs1ufPfM0GhR0_9api_bones11org_context5testss_35role_scope_serde_roundtrip_specific
FN:659,_RNvNtNtCs1ufPfM0GhR0_9api_bones11org_context5testss_36attestation_kind_serde_roundtrip_jwt
FN:81,_RINvXs2_NtCs1ufPfM0GhR0_9api_bones11org_contextNtB6_4RoleNtNtCseAJKguVKcII_10serde_core3ser9Serialize9serializeINtNtCsdC8qrlXHNsA_10serde_json3ser18RawValueStrEmitterQINtNtCsipk7xt2ATo7_5alloc3vec3VechENtB1O_16CompactFormatterEEB8_
FN:81,_RINvXs2_NtCs1ufPfM0GhR0_9api_bones11org_contextNtB6_4RoleNtNtCseAJKguVKcII_10serde_core3ser9Serialize9serializeQINtNtCsdC8qrlXHNsA_10serde_json3ser10SerializerQINtNtCsipk7xt2ATo7_5alloc3vec3VechEEEB8_
FN:91,_RINvXs3_NtCs1ufPfM0GhR0_9api_bones11org_contextNtB6_4RoleNtNtCseAJKguVKcII_10serde_core2de11Deserialize11deserializeINtNvNtNtCsk3sbdBdDBYJ_5serde7private2de13missing_field24MissingFieldDeserializerNtNtCsdC8qrlXHNsA_10serde_json5error5ErrorEEB8_
FN:91,_RINvXs3_NtCs1ufPfM0GhR0_9api_bones11org_contextNtB6_4RoleNtNtCseAJKguVKcII_10serde_core2de11Deserialize11deserializeQINtNtCsdC8qrlXHNsA_10serde_json2de12DeserializerNtNtB1W_4read7StrReadEEB8_
FN:56,_RNvMNtCs6zS5XWhHsrg_9api_bones11org_contextNtB2_4Role6as_str
FN:279,_RNvMs4_NtCs6zS5XWhHsrg_9api_bones11org_contextNtB5_19OrganizationContext10with_roles
FN:304,_RNvMs4_NtCs6zS5XWhHsrg_9api_bones11org_contextNtB5_19OrganizationContext13with_org_path
FN:331,_RNvMs4_NtCs6zS5XWhHsrg_9api_bones11org_contextNtB5_19OrganizationContext16with_attestation
FN:249,_RNvMs4_NtCs6zS5XWhHsrg_9api_bones11org_contextNtB5_19OrganizationContext3new
FN:68,_RNvXs0_NtCs6zS5XWhHsrg_9api_bones11org_contextNtB5_4RoleINtNtCsbUtogaBoXXO_4core7convert4FromNtNtCsipk7xt2ATo7_5alloc6string6StringE4from
FN:74,_RNvXs1_NtCs6zS5XWhHsrg_9api_bones11org_contextNtB5_4RoleNtNtCsbUtogaBoXXO_4core3fmt7Display3fmt
FN:62,_RNvXs_NtCs6zS5XWhHsrg_9api_bones11org_contextNtB4_4RoleINtNtCsbUtogaBoXXO_4core7convert4FromReE4from
FN:81,_RINvXs2_NtCs6zS5XWhHsrg_9api_bones11org_contextNtB6_4RoleNtNtCseAJKguVKcII_10serde_core3ser9Serialize9serializepEB8_
FN:91,_RINvXs3_NtCs6zS5XWhHsrg_9api_bones11org_contextNtB6_4RoleNtNtCseAJKguVKcII_10serde_core2de11Deserialize11deserializepEB8_
FNDA:2,_RNvMNtCs1ufPfM0GhR0_9api_bones11org_contextNtB2_4Role6as_str
FNDA:3,_RNvMs4_NtCs1ufPfM0GhR0_9api_bones11org_contextNtB5_19OrganizationContext10with_roles
FNDA:2,_RNvMs4_NtCs1ufPfM0GhR0_9api_bones11org_contextNtB5_19OrganizationContext13with_org_path
FNDA:2,_RNvMs4_NtCs1ufPfM0GhR0_9api_bones11org_contextNtB5_19OrganizationContext16with_attestation
FNDA:9,_RNvMs4_NtCs1ufPfM0GhR0_9api_bones11org_contextNtB5_19OrganizationContext3new
FNDA:1,_RNvXs0_NtCs1ufPfM0GhR0_9api_bones11org_contextNtB5_4RoleINtNtCsbUtogaBoXXO_4core7convert4FromNtNtCsipk7xt2ATo7_5alloc6string6StringE4from
FNDA:1,_RNvXs1_NtCs1ufPfM0GhR0_9api_bones11org_contextNtB5_4RoleNtNtCsbUtogaBoXXO_4core3fmt7Display3fmt
FNDA:16,_RNvXs_NtCs1ufPfM0GhR0_9api_bones11org_contextNtB4_4RoleINtNtCsbUtogaBoXXO_4core7convert4FromReE4from
FNDA:1,_RNvNtNtCs1ufPfM0GhR0_9api_bones11org_context5testss_10role_debug
FNDA:1,_RNvNtNtCs1ufPfM0GhR0_9api_bones11org_context5testss_12role_display
FNDA:1,_RNvNtNtCs1ufPfM0GhR0_9api_bones11org_context5testss_12role_hash_eq
FNDA:1,_RNvNtNtCs1ufPfM0GhR0_9api_bones11org_context5testss_13role_clone_eq
FNDA:1,_RNvNtNtCs1ufPfM0GhR0_9api_bones11org_context5testss_17attestation_debug
FNDA:1,_RNvNtNtCs1ufPfM0GhR0_9api_bones11org_context5testss_17org_context_debug
FNDA:1,_RNvNtNtCs1ufPfM0GhR0_9api_bones11org_context5testss_20attestation_clone_eq
FNDA:1,_RNvNtNtCs1ufPfM0GhR0_9api_bones11org_context5testss_20org_context_clone_eq
FNDA:1,_RNvNtNtCs1ufPfM0GhR0_9api_bones11org_context5testss_20role_serde_roundtrip
FNDA:1,_RNvNtNtCs1ufPfM0GhR0_9api_bones11org_context5testss_21attestation_kind_copy
FNDA:1,_RNvNtNtCs1ufPfM0GhR0_9api_bones11org_context5testss_22role_scope_specific_eq
FNDA:1,_RNvNtNtCs1ufPfM0GhR0_9api_bones11org_context5testss_24attestation_construction
FNDA:1,_RNvNtNtCs1ufPfM0GhR0_9api_bones11org_context5testss_24org_context_construction
FNDA:1,_RNvNtNtCs1ufPfM0GhR0_9api_bones11org_context5testss_24role_scope_self_clone_eq
FNDA:1,_RNvNtNtCs1ufPfM0GhR0_9api_bones11org_context5testss_25org_context_with_org_path
FNDA:1,_RNvNtNtCs1ufPfM0GhR0_9api_bones11org_context5testss_25role_binding_construction
FNDA:1,_RNvNtNtCs1ufPfM0GhR0_9api_bones11org_context5testss_26org_context_no_attestation
FNDA:1,_RNvNtNtCs1ufPfM0GhR0_9api_bones11org_context5testss_26role_construction_from_str
FNDA:1,_RNvNtNtCs1ufPfM0GhR0_9api_bones11org_context5testss_27attestation_serde_roundtrip
FNDA:1,_RNvNtNtCs1ufPfM0GhR0_9api_bones11org_context5testss_27org_context_serde_roundtrip
FNDA:1,_RNvNtNtCs1ufPfM0GhR0_9api_bones11org_context5testss_27role_scope_subtree_clone_eq
FNDA:1,_RNvNtNtCs1ufPfM0GhR0_9api_bones11org_context5testss_28org_context_with_attestation
FNDA:1,_RNvNtNtCs1ufPfM0GhR0_9api_bones11org_context5testss_28role_binding_serde_roundtrip
FNDA:1,_RNvNtNtCs1ufPfM0GhR0_9api_bones11org_context5testss_29attestation_kind_all_variants
FNDA:1,_RNvNtNtCs1ufPfM0GhR0_9api_bones11org_context5testss_29role_construction_from_string
FNDA:1,_RNvNtNtCs1ufPfM0GhR0_9api_bones11org_context5testss_30org_context_with_role_bindings
FNDA:1,_RNvNtNtCs1ufPfM0GhR0_9api_bones11org_context5testss_31role_scope_serde_roundtrip_self
FNDA:1,_RNvNtNtCs1ufPfM0GhR0_9api_bones11org_context5testss_34org_context_default_empty_org_path
FNDA:1,_RNvNtNtCs1ufPfM0GhR0_9api_bones11org_context5testss_34role_scope_serde_roundtrip_subtree
FNDA:1,_RNvNtNtCs1ufPfM0GhR0_9api_bones11org_context5testss_35role_scope_serde_roundtrip_specific
FNDA:1,_RNvNtNtCs1ufPfM0GhR0_9api_bones11org_context5testss_36attestation_kind_serde_roundtrip_jwt
FNDA:0,_RINvXs2_NtCs1ufPfM0GhR0_9api_bones11org_contextNtB6_4RoleNtNtCseAJKguVKcII_10serde_core3ser9Serialize9serializeINtNtCsdC8qrlXHNsA_10serde_json3ser18RawValueStrEmitterQINtNtCsipk7xt2ATo7_5alloc3vec3VechENtB1O_16CompactFormatterEEB8_
FNDA:3,_RINvXs2_NtCs1ufPfM0GhR0_9api_bones11org_contextNtB6_4RoleNtNtCseAJKguVKcII_10serde_core3ser9Serialize9serializeQINtNtCsdC8qrlXHNsA_10serde_json3ser10SerializerQINtNtCsipk7xt2ATo7_5alloc3vec3VechEEEB8_
FNDA:0,_RINvXs3_NtCs1ufPfM0GhR0_9api_bones11org_contextNtB6_4RoleNtNtCseAJKguVKcII_10serde_core2de11Deserialize11deserializeINtNvNtNtCsk3sbdBdDBYJ_5serde7private2de13missing_field24MissingFieldDeserializerNtNtCsdC8qrlXHNsA_10serde_json5error5ErrorEEB8_
FNDA:3,_RINvXs3_NtCs1ufPfM0GhR0_9api_bones11org_contextNtB6_4RoleNtNtCseAJKguVKcII_10serde_core2de11Deserialize11deserializeQINtNtCsdC8qrlXHNsA_10serde_json2de12DeserializerNtNtB1W_4read7StrReadEEB8_
FNDA:0,_RNvMNtCs6zS5XWhHsrg_9api_bones11org_contextNtB2_4Role6as_str
FNDA:0,_RNvMs4_NtCs6zS5XWhHsrg_9api_bones11org_contextNtB5_19OrganizationContext10with_roles
FNDA:0,_RNvMs4_NtCs6zS5XWhHsrg_9api_bones11org_contextNtB5_19OrganizationContext13with_org_path
FNDA:0,_RNvMs4_NtCs6zS5XWhHsrg_9api_bones11org_contextNtB5_19OrganizationContext16with_attestation
FNDA:0,_RNvMs4_NtCs6zS5XWhHsrg_9api_bones11org_contextNtB5_19OrganizationContext3new
FNDA:0,_RNvXs0_NtCs6zS5XWhHsrg_9api_bones11org_contextNtB5_4RoleINtNtCsbUtogaBoXXO_4core7convert4FromNtNtCsipk7xt2ATo7_5alloc6string6StringE4from
FNDA:0,_RNvXs1_NtCs6zS5XWhHsrg_9api_bones11org_contextNtB5_4RoleNtNtCsbUtogaBoXXO_4core3fmt7Display3fmt
FNDA:0,_RNvXs_NtCs6zS5XWhHsrg_9api_bones11org_contextNtB4_4RoleINtNtCsbUtogaBoXXO_4core7convert4FromReE4from
FNDA:0,_RINvXs2_NtCs6zS5XWhHsrg_9api_bones11org_contextNtB6_4RoleNtNtCseAJKguVKcII_10serde_core3ser9Serialize9serializepEB8_
FNDA:0,_RINvXs3_NtCs6zS5XWhHsrg_9api_bones11org_contextNtB6_4RoleNtNtCseAJKguVKcII_10serde_core2de11Deserialize11deserializepEB8_
FNF:41
FNH:41
DA:56,2
DA:57,2
DA:58,2
DA:62,16
DA:63,16
DA:64,16
DA:68,1
DA:69,1
DA:70,1
DA:74,1
DA:75,1
DA:76,1
DA:81,3
DA:82,3
DA:83,3
DA:85,3
DA:86,3
DA:91,3
DA:92,3
DA:93,3
DA:95,3
DA:96,3
DA:97,3
DA:249,9
DA:250,9
DA:251,9
DA:252,9
DA:253,9
DA:254,9
DA:255,9
DA:256,9
DA:257,9
DA:258,9
DA:279,3
DA:280,3
DA:281,3
DA:282,3
DA:304,2
DA:305,2
DA:306,2
DA:307,2
DA:331,2
DA:332,2
DA:333,2
DA:334,2
DA:349,1
DA:350,1
DA:351,1
DA:352,1
DA:353,1
DA:356,1
DA:357,1
DA:358,1
DA:359,1
DA:360,1
DA:363,1
DA:364,1
DA:365,1
DA:366,1
DA:367,1
DA:368,1
DA:372,1
DA:373,1
DA:374,1
DA:375,1
DA:376,1
DA:377,1
DA:381,1
DA:382,1
DA:383,1
DA:384,1
DA:385,1
DA:386,1
DA:390,1
DA:391,1
DA:392,1
DA:393,1
DA:394,1
DA:395,1
DA:396,1
DA:400,1
DA:401,1
DA:402,1
DA:403,1
DA:404,1
DA:405,1
DA:406,1
DA:407,1
DA:411,1
DA:412,1
DA:413,1
DA:414,1
DA:415,1
DA:416,1
DA:417,1
DA:418,1
DA:419,1
DA:423,1
DA:424,1
DA:425,1
DA:426,1
DA:429,1
DA:430,1
DA:431,1
DA:432,1
DA:435,1
DA:436,1
DA:437,1
DA:438,1
DA:439,1
DA:442,1
DA:443,1
DA:444,1
DA:446,1
DA:447,1
DA:448,1
DA:450,1
DA:451,1
DA:452,1
DA:454,1
DA:455,1
DA:458,1
DA:459,1
DA:460,1
DA:461,1
DA:464,1
DA:465,1
DA:466,1
DA:467,1
DA:468,1
DA:472,1
DA:473,1
DA:474,1
DA:475,1
DA:476,1
DA:479,1
DA:480,1
DA:481,1
DA:482,0
DA:484,1
DA:485,1
DA:486,0
DA:488,1
DA:489,1
DA:490,0
DA:492,1
DA:493,1
DA:494,0
DA:496,1
DA:500,1
DA:501,1
DA:502,1
DA:503,1
DA:504,1
DA:505,1
DA:506,1
DA:507,1
DA:510,1
DA:511,1
DA:512,1
DA:513,1
DA:514,1
DA:515,1
DA:516,1
DA:517,1
DA:520,1
DA:521,1
DA:522,1
DA:523,1
DA:524,1
DA:525,1
DA:526,1
DA:527,1
DA:531,1
DA:532,1
DA:533,1
DA:534,1
DA:536,1
DA:538,1
DA:539,1
DA:540,1
DA:541,1
DA:542,1
DA:543,1
DA:546,1
DA:547,1
DA:548,1
DA:549,1
DA:550,1
DA:551,1
DA:552,1
DA:553,1
DA:554,1
DA:555,1
DA:556,1
DA:557,1
DA:558,1
DA:561,1
DA:563,1
DA:564,1
DA:565,1
DA:566,1
DA:569,1
DA:570,1
DA:571,1
DA:572,1
DA:574,1
DA:576,1
DA:577,1
DA:580,1
DA:581,1
DA:582,1
DA:583,1
DA:585,1
DA:586,1
DA:588,1
DA:589,1
DA:590,1
DA:593,1
DA:594,1
DA:595,1
DA:596,1
DA:597,1
DA:598,1
DA:599,1
DA:600,1
DA:602,1
DA:603,1
DA:605,1
DA:606,1
DA:607,1
DA:610,1
DA:611,1
DA:612,1
DA:613,1
DA:615,1
DA:616,1
DA:617,1
DA:618,1
DA:619,1
DA:620,1
DA:622,1
DA:623,1
DA:626,1
DA:627,1
DA:628,1
DA:629,1
DA:631,1
DA:632,1
DA:633,1
DA:634,1
DA:637,1
DA:638,1
DA:639,1
DA:640,1
DA:642,1
DA:644,1
DA:645,1
DA:650,1
DA:651,1
DA:652,1
DA:653,1
DA:654,1
DA:655,1
DA:659,1
DA:660,1
DA:661,1
DA:662,1
DA:663,1
DA:664,1
DA:668,1
DA:669,1
DA:670,1
DA:671,1
DA:672,1
DA:673,1
DA:674,1
DA:675,1
DA:676,1
DA:680,1
DA:681,1
DA:682,1
DA:683,1
DA:685,1
DA:686,1
DA:687,1
DA:688,1
DA:689,1
DA:690,1
DA:691,1
DA:692,1
DA:693,1
DA:694,1
DA:696,1
DA:697,1
DA:698,1
DA:699,1
BRF:0
BRH:0
LF:297
LH:293
end_of_record
SF:/Users/gsalingu/git/api-bones/.claude/worktrees/feat+211-nested-org-adr/src/org_id.rs
FN:435,_RNCNvNtNtCs1ufPfM0GhR0_9api_bones6org_id5testss_20axum_extract_present0B7_
FN:579,_RNCNvNtNtCs1ufPfM0GhR0_9api_bones6org_id5testss_29org_path_axum_extractor_valid0B7_
FN:451,_RNCNvNtNtCs1ufPfM0GhR0_9api_bones6org_id5testss_32axum_extract_missing_returns_4000B7_
FN:482,_RNCNvNtNtCs1ufPfM0GhR0_9api_bones6org_id5testss_33axum_extract_non_utf8_returns_4000B7_
FN:610,_RNCNvNtNtCs1ufPfM0GhR0_9api_bones6org_id5testss_36org_path_axum_extractor_invalid_uuid0B7_
FN:465,_RNCNvNtNtCs1ufPfM0GhR0_9api_bones6org_id5testss_37axum_extract_invalid_uuid_returns_4000B7_
FN:596,_RNCNvNtNtCs1ufPfM0GhR0_9api_bones6org_id5testss_38org_path_axum_extractor_missing_header0B7_
FN:79,_RNvMs0_NtCs1ufPfM0GhR0_9api_bones6org_idNtB5_5OrgId3new
FN:106,_RNvMs0_NtCs1ufPfM0GhR0_9api_bones6org_idNtB5_5OrgId5inner
FN:92,_RNvMs0_NtCs1ufPfM0GhR0_9api_bones6org_idNtB5_5OrgId8generate
FN:256,_RNvMsb_NtCs1ufPfM0GhR0_9api_bones6org_idNtB5_7OrgPath10into_inner
FN:244,_RNvMsb_NtCs1ufPfM0GhR0_9api_bones6org_idNtB5_7OrgPath3new
FN:250,_RNvMsb_NtCs1ufPfM0GhR0_9api_bones6org_idNtB5_7OrgPath8as_slice
FN:34,_RNvXNtCs1ufPfM0GhR0_9api_bones6org_idNtB2_10OrgIdErrorNtNtCsbUtogaBoXXO_4core3fmt7Display3fmt
FN:119,_RNvXs1_NtCs1ufPfM0GhR0_9api_bones6org_idNtB5_5OrgIdNtNtB7_9header_id8HeaderId6as_str
FN:138,_RNvXs2_NtCs1ufPfM0GhR0_9api_bones6org_idNtB5_5OrgIdNtNtCsbUtogaBoXXO_4core7default7Default7default
FN:144,_RNvXs3_NtCs1ufPfM0GhR0_9api_bones6org_idNtB5_5OrgIdNtNtCsbUtogaBoXXO_4core3fmt7Display3fmt
FN:150,_RNvXs4_NtCs1ufPfM0GhR0_9api_bones6org_idNtB5_5OrgIdINtNtCsbUtogaBoXXO_4core7convert4FromNtCs65TfvGsZgzO_4uuid4UuidE4from
FN:164,_RNvXs6_NtCs1ufPfM0GhR0_9api_bones6org_idNtB5_5OrgIdNtNtNtCsbUtogaBoXXO_4core3str6traits7FromStr8from_str
FN:174,_RNvXs7_NtCs1ufPfM0GhR0_9api_bones6org_idNtB5_5OrgIdINtNtCsbUtogaBoXXO_4core7convert7TryFromReE8try_from
FN:182,_RNvXs8_NtCs1ufPfM0GhR0_9api_bones6org_idNtB5_5OrgIdINtNtCsbUtogaBoXXO_4core7convert7TryFromNtNtCsipk7xt2ATo7_5alloc6string6StringE8try_from
FN:43,_RNvXs_NtCs1ufPfM0GhR0_9api_bones6org_idNtB4_10OrgIdErrorNtNtCsbUtogaBoXXO_4core5error5Error6source
FN:264,_RNvXsc_NtCs1ufPfM0GhR0_9api_bones6org_idNtB5_7OrgPathNtNtB7_9header_id8HeaderId6as_str
FN:292,_RNvXsd_NtCs1ufPfM0GhR0_9api_bones6org_idNtB5_7OrgPathNtNtNtCsbUtogaBoXXO_4core3str6traits7FromStr8from_str
FN:156,_RNvXs5_NtCs1ufPfM0GhR0_9api_bones6org_idNtCs65TfvGsZgzO_4uuid4UuidINtNtCsbUtogaBoXXO_4core7convert4FromNtB5_5OrgIdE4from
FN:193,_RINvXs9_NtCs1ufPfM0GhR0_9api_bones6org_idNtB6_5OrgIdNtNtCseAJKguVKcII_10serde_core2de11Deserialize11deserializeINtNvNtNtCsk3sbdBdDBYJ_5serde7private2de13missing_field24MissingFieldDeserializerNtNtCsdC8qrlXHNsA_10serde_json5error5ErrorEEB8_
FN:193,_RINvXs9_NtCs1ufPfM0GhR0_9api_bones6org_idNtB6_5OrgIdNtNtCseAJKguVKcII_10serde_core2de11Deserialize11deserializeNtNtCsdC8qrlXHNsA_10serde_json5value5ValueEB8_
FN:193,_RINvXs9_NtCs1ufPfM0GhR0_9api_bones6org_idNtB6_5OrgIdNtNtCseAJKguVKcII_10serde_core2de11Deserialize11deserializeQINtNtCsdC8qrlXHNsA_10serde_json2de12DeserializerNtNtB1R_4read7StrReadEEB8_
FN:214,_RNCNCNvXsa_NtCs1ufPfM0GhR0_9api_bones6org_idNtB9_5OrgIdINtNtCsgRxEIuGfDXj_9axum_core7extract16FromRequestPartsuE18from_request_parts00Bb_
FN:222,_RNCNCNvXsa_NtCs1ufPfM0GhR0_9api_bones6org_idNtB9_5OrgIdINtNtCsgRxEIuGfDXj_9axum_core7extract16FromRequestPartsuE18from_request_parts0s0_0Bb_
FN:218,_RNCNCNvXsa_NtCs1ufPfM0GhR0_9api_bones6org_idNtB9_5OrgIdINtNtCsgRxEIuGfDXj_9axum_core7extract16FromRequestPartsuE18from_request_parts0s_0Bb_
FN:313,_RNCNCNvXse_NtCs1ufPfM0GhR0_9api_bones6org_idNtB9_7OrgPathINtNtCsgRxEIuGfDXj_9axum_core7extract16FromRequestPartsuE18from_request_parts00Bb_
FN:321,_RNCNCNvXse_NtCs1ufPfM0GhR0_9api_bones6org_idNtB9_7OrgPathINtNtCsgRxEIuGfDXj_9axum_core7extract16FromRequestPartsuE18from_request_parts0s0_0Bb_
FN:317,_RNCNCNvXse_NtCs1ufPfM0GhR0_9api_bones6org_idNtB9_7OrgPathINtNtCsgRxEIuGfDXj_9axum_core7extract16FromRequestPartsuE18from_request_parts0s_0Bb_
FN:210,_RNCNvXsa_NtCs1ufPfM0GhR0_9api_bones6org_idNtB7_5OrgIdINtNtCsgRxEIuGfDXj_9axum_core7extract16FromRequestPartsuE18from_request_parts0B9_
FN:297,_RNCNvXsd_NtCs1ufPfM0GhR0_9api_bones6org_idNtB7_7OrgPathNtNtNtCsbUtogaBoXXO_4core3str6traits7FromStr8from_str0B9_
FN:309,_RNCNvXse_NtCs1ufPfM0GhR0_9api_bones6org_idNtB7_7OrgPathINtNtCsgRxEIuGfDXj_9axum_core7extract16FromRequestPartsuE18from_request_parts0B9_
FN:207,_RNvXsa_NtCs1ufPfM0GhR0_9api_bones6org_idNtB5_5OrgIdINtNtCsgRxEIuGfDXj_9axum_core7extract16FromRequestPartsuE18from_request_partsB7_
FN:306,_RNvXse_NtCs1ufPfM0GhR0_9api_bones6org_idNtB5_7OrgPathINtNtCsgRxEIuGfDXj_9axum_core7extract16FromRequestPartsuE18from_request_partsB7_
FN:380,_RNvNtNtCs1ufPfM0GhR0_9api_bones6org_id5testss_13error_display
FN:354,_RNvNtNtCs1ufPfM0GhR0_9api_bones6org_id5testss_14from_str_valid
FN:342,_RNvNtNtCs1ufPfM0GhR0_9api_bones6org_id5testss_14generate_is_v4
FN:335,_RNvNtNtCs1ufPfM0GhR0_9api_bones6org_id5testss_14new_wraps_uuid
FN:410,_RNvNtNtCs1ufPfM0GhR0_9api_bones6org_id5testss_15serde_roundtrip
FN:361,_RNvNtNtCs1ufPfM0GhR0_9api_bones6org_id5testss_16from_str_invalid
FN:426,_RNvNtNtCs1ufPfM0GhR0_9api_bones6org_id5testss_17header_name_const
FN:395,_RNvNtNtCs1ufPfM0GhR0_9api_bones6org_id5testss_18try_from_str_valid
FN:510,_RNvNtNtCs1ufPfM0GhR0_9api_bones6org_id5testss_19org_path_into_inner
FN:435,_RNvNtNtCs1ufPfM0GhR0_9api_bones6org_id5testss_20axum_extract_present
FN:374,_RNvNtNtCs1ufPfM0GhR0_9api_bones6org_id5testss_20default_generates_v4
FN:388,_RNvNtNtCs1ufPfM0GhR0_9api_bones6org_id5testss_20error_source_is_some
FN:519,_RNvNtNtCs1ufPfM0GhR0_9api_bones6org_id5testss_20org_path_header_name
FN:420,_RNvNtNtCs1ufPfM0GhR0_9api_bones6org_id5testss_21serde_invalid_rejects
FN:402,_RNvNtNtCs1ufPfM0GhR0_9api_bones6org_id5testss_21try_from_string_valid
FN:551,_RNvNtNtCs1ufPfM0GhR0_9api_bones6org_id5testss_23org_path_from_str_empty
FN:366,_RNvNtNtCs1ufPfM0GhR0_9api_bones6org_id5testss_24from_into_uuid_roundtrip
FN:557,_RNvNtNtCs1ufPfM0GhR0_9api_bones6org_id5testss_24org_path_from_str_single
FN:572,_RNvNtNtCs1ufPfM0GhR0_9api_bones6org_id5testss_25org_path_from_str_invalid
FN:500,_RNvNtNtCs1ufPfM0GhR0_9api_bones6org_id5testss_25org_path_new_and_as_slice
FN:348,_RNvNtNtCs1ufPfM0GhR0_9api_bones6org_id5testss_26display_is_hyphenated_uuid
FN:565,_RNvNtNtCs1ufPfM0GhR0_9api_bones6org_id5testss_26org_path_from_str_multiple
FN:525,_RNvNtNtCs1ufPfM0GhR0_9api_bones6org_id5testss_28org_path_header_as_str_empty
FN:579,_RNvNtNtCs1ufPfM0GhR0_9api_bones6org_id5testss_29org_path_axum_extractor_valid
FN:531,_RNvNtNtCs1ufPfM0GhR0_9api_bones6org_id5testss_29org_path_header_as_str_single
FN:541,_RNvNtNtCs1ufPfM0GhR0_9api_bones6org_id5testss_31org_path_header_as_str_multiple
FN:451,_RNvNtNtCs1ufPfM0GhR0_9api_bones6org_id5testss_32axum_extract_missing_returns_400
FN:482,_RNvNtNtCs1ufPfM0GhR0_9api_bones6org_id5testss_33axum_extract_non_utf8_returns_400
FN:610,_RNvNtNtCs1ufPfM0GhR0_9api_bones6org_id5testss_36org_path_axum_extractor_invalid_uuid
FN:465,_RNvNtNtCs1ufPfM0GhR0_9api_bones6org_id5testss_37axum_extract_invalid_uuid_returns_400
FN:596,_RNvNtNtCs1ufPfM0GhR0_9api_bones6org_id5testss_38org_path_axum_extractor_missing_header
FN:193,_RINvXs9_NtCs6zS5XWhHsrg_9api_bones6org_idNtB6_5OrgIdNtNtCseAJKguVKcII_10serde_core2de11Deserialize11deserializepEB8_
FN:214,_RNCNCNvXININtCs6zS5XWhHsrg_9api_bones6org_idsa_0pENtB9_5OrgIdINtNtCsgRxEIuGfDXj_9axum_core7extract16FromRequestPartspE18from_request_parts00Bb_
FN:222,_RNCNCNvXININtCs6zS5XWhHsrg_9api_bones6org_idsa_0pENtB9_5OrgIdINtNtCsgRxEIuGfDXj_9axum_core7extract16FromRequestPartspE18from_request_parts0s0_0Bb_
FN:218,_RNCNCNvXININtCs6zS5XWhHsrg_9api_bones6org_idsa_0pENtB9_5OrgIdINtNtCsgRxEIuGfDXj_9axum_core7extract16FromRequestPartspE18from_request_parts0s_0Bb_
FN:313,_RNCNCNvXININtCs6zS5XWhHsrg_9api_bones6org_idse_0pENtB9_7OrgPathINtNtCsgRxEIuGfDXj_9axum_core7extract16FromRequestPartspE18from_request_parts00Bb_
FN:321,_RNCNCNvXININtCs6zS5XWhHsrg_9api_bones6org_idse_0pENtB9_7OrgPathINtNtCsgRxEIuGfDXj_9axum_core7extract16FromRequestPartspE18from_request_parts0s0_0Bb_
FN:317,_RNCNCNvXININtCs6zS5XWhHsrg_9api_bones6org_idse_0pENtB9_7OrgPathINtNtCsgRxEIuGfDXj_9axum_core7extract16FromRequestPartspE18from_request_parts0s_0Bb_
FN:210,_RNCNvXININtCs6zS5XWhHsrg_9api_bones6org_idsa_0pENtB7_5OrgIdINtNtCsgRxEIuGfDXj_9axum_core7extract16FromRequestPartspE18from_request_parts0B9_
FN:309,_RNCNvXININtCs6zS5XWhHsrg_9api_bones6org_idse_0pENtB7_7OrgPathINtNtCsgRxEIuGfDXj_9axum_core7extract16FromRequestPartspE18from_request_parts0B9_
FN:207,_RNvXININtCs6zS5XWhHsrg_9api_bones6org_idsa_0pENtB5_5OrgIdINtNtCsgRxEIuGfDXj_9axum_core7extract16FromRequestPartspE18from_request_partsB7_
FN:306,_RNvXININtCs6zS5XWhHsrg_9api_bones6org_idse_0pENtB5_7OrgPathINtNtCsgRxEIuGfDXj_9axum_core7extract16FromRequestPartspE18from_request_partsB7_
FN:79,_RNvMs0_NtCs6zS5XWhHsrg_9api_bones6org_idNtB5_5OrgId3new
FN:106,_RNvMs0_NtCs6zS5XWhHsrg_9api_bones6org_idNtB5_5OrgId5inner
FN:92,_RNvMs0_NtCs6zS5XWhHsrg_9api_bones6org_idNtB5_5OrgId8generate
FN:256,_RNvMsb_NtCs6zS5XWhHsrg_9api_bones6org_idNtB5_7OrgPath10into_inner
FN:244,_RNvMsb_NtCs6zS5XWhHsrg_9api_bones6org_idNtB5_7OrgPath3new
FN:250,_RNvMsb_NtCs6zS5XWhHsrg_9api_bones6org_idNtB5_7OrgPath8as_slice
FN:34,_RNvXNtCs6zS5XWhHsrg_9api_bones6org_idNtB2_10OrgIdErrorNtNtCsbUtogaBoXXO_4core3fmt7Display3fmt
FN:119,_RNvXs1_NtCs6zS5XWhHsrg_9api_bones6org_idNtB5_5OrgIdNtNtB7_9header_id8HeaderId6as_str
FN:138,_RNvXs2_NtCs6zS5XWhHsrg_9api_bones6org_idNtB5_5OrgIdNtNtCsbUtogaBoXXO_4core7default7Default7default
FN:144,_RNvXs3_NtCs6zS5XWhHsrg_9api_bones6org_idNtB5_5OrgIdNtNtCsbUtogaBoXXO_4core3fmt7Display3fmt
FN:150,_RNvXs4_NtCs6zS5XWhHsrg_9api_bones6org_idNtB5_5OrgIdINtNtCsbUtogaBoXXO_4core7convert4FromNtCs65TfvGsZgzO_4uuid4UuidE4from
FN:164,_RNvXs6_NtCs6zS5XWhHsrg_9api_bones6org_idNtB5_5OrgIdNtNtNtCsbUtogaBoXXO_4core3str6traits7FromStr8from_str
FN:174,_RNvXs7_NtCs6zS5XWhHsrg_9api_bones6org_idNtB5_5OrgIdINtNtCsbUtogaBoXXO_4core7convert7TryFromReE8try_from
FN:182,_RNvXs8_NtCs6zS5XWhHsrg_9api_bones6org_idNtB5_5OrgIdINtNtCsbUtogaBoXXO_4core7convert7TryFromNtNtCsipk7xt2ATo7_5alloc6string6StringE8try_from
FN:43,_RNvXs_NtCs6zS5XWhHsrg_9api_bones6org_idNtB4_10OrgIdErrorNtNtCsbUtogaBoXXO_4core5error5Error6source
FN:264,_RNvXsc_NtCs6zS5XWhHsrg_9api_bones6org_idNtB5_7OrgPathNtNtB7_9header_id8HeaderId6as_str
FN:292,_RNvXsd_NtCs6zS5XWhHsrg_9api_bones6org_idNtB5_7OrgPathNtNtNtCsbUtogaBoXXO_4core3str6traits7FromStr8from_str
FN:297,_RNCNvXsd_NtCs6zS5XWhHsrg_9api_bones6org_idNtB7_7OrgPathNtNtNtCsbUtogaBoXXO_4core3str6traits7FromStr8from_str0B9_
FN:156,_RNvXs5_NtCs6zS5XWhHsrg_9api_bones6org_idNtCs65TfvGsZgzO_4uuid4UuidINtNtCsbUtogaBoXXO_4core7convert4FromNtB5_5OrgIdE4from
FN:193,_RINvXs9_NtCs6zS5XWhHsrg_9api_bones6org_idNtB6_5OrgIdNtNtCseAJKguVKcII_10serde_core2de11Deserialize11deserializeNtNtCsdC8qrlXHNsA_10serde_json5value5ValueECs52cul6wXlX0_10fake_smoke
FNDA:1,_RNCNvNtNtCs1ufPfM0GhR0_9api_bones6org_id5testss_20axum_extract_present0B7_
FNDA:1,_RNCNvNtNtCs1ufPfM0GhR0_9api_bones6org_id5testss_29org_path_axum_extractor_valid0B7_
FNDA:1,_RNCNvNtNtCs1ufPfM0GhR0_9api_bones6org_id5testss_32axum_extract_missing_returns_4000B7_
FNDA:1,_RNCNvNtNtCs1ufPfM0GhR0_9api_bones6org_id5testss_33axum_extract_non_utf8_returns_4000B7_
FNDA:1,_RNCNvNtNtCs1ufPfM0GhR0_9api_bones6org_id5testss_36org_path_axum_extractor_invalid_uuid0B7_
FNDA:1,_RNCNvNtNtCs1ufPfM0GhR0_9api_bones6org_id5testss_37axum_extract_invalid_uuid_returns_4000B7_
FNDA:1,_RNCNvNtNtCs1ufPfM0GhR0_9api_bones6org_id5testss_38org_path_axum_extractor_missing_header0B7_
FNDA:8,_RNvMs0_NtCs1ufPfM0GhR0_9api_bones6org_idNtB5_5OrgId3new
FNDA:3,_RNvMs0_NtCs1ufPfM0GhR0_9api_bones6org_idNtB5_5OrgId5inner
FNDA:16,_RNvMs0_NtCs1ufPfM0GhR0_9api_bones6org_idNtB5_5OrgId8generate
FNDA:1,_RNvMsb_NtCs1ufPfM0GhR0_9api_bones6org_idNtB5_7OrgPath10into_inner
FNDA:5,_RNvMsb_NtCs1ufPfM0GhR0_9api_bones6org_idNtB5_7OrgPath3new
FNDA:9,_RNvMsb_NtCs1ufPfM0GhR0_9api_bones6org_idNtB5_7OrgPath8as_slice
FNDA:4,_RNvXNtCs1ufPfM0GhR0_9api_bones6org_idNtB2_10OrgIdErrorNtNtCsbUtogaBoXXO_4core3fmt7Display3fmt
FNDA:1,_RNvXs1_NtCs1ufPfM0GhR0_9api_bones6org_idNtB5_5OrgIdNtNtB7_9header_id8HeaderId6as_str
FNDA:1,_RNvXs2_NtCs1ufPfM0GhR0_9api_bones6org_idNtB5_5OrgIdNtNtCsbUtogaBoXXO_4core7default7Default7default
FNDA:10,_RNvXs3_NtCs1ufPfM0GhR0_9api_bones6org_idNtB5_5OrgIdNtNtCsbUtogaBoXXO_4core3fmt7Display3fmt
FNDA:1,_RNvXs4_NtCs1ufPfM0GhR0_9api_bones6org_idNtB5_5OrgIdINtNtCsbUtogaBoXXO_4core7convert4FromNtCs65TfvGsZgzO_4uuid4UuidE4from
FNDA:19,_RNvXs6_NtCs1ufPfM0GhR0_9api_bones6org_idNtB5_5OrgIdNtNtNtCsbUtogaBoXXO_4core3str6traits7FromStr8from_str
FNDA:1,_RNvXs7_NtCs1ufPfM0GhR0_9api_bones6org_idNtB5_5OrgIdINtNtCsbUtogaBoXXO_4core7convert7TryFromReE8try_from
FNDA:1,_RNvXs8_NtCs1ufPfM0GhR0_9api_bones6org_idNtB5_5OrgIdINtNtCsbUtogaBoXXO_4core7convert7TryFromNtNtCsipk7xt2ATo7_5alloc6string6StringE8try_from
FNDA:1,_RNvXs_NtCs1ufPfM0GhR0_9api_bones6org_idNtB4_10OrgIdErrorNtNtCsbUtogaBoXXO_4core5error5Error6source
FNDA:3,_RNvXsc_NtCs1ufPfM0GhR0_9api_bones6org_idNtB5_7OrgPathNtNtB7_9header_id8HeaderId6as_str
FNDA:6,_RNvXsd_NtCs1ufPfM0GhR0_9api_bones6org_idNtB5_7OrgPathNtNtNtCsbUtogaBoXXO_4core3str6traits7FromStr8from_str
FNDA:1,_RNvXs5_NtCs1ufPfM0GhR0_9api_bones6org_idNtCs65TfvGsZgzO_4uuid4UuidINtNtCsbUtogaBoXXO_4core7convert4FromNtB5_5OrgIdE4from
FNDA:0,_RINvXs9_NtCs1ufPfM0GhR0_9api_bones6org_idNtB6_5OrgIdNtNtCseAJKguVKcII_10serde_core2de11Deserialize11deserializeINtNvNtNtCsk3sbdBdDBYJ_5serde7private2de13missing_field24MissingFieldDeserializerNtNtCsdC8qrlXHNsA_10serde_json5error5ErrorEEB8_
FNDA:0,_RINvXs9_NtCs1ufPfM0GhR0_9api_bones6org_idNtB6_5OrgIdNtNtCseAJKguVKcII_10serde_core2de11Deserialize11deserializeNtNtCsdC8qrlXHNsA_10serde_json5value5ValueEB8_
FNDA:5,_RINvXs9_NtCs1ufPfM0GhR0_9api_bones6org_idNtB6_5OrgIdNtNtCseAJKguVKcII_10serde_core2de11Deserialize11deserializeQINtNtCsdC8qrlXHNsA_10serde_json2de12DeserializerNtNtB1R_4read7StrReadEEB8_
FNDA:1,_RNCNCNvXsa_NtCs1ufPfM0GhR0_9api_bones6org_idNtB9_5OrgIdINtNtCsgRxEIuGfDXj_9axum_core7extract16FromRequestPartsuE18from_request_parts00Bb_
FNDA:1,_RNCNCNvXsa_NtCs1ufPfM0GhR0_9api_bones6org_idNtB9_5OrgIdINtNtCsgRxEIuGfDXj_9axum_core7extract16FromRequestPartsuE18from_request_parts0s0_0Bb_
FNDA:1,_RNCNCNvXsa_NtCs1ufPfM0GhR0_9api_bones6org_idNtB9_5OrgIdINtNtCsgRxEIuGfDXj_9axum_core7extract16FromRequestPartsuE18from_request_parts0s_0Bb_
FNDA:1,_RNCNCNvXse_NtCs1ufPfM0GhR0_9api_bones6org_idNtB9_7OrgPathINtNtCsgRxEIuGfDXj_9axum_core7extract16FromRequestPartsuE18from_request_parts00Bb_
FNDA:1,_RNCNCNvXse_NtCs1ufPfM0GhR0_9api_bones6org_idNtB9_7OrgPathINtNtCsgRxEIuGfDXj_9axum_core7extract16FromRequestPartsuE18from_request_parts0s0_0Bb_
FNDA:0,_RNCNCNvXse_NtCs1ufPfM0GhR0_9api_bones6org_idNtB9_7OrgPathINtNtCsgRxEIuGfDXj_9axum_core7extract16FromRequestPartsuE18from_request_parts0s_0Bb_
FNDA:4,_RNCNvXsa_NtCs1ufPfM0GhR0_9api_bones6org_idNtB7_5OrgIdINtNtCsgRxEIuGfDXj_9axum_core7extract16FromRequestPartsuE18from_request_parts0B9_
FNDA:6,_RNCNvXsd_NtCs1ufPfM0GhR0_9api_bones6org_idNtB7_7OrgPathNtNtNtCsbUtogaBoXXO_4core3str6traits7FromStr8from_str0B9_
FNDA:3,_RNCNvXse_NtCs1ufPfM0GhR0_9api_bones6org_idNtB7_7OrgPathINtNtCsgRxEIuGfDXj_9axum_core7extract16FromRequestPartsuE18from_request_parts0B9_
FNDA:4,_RNvXsa_NtCs1ufPfM0GhR0_9api_bones6org_idNtB5_5OrgIdINtNtCsgRxEIuGfDXj_9axum_core7extract16FromRequestPartsuE18from_request_partsB7_
FNDA:3,_RNvXse_NtCs1ufPfM0GhR0_9api_bones6org_idNtB5_7OrgPathINtNtCsgRxEIuGfDXj_9axum_core7extract16FromRequestPartsuE18from_request_partsB7_
FNDA:1,_RNvNtNtCs1ufPfM0GhR0_9api_bones6org_id5testss_13error_display
FNDA:1,_RNvNtNtCs1ufPfM0GhR0_9api_bones6org_id5testss_14from_str_valid
FNDA:1,_RNvNtNtCs1ufPfM0GhR0_9api_bones6org_id5testss_14generate_is_v4
FNDA:1,_RNvNtNtCs1ufPfM0GhR0_9api_bones6org_id5testss_14new_wraps_uuid
FNDA:1,_RNvNtNtCs1ufPfM0GhR0_9api_bones6org_id5testss_15serde_roundtrip
FNDA:1,_RNvNtNtCs1ufPfM0GhR0_9api_bones6org_id5testss_16from_str_invalid
FNDA:1,_RNvNtNtCs1ufPfM0GhR0_9api_bones6org_id5testss_17header_name_const
FNDA:1,_RNvNtNtCs1ufPfM0GhR0_9api_bones6org_id5testss_18try_from_str_valid
FNDA:1,_RNvNtNtCs1ufPfM0GhR0_9api_bones6org_id5testss_19org_path_into_inner
FNDA:1,_RNvNtNtCs1ufPfM0GhR0_9api_bones6org_id5testss_20axum_extract_present
FNDA:1,_RNvNtNtCs1ufPfM0GhR0_9api_bones6org_id5testss_20default_generates_v4
FNDA:1,_RNvNtNtCs1ufPfM0GhR0_9api_bones6org_id5testss_20error_source_is_some
FNDA:1,_RNvNtNtCs1ufPfM0GhR0_9api_bones6org_id5testss_20org_path_header_name
FNDA:1,_RNvNtNtCs1ufPfM0GhR0_9api_bones6org_id5testss_21serde_invalid_rejects
FNDA:1,_RNvNtNtCs1ufPfM0GhR0_9api_bones6org_id5testss_21try_from_string_valid
FNDA:1,_RNvNtNtCs1ufPfM0GhR0_9api_bones6org_id5testss_23org_path_from_str_empty
FNDA:1,_RNvNtNtCs1ufPfM0GhR0_9api_bones6org_id5testss_24from_into_uuid_roundtrip
FNDA:1,_RNvNtNtCs1ufPfM0GhR0_9api_bones6org_id5testss_24org_path_from_str_single
FNDA:1,_RNvNtNtCs1ufPfM0GhR0_9api_bones6org_id5testss_25org_path_from_str_invalid
FNDA:1,_RNvNtNtCs1ufPfM0GhR0_9api_bones6org_id5testss_25org_path_new_and_as_slice
FNDA:1,_RNvNtNtCs1ufPfM0GhR0_9api_bones6org_id5testss_26display_is_hyphenated_uuid
FNDA:1,_RNvNtNtCs1ufPfM0GhR0_9api_bones6org_id5testss_26org_path_from_str_multiple
FNDA:1,_RNvNtNtCs1ufPfM0GhR0_9api_bones6org_id5testss_28org_path_header_as_str_empty
FNDA:1,_RNvNtNtCs1ufPfM0GhR0_9api_bones6org_id5testss_29org_path_axum_extractor_valid
FNDA:1,_RNvNtNtCs1ufPfM0GhR0_9api_bones6org_id5testss_29org_path_header_as_str_single
FNDA:1,_RNvNtNtCs1ufPfM0GhR0_9api_bones6org_id5testss_31org_path_header_as_str_multiple
FNDA:1,_RNvNtNtCs1ufPfM0GhR0_9api_bones6org_id5testss_32axum_extract_missing_returns_400
FNDA:1,_RNvNtNtCs1ufPfM0GhR0_9api_bones6org_id5testss_33axum_extract_non_utf8_returns_400
FNDA:1,_RNvNtNtCs1ufPfM0GhR0_9api_bones6org_id5testss_36org_path_axum_extractor_invalid_uuid
FNDA:1,_RNvNtNtCs1ufPfM0GhR0_9api_bones6org_id5testss_37axum_extract_invalid_uuid_returns_400
FNDA:1,_RNvNtNtCs1ufPfM0GhR0_9api_bones6org_id5testss_38org_path_axum_extractor_missing_header
FNDA:0,_RINvXs9_NtCs6zS5XWhHsrg_9api_bones6org_idNtB6_5OrgIdNtNtCseAJKguVKcII_10serde_core2de11Deserialize11deserializepEB8_
FNDA:0,_RNCNCNvXININtCs6zS5XWhHsrg_9api_bones6org_idsa_0pENtB9_5OrgIdINtNtCsgRxEIuGfDXj_9axum_core7extract16FromRequestPartspE18from_request_parts00Bb_
FNDA:0,_RNCNCNvXININtCs6zS5XWhHsrg_9api_bones6org_idsa_0pENtB9_5OrgIdINtNtCsgRxEIuGfDXj_9axum_core7extract16FromRequestPartspE18from_request_parts0s0_0Bb_
FNDA:0,_RNCNCNvXININtCs6zS5XWhHsrg_9api_bones6org_idsa_0pENtB9_5OrgIdINtNtCsgRxEIuGfDXj_9axum_core7extract16FromRequestPartspE18from_request_parts0s_0Bb_
FNDA:0,_RNCNCNvXININtCs6zS5XWhHsrg_9api_bones6org_idse_0pENtB9_7OrgPathINtNtCsgRxEIuGfDXj_9axum_core7extract16FromRequestPartspE18from_request_parts00Bb_
FNDA:0,_RNCNCNvXININtCs6zS5XWhHsrg_9api_bones6org_idse_0pENtB9_7OrgPathINtNtCsgRxEIuGfDXj_9axum_core7extract16FromRequestPartspE18from_request_parts0s0_0Bb_
FNDA:0,_RNCNCNvXININtCs6zS5XWhHsrg_9api_bones6org_idse_0pENtB9_7OrgPathINtNtCsgRxEIuGfDXj_9axum_core7extract16FromRequestPartspE18from_request_parts0s_0Bb_
FNDA:0,_RNCNvXININtCs6zS5XWhHsrg_9api_bones6org_idsa_0pENtB7_5OrgIdINtNtCsgRxEIuGfDXj_9axum_core7extract16FromRequestPartspE18from_request_parts0B9_
FNDA:0,_RNCNvXININtCs6zS5XWhHsrg_9api_bones6org_idse_0pENtB7_7OrgPathINtNtCsgRxEIuGfDXj_9axum_core7extract16FromRequestPartspE18from_request_parts0B9_
FNDA:0,_RNvXININtCs6zS5XWhHsrg_9api_bones6org_idsa_0pENtB5_5OrgIdINtNtCsgRxEIuGfDXj_9axum_core7extract16FromRequestPartspE18from_request_partsB7_
FNDA:0,_RNvXININtCs6zS5XWhHsrg_9api_bones6org_idse_0pENtB5_7OrgPathINtNtCsgRxEIuGfDXj_9axum_core7extract16FromRequestPartspE18from_request_partsB7_
FNDA:0,_RNvMs0_NtCs6zS5XWhHsrg_9api_bones6org_idNtB5_5OrgId3new
FNDA:0,_RNvMs0_NtCs6zS5XWhHsrg_9api_bones6org_idNtB5_5OrgId5inner
FNDA:0,_RNvMs0_NtCs6zS5XWhHsrg_9api_bones6org_idNtB5_5OrgId8generate
FNDA:0,_RNvMsb_NtCs6zS5XWhHsrg_9api_bones6org_idNtB5_7OrgPath10into_inner
FNDA:0,_RNvMsb_NtCs6zS5XWhHsrg_9api_bones6org_idNtB5_7OrgPath3new
FNDA:0,_RNvMsb_NtCs6zS5XWhHsrg_9api_bones6org_idNtB5_7OrgPath8as_slice
FNDA:0,_RNvXNtCs6zS5XWhHsrg_9api_bones6org_idNtB2_10OrgIdErrorNtNtCsbUtogaBoXXO_4core3fmt7Display3fmt
FNDA:0,_RNvXs1_NtCs6zS5XWhHsrg_9api_bones6org_idNtB5_5OrgIdNtNtB7_9header_id8HeaderId6as_str
FNDA:0,_RNvXs2_NtCs6zS5XWhHsrg_9api_bones6org_idNtB5_5OrgIdNtNtCsbUtogaBoXXO_4core7default7Default7default
FNDA:0,_RNvXs3_NtCs6zS5XWhHsrg_9api_bones6org_idNtB5_5OrgIdNtNtCsbUtogaBoXXO_4core3fmt7Display3fmt
FNDA:0,_RNvXs4_NtCs6zS5XWhHsrg_9api_bones6org_idNtB5_5OrgIdINtNtCsbUtogaBoXXO_4core7convert4FromNtCs65TfvGsZgzO_4uuid4UuidE4from
FNDA:0,_RNvXs6_NtCs6zS5XWhHsrg_9api_bones6org_idNtB5_5OrgIdNtNtNtCsbUtogaBoXXO_4core3str6traits7FromStr8from_str
FNDA:0,_RNvXs7_NtCs6zS5XWhHsrg_9api_bones6org_idNtB5_5OrgIdINtNtCsbUtogaBoXXO_4core7convert7TryFromReE8try_from
FNDA:0,_RNvXs8_NtCs6zS5XWhHsrg_9api_bones6org_idNtB5_5OrgIdINtNtCsbUtogaBoXXO_4core7convert7TryFromNtNtCsipk7xt2ATo7_5alloc6string6StringE8try_from
FNDA:0,_RNvXs_NtCs6zS5XWhHsrg_9api_bones6org_idNtB4_10OrgIdErrorNtNtCsbUtogaBoXXO_4core5error5Error6source
FNDA:0,_RNvXsc_NtCs6zS5XWhHsrg_9api_bones6org_idNtB5_7OrgPathNtNtB7_9header_id8HeaderId6as_str
FNDA:0,_RNvXsd_NtCs6zS5XWhHsrg_9api_bones6org_idNtB5_7OrgPathNtNtNtCsbUtogaBoXXO_4core3str6traits7FromStr8from_str
FNDA:0,_RNCNvXsd_NtCs6zS5XWhHsrg_9api_bones6org_idNtB7_7OrgPathNtNtNtCsbUtogaBoXXO_4core3str6traits7FromStr8from_str0B9_
FNDA:0,_RNvXs5_NtCs6zS5XWhHsrg_9api_bones6org_idNtCs65TfvGsZgzO_4uuid4UuidINtNtCsbUtogaBoXXO_4core7convert4FromNtB5_5OrgIdE4from
FNDA:0,_RINvXs9_NtCs6zS5XWhHsrg_9api_bones6org_idNtB6_5OrgIdNtNtCseAJKguVKcII_10serde_core2de11Deserialize11deserializeNtNtCsdC8qrlXHNsA_10serde_json5value5ValueECs52cul6wXlX0_10fake_smoke
FNF:68
FNH:67
DA:34,4
DA:35,4
DA:36,4
DA:38,4
DA:43,1
DA:44,1
DA:45,1
DA:47,1
DA:79,8
DA:80,8
DA:81,8
DA:92,16
DA:93,16
DA:94,16
DA:106,3
DA:107,3
DA:108,3
DA:119,1
DA:120,1
DA:121,1
DA:138,1
DA:139,1
DA:140,1
DA:144,10
DA:145,10
DA:146,10
DA:150,1
DA:151,1
DA:152,1
DA:156,1
DA:157,1
DA:158,1
DA:164,19
DA:165,19
DA:166,19
DA:167,19
DA:168,19
DA:174,1
DA:175,1
DA:176,1
DA:182,1
DA:183,1
DA:184,1
DA:193,5
DA:194,5
DA:195,5
DA:196,5
DA:207,4
DA:208,4
DA:209,4
DA:210,4
DA:211,4
DA:212,4
DA:213,4
DA:214,4
DA:215,1
DA:216,1
DA:217,3
DA:218,3
DA:219,1
DA:220,1
DA:221,2
DA:222,2
DA:223,4
DA:244,5
DA:245,5
DA:246,5
DA:250,9
DA:251,9
DA:252,9
DA:256,1
DA:257,1
DA:258,1
DA:264,3
DA:265,3
DA:266,3
DA:267,3
DA:268,3
DA:269,3
DA:270,3
DA:271,3
DA:272,3
DA:292,6
DA:293,6
DA:294,1
DA:295,5
DA:296,5
DA:297,6
DA:298,5
DA:299,5
DA:300,6
DA:306,3
DA:307,3
DA:308,3
DA:309,3
DA:310,3
DA:311,3
DA:312,3
DA:313,3
DA:314,1
DA:315,1
DA:316,2
DA:317,2
DA:318,0
DA:319,0
DA:320,2
DA:321,2
DA:322,3
DA:335,1
DA:336,1
DA:337,1
DA:338,1
DA:339,1
DA:342,1
DA:343,1
DA:344,1
DA:345,1
DA:348,1
DA:349,1
DA:350,1
DA:351,1
DA:354,1
DA:355,1
DA:356,1
DA:357,1
DA:358,1
DA:361,1
DA:362,1
DA:363,1
DA:366,1
DA:367,1
DA:368,1
DA:369,1
DA:370,1
DA:371,1
DA:374,1
DA:375,1
DA:376,1
DA:377,1
DA:380,1
DA:381,1
DA:382,1
DA:383,1
DA:384,1
DA:388,1
DA:390,1
DA:391,1
DA:392,1
DA:395,1
DA:396,1
DA:397,1
DA:398,1
DA:399,1
DA:402,1
DA:403,1
DA:404,1
DA:405,1
DA:406,1
DA:410,1
DA:411,1
DA:412,1
DA:413,1
DA:414,1
DA:415,1
DA:416,1
DA:420,1
DA:421,1
DA:422,1
DA:423,1
DA:426,1
DA:428,1
DA:429,1
DA:430,1
DA:431,1
DA:435,1
DA:439,1
DA:440,1
DA:441,1
DA:442,1
DA:443,1
DA:444,1
DA:445,1
DA:446,1
DA:447,1
DA:451,1
DA:455,1
DA:456,1
DA:457,1
DA:458,1
DA:459,1
DA:460,1
DA:461,1
DA:465,1
DA:469,1
DA:470,1
DA:471,1
DA:472,1
DA:473,1
DA:474,1
DA:475,1
DA:476,1
DA:477,1
DA:478,1
DA:482,1
DA:486,1
DA:487,1
DA:488,1
DA:489,1
DA:490,1
DA:491,1
DA:492,1
DA:493,1
DA:494,1
DA:495,1
DA:500,1
DA:501,1
DA:502,1
DA:503,1
DA:504,1
DA:505,1
DA:506,1
DA:507,1
DA:510,1
DA:511,1
DA:512,1
DA:513,1
DA:514,1
DA:515,1
DA:516,1
DA:519,1
DA:521,1
DA:522,1
DA:525,1
DA:526,1
DA:527,1
DA:528,1
DA:531,1
DA:532,1
DA:533,1
DA:534,1
DA:535,1
DA:538,1
DA:541,1
DA:542,1
DA:543,1
DA:544,1
DA:545,1
DA:546,1
DA:547,1
DA:548,1
DA:551,1
DA:552,1
DA:553,1
DA:554,1
DA:557,1
DA:558,1
DA:559,1
DA:560,1
DA:561,1
DA:562,1
DA:565,1
DA:566,1
DA:567,1
DA:568,1
DA:569,1
DA:572,1
DA:573,1
DA:574,1
DA:575,1
DA:579,1
DA:583,1
DA:584,1
DA:585,1
DA:586,1
DA:587,1
DA:588,1
DA:589,1
DA:590,1
DA:591,1
DA:592,1
DA:596,1
DA:600,1
DA:601,1
DA:602,1
DA:603,1
DA:604,1
DA:605,1
DA:606,1
DA:610,1
DA:614,1
DA:615,1
DA:616,1
DA:617,1
DA:618,1
DA:619,1
DA:620,1
DA:621,1
DA:622,1
DA:623,1
BRF:0
BRH:0
LF:326
LH:322
end_of_record
SF:/Users/gsalingu/git/api-bones/.claude/worktrees/feat+211-nested-org-adr/src/pagination.rs
FN:662,_RNCNCNvXNtNtCs1ufPfM0GhR0_9api_bones10pagination15axum_extractorsNtB8_16PaginationParamsINtNtCsgRxEIuGfDXj_9axum_core7extract16FromRequestPartsuE18from_request_parts00Ba_
FN:666,_RNCNCNvXNtNtCs1ufPfM0GhR0_9api_bones10pagination15axum_extractorsNtB8_16PaginationParamsINtNtCsgRxEIuGfDXj_9axum_core7extract16FromRequestPartsuE18from_request_parts0s_0Ba_
FN:677,_RNCNCNvXs_NtNtCs1ufPfM0GhR0_9api_bones10pagination15axum_extractorsNtBa_22CursorPaginationParamsINtNtCsgRxEIuGfDXj_9axum_core7extract16FromRequestPartsuE18from_request_parts00Bc_
FN:681,_RNCNCNvXs_NtNtCs1ufPfM0GhR0_9api_bones10pagination15axum_extractorsNtBa_22CursorPaginationParamsINtNtCsgRxEIuGfDXj_9axum_core7extract16FromRequestPartsuE18from_request_parts0s_0Bc_
FN:659,_RNCNvXNtNtCs1ufPfM0GhR0_9api_bones10pagination15axum_extractorsNtB6_16PaginationParamsINtNtCsgRxEIuGfDXj_9axum_core7extract16FromRequestPartsuE18from_request_parts0B8_
FN:674,_RNCNvXs_NtNtCs1ufPfM0GhR0_9api_bones10pagination15axum_extractorsNtB8_22CursorPaginationParamsINtNtCsgRxEIuGfDXj_9axum_core7extract16FromRequestPartsuE18from_request_parts0Ba_
FN:1362,_RNCNvNtNtCs1ufPfM0GhR0_9api_bones10pagination5testss_38arbitrary_pagination_params_with_limit0B7_
FN:1384,_RNCNvNtNtCs1ufPfM0GhR0_9api_bones10pagination5testss_45arbitrary_cursor_pagination_params_with_limit0B7_
FN:1252,_RNvNtNtCs1ufPfM0GhR0_9api_bones10pagination5testss_21keyset_params_default
FN:943,_RNvNtNtCs1ufPfM0GhR0_9api_bones10pagination5testss_22cursor_pagination_last
FN:936,_RNvNtNtCs1ufPfM0GhR0_9api_bones10pagination5testss_22cursor_pagination_more
FN:775,_RNvNtNtCs1ufPfM0GhR0_9api_bones10pagination5testss_26pagination_params_defaults
FN:1343,_RNvNtNtCs1ufPfM0GhR0_9api_bones10pagination5testss_27arbitrary_pagination_params
FN:1270,_RNvNtNtCs1ufPfM0GhR0_9api_bones10pagination5testss_27keyset_params_custom_values
FN:860,_RNvNtNtCs1ufPfM0GhR0_9api_bones10pagination5testss_27pagination_params_new_valid
FN:1334,_RNvNtNtCs1ufPfM0GhR0_9api_bones10pagination5testss_28keyset_params_serde_defaults
FN:950,_RNvNtNtCs1ufPfM0GhR0_9api_bones10pagination5testss_29cursor_paginated_response_new
FN:1286,_RNvNtNtCs1ufPfM0GhR0_9api_bones10pagination5testss_29keyset_paginated_response_new
FN:1324,_RNvNtNtCs1ufPfM0GhR0_9api_bones10pagination5testss_30keyset_params_serde_round_trip
FN:1009,_RNvNtNtCs1ufPfM0GhR0_9api_bones10pagination5testss_30pagination_params_serde_custom
FN:792,_RNvNtNtCs1ufPfM0GhR0_9api_bones10pagination5testss_31pagination_params_custom_values
FN:733,_RNvNtNtCs1ufPfM0GhR0_9api_bones10pagination5testss_32paginated_response_has_more_true
FN:1000,_RNvNtNtCs1ufPfM0GhR0_9api_bones10pagination5testss_32pagination_params_serde_defaults
FN:1053,_RNvNtNtCs1ufPfM0GhR0_9api_bones10pagination5testss_33cursor_pagination_params_defaults
FN:1153,_RNvNtNtCs1ufPfM0GhR0_9api_bones10pagination5testss_33cursor_pagination_schema_is_valid
FN:743,_RNvNtNtCs1ufPfM0GhR0_9api_bones10pagination5testss_33paginated_response_has_more_false
FN:1145,_RNvNtNtCs1ufPfM0GhR0_9api_bones10pagination5testss_33pagination_params_schema_is_valid
FN:1367,_RNvNtNtCs1ufPfM0GhR0_9api_bones10pagination5testss_34arbitrary_cursor_pagination_params
FN:888,_RNvNtNtCs1ufPfM0GhR0_9api_bones10pagination5testss_34cursor_pagination_params_new_valid
FN:913,_RNvNtNtCs1ufPfM0GhR0_9api_bones10pagination5testss_34keyset_pagination_params_new_valid
FN:1241,_RNvNtNtCs1ufPfM0GhR0_9api_bones10pagination5testss_34paginated_response_schema_is_valid
FN:1034,_RNvNtNtCs1ufPfM0GhR0_9api_bones10pagination5testss_34snapshot_cursor_paginated_response
FN:981,_RNvNtNtCs1ufPfM0GhR0_9api_bones10pagination5testss_34snapshot_offset_paginated_response
FN:1315,_RNvNtNtCs1ufPfM0GhR0_9api_bones10pagination5testss_35keyset_paginated_response_last_page
FN:1260,_RNvNtNtCs1ufPfM0GhR0_9api_bones10pagination5testss_35keyset_params_limit_none_falls_back
FN:962,_RNvNtNtCs1ufPfM0GhR0_9api_bones10pagination5testss_35paginated_response_serde_round_trip
FN:1302,_RNvNtNtCs1ufPfM0GhR0_9api_bones10pagination5testss_36keyset_paginated_response_first_page
FN:818,_RNvNtNtCs1ufPfM0GhR0_9api_bones10pagination5testss_36pagination_params_validate_max_limit
FN:807,_RNvNtNtCs1ufPfM0GhR0_9api_bones10pagination5testss_36pagination_params_validate_min_limit
FN:1136,_RNvNtNtCs1ufPfM0GhR0_9api_bones10pagination5testss_37cursor_pagination_params_serde_custom
FN:1026,_RNvNtNtCs1ufPfM0GhR0_9api_bones10pagination5testss_37cursor_response_serde_includes_cursor
FN:878,_RNvNtNtCs1ufPfM0GhR0_9api_bones10pagination5testss_37pagination_params_new_limit_101_fails
FN:1354,_RNvNtNtCs1ufPfM0GhR0_9api_bones10pagination5testss_38arbitrary_pagination_params_with_limit
FN:1070,_RNvNtNtCs1ufPfM0GhR0_9api_bones10pagination5testss_38cursor_pagination_params_custom_values
FN:871,_RNvNtNtCs1ufPfM0GhR0_9api_bones10pagination5testss_38pagination_params_new_limit_zero_fails
FN:1127,_RNvNtNtCs1ufPfM0GhR0_9api_bones10pagination5testss_39cursor_pagination_params_serde_defaults
FN:1018,_RNvNtNtCs1ufPfM0GhR0_9api_bones10pagination5testss_39cursor_response_serde_omits_null_cursor
FN:761,_RNvNtNtCs1ufPfM0GhR0_9api_bones10pagination5testss_39paginated_response_second_page_has_more
FN:829,_RNvNtNtCs1ufPfM0GhR0_9api_bones10pagination5testss_42pagination_params_validate_boundary_values
FN:1096,_RNvNtNtCs1ufPfM0GhR0_9api_bones10pagination5testss_43cursor_pagination_params_validate_max_limit
FN:1085,_RNvNtNtCs1ufPfM0GhR0_9api_bones10pagination5testss_43cursor_pagination_params_validate_min_limit
FN:750,_RNvNtNtCs1ufPfM0GhR0_9api_bones10pagination5testss_43paginated_response_exact_last_page_boundary
FN:903,_RNvNtNtCs1ufPfM0GhR0_9api_bones10pagination5testss_44cursor_pagination_params_new_limit_101_fails
FN:926,_RNvNtNtCs1ufPfM0GhR0_9api_bones10pagination5testss_44keyset_pagination_params_new_limit_101_fails
FN:1377,_RNvNtNtCs1ufPfM0GhR0_9api_bones10pagination5testss_45arbitrary_cursor_pagination_params_with_limit
FN:898,_RNvNtNtCs1ufPfM0GhR0_9api_bones10pagination5testss_45cursor_pagination_params_new_limit_zero_fails
FN:921,_RNvNtNtCs1ufPfM0GhR0_9api_bones10pagination5testss_45keyset_pagination_params_new_limit_zero_fails
FN:782,_RNvNtNtCs1ufPfM0GhR0_9api_bones10pagination5testss_45pagination_params_none_falls_back_to_defaults
FN:1107,_RNvNtNtCs1ufPfM0GhR0_9api_bones10pagination5testss_49cursor_pagination_params_validate_boundary_values
FN:845,_RNvNtNtCs1ufPfM0GhR0_9api_bones10pagination5testss_50pagination_params_validate_none_limit_uses_default
FN:1060,_RNvNtNtCs1ufPfM0GhR0_9api_bones10pagination5testss_52cursor_pagination_params_none_falls_back_to_defaults
FN:1173,_RNCNvNtNtNtCs1ufPfM0GhR0_9api_bones10pagination5tests20axum_extractor_tests14extract_cursor0B9_
FN:1165,_RNCNvNtNtNtCs1ufPfM0GhR0_9api_bones10pagination5tests20axum_extractor_tests14extract_offset0B9_
FN:1215,_RNCNvNtNtNtCs1ufPfM0GhR0_9api_bones10pagination5tests20axum_extractor_testss_13cursor_custom0B9_
FN:1189,_RNCNvNtNtNtCs1ufPfM0GhR0_9api_bones10pagination5tests20axum_extractor_testss_13custom_params0B9_
FN:1208,_RNCNvNtNtNtCs1ufPfM0GhR0_9api_bones10pagination5tests20axum_extractor_testss_14cursor_default0B9_
FN:1182,_RNCNvNtNtNtCs1ufPfM0GhR0_9api_bones10pagination5tests20axum_extractor_testss_14default_params0B9_
FN:1203,_RNCNvNtNtNtCs1ufPfM0GhR0_9api_bones10pagination5tests20axum_extractor_testss_18limit_101_rejected0B9_
FN:1197,_RNCNvNtNtNtCs1ufPfM0GhR0_9api_bones10pagination5tests20axum_extractor_testss_19limit_zero_rejected0B9_
FN:1223,_RNCNvNtNtNtCs1ufPfM0GhR0_9api_bones10pagination5tests20axum_extractor_testss_25cursor_limit_101_rejected0B9_
FN:1234,_RNCNvNtNtNtCs1ufPfM0GhR0_9api_bones10pagination5tests20axum_extractor_testss_34cursor_invalid_query_type_rejected0B9_
FN:1228,_RNCNvNtNtNtCs1ufPfM0GhR0_9api_bones10pagination5tests20axum_extractor_testss_34offset_invalid_query_type_rejected0B9_
FN:308,_RINvMs3_NtCs1ufPfM0GhR0_9api_bones10paginationNtB6_16CursorPagination4moreReEB8_
FN:91,_RNvMNtCs1ufPfM0GhR0_9api_bones10paginationINtB2_17PaginatedResponselE3newB4_
FN:266,_RNvMs2_NtCs1ufPfM0GhR0_9api_bones10paginationINtB5_23CursorPaginatedResponseReE3newB7_
FN:537,_RNvMs7_NtCs1ufPfM0GhR0_9api_bones10paginationINtB5_22KeysetPaginationParamsNtNtCsipk7xt2ATo7_5alloc6string6StringE5limitB7_
FN:507,_RNvMs7_NtCs1ufPfM0GhR0_9api_bones10paginationINtB5_22KeysetPaginationParamsyE3newB7_
FN:537,_RNvMs7_NtCs1ufPfM0GhR0_9api_bones10paginationINtB5_22KeysetPaginationParamsyE5limitB7_
FN:637,_RNvMs8_NtCs1ufPfM0GhR0_9api_bones10paginationINtB5_23KeysetPaginatedResponseReE10first_pageB7_
FN:605,_RNvMs8_NtCs1ufPfM0GhR0_9api_bones10paginationINtB5_23KeysetPaginatedResponseReE3newB7_
FN:637,_RNvMs8_NtCs1ufPfM0GhR0_9api_bones10paginationINtB5_23KeysetPaginatedResponselE10first_pageB7_
FN:605,_RNvMs8_NtCs1ufPfM0GhR0_9api_bones10paginationINtB5_23KeysetPaginatedResponselE3newB7_
FN:659,_RNvXNtNtCs1ufPfM0GhR0_9api_bones10pagination15axum_extractorsNtB4_16PaginationParamsINtNtCsgRxEIuGfDXj_9axum_core7extract16FromRequestPartsuE18from_request_partsB6_
FN:481,_RNvXs6_NtCs1ufPfM0GhR0_9api_bones10paginationINtB5_22KeysetPaginationParamsNtNtCsipk7xt2ATo7_5alloc6string6StringENtNtCsbUtogaBoXXO_4core7default7Default7defaultB7_
FN:674,_RNvXs_NtNtCs1ufPfM0GhR0_9api_bones10pagination15axum_extractorsNtB6_22CursorPaginationParamsINtNtCsgRxEIuGfDXj_9axum_core7extract16FromRequestPartsuE18from_request_partsB8_
FN:1173,_RNvNtNtNtCs1ufPfM0GhR0_9api_bones10pagination5tests20axum_extractor_tests14extract_cursor
FN:1165,_RNvNtNtNtCs1ufPfM0GhR0_9api_bones10pagination5tests20axum_extractor_tests14extract_offset
FN:1215,_RNvNtNtNtCs1ufPfM0GhR0_9api_bones10pagination5tests20axum_extractor_testss_13cursor_custom
FN:1189,_RNvNtNtNtCs1ufPfM0GhR0_9api_bones10pagination5tests20axum_extractor_testss_13custom_params
